
robot2.elf:     file format elf32-avr

Sections:
Idx Name          Size      VMA       LMA       File off  Algn
  0 .text         00005116  00000000  00000000  00000094  2**1
                  CONTENTS, ALLOC, LOAD, READONLY, CODE
  1 .data         0000011c  00800060  00005116  000051aa  2**0
                  CONTENTS, ALLOC, LOAD, DATA
  2 .bss          000004a6  0080017c  0080017c  000052c6  2**0
                  ALLOC
  3 .debug_aranges 00000120  00000000  00000000  000052c6  2**0
                  CONTENTS, READONLY, DEBUGGING
  4 .debug_pubnames 00000ab7  00000000  00000000  000053e6  2**0
                  CONTENTS, READONLY, DEBUGGING
  5 .debug_info   00002f62  00000000  00000000  00005e9d  2**0
                  CONTENTS, READONLY, DEBUGGING
  6 .debug_abbrev 00000af6  00000000  00000000  00008dff  2**0
                  CONTENTS, READONLY, DEBUGGING
  7 .debug_line   00002e9f  00000000  00000000  000098f5  2**0
                  CONTENTS, READONLY, DEBUGGING
  8 .debug_frame  00000640  00000000  00000000  0000c794  2**2
                  CONTENTS, READONLY, DEBUGGING
  9 .debug_str    00000ca1  00000000  00000000  0000cdd4  2**0
                  CONTENTS, READONLY, DEBUGGING
 10 .debug_loc    00001bdd  00000000  00000000  0000da75  2**0
                  CONTENTS, READONLY, DEBUGGING

Disassembly of section .text:

00000000 <__vectors>:
       0:	0c 94 d2 00 	jmp	0x1a4	; 0x1a4 <__ctors_end>
       4:	0c 94 ef 00 	jmp	0x1de	; 0x1de <__bad_interrupt>
       8:	0c 94 ef 00 	jmp	0x1de	; 0x1de <__bad_interrupt>
       c:	0c 94 ef 00 	jmp	0x1de	; 0x1de <__bad_interrupt>
      10:	0c 94 f1 03 	jmp	0x7e2	; 0x7e2 <__vector_4>
      14:	0c 94 ef 00 	jmp	0x1de	; 0x1de <__bad_interrupt>
      18:	0c 94 ef 00 	jmp	0x1de	; 0x1de <__bad_interrupt>
      1c:	0c 94 ef 00 	jmp	0x1de	; 0x1de <__bad_interrupt>
      20:	0c 94 ef 00 	jmp	0x1de	; 0x1de <__bad_interrupt>
      24:	0c 94 62 04 	jmp	0x8c4	; 0x8c4 <__vector_9>
      28:	0c 94 ef 00 	jmp	0x1de	; 0x1de <__bad_interrupt>
      2c:	0c 94 ef 00 	jmp	0x1de	; 0x1de <__bad_interrupt>
      30:	0c 94 ef 00 	jmp	0x1de	; 0x1de <__bad_interrupt>
      34:	0c 94 87 02 	jmp	0x50e	; 0x50e <__vector_13>
      38:	0c 94 ef 00 	jmp	0x1de	; 0x1de <__bad_interrupt>
      3c:	0c 94 2b 02 	jmp	0x456	; 0x456 <__vector_15>
      40:	0c 94 91 0b 	jmp	0x1722	; 0x1722 <__vector_16>
      44:	0c 94 ef 00 	jmp	0x1de	; 0x1de <__bad_interrupt>
      48:	0c 94 ef 00 	jmp	0x1de	; 0x1de <__bad_interrupt>
      4c:	0c 94 ef 00 	jmp	0x1de	; 0x1de <__bad_interrupt>
      50:	0c 94 ef 00 	jmp	0x1de	; 0x1de <__bad_interrupt>

00000054 <__c.1778>:
      54:	6e 61 6e 00                                         nan.

00000058 <__c.1776>:
      58:	69 6e 66 00                                         inf.

0000005c <__c.2068>:
      5c:	63 64 69 6e 6f 70 73 75 78 58 5b 65 66 67 45 46     cdinopsuxX[efgEF
      6c:	47 00                                               G.

0000006e <pstr_an>:
      6e:	61 6e 00                                            an.

00000071 <pstr_nfinity>:
      71:	6e 66 69 6e 69 74 79 00                             nfinity.

00000079 <pwr_m10>:
      79:	cd cc cc 3d 0a d7 23 3c 17 b7 d1 38 77 cc 2b 32     ...=..#<...8w.+2
      89:	95 95 e6 24 1f b1 4f 0a                             ...$..O.

00000091 <pwr_p10>:
      91:	00 00 20 41 00 00 c8 42 00 40 1c 46 20 bc be 4c     .. A...B.@.F ..L
      a1:	ca 1b 0e 5a ae c5 9d 74 00 40 7a 10 f3 5a 00 a0     ...Z...t.@z..Z..
      b1:	72 4e 18 09 00 10 a5 d4 e8 00 00 e8 76 48 17 00     rN..........vH..
      c1:	00 e4 0b 54 02 00 00 ca 9a 3b 00 00 00 e1 f5 05     ...T.....;......
      d1:	00 00 80 96 98 00 00 00 40 42 0f 00 00 00 a0 86     ........@B......
      e1:	01 00 00 00 10 27 00 00 00 00 e8 03 00 00 00 00     .....'..........
      f1:	64 00 00 00 00 00 0a 00 00 00 00 00 01 00 00 00     d...............
     101:	00 00 2c 76 d8 88 dc 67 4f 08 23 df c1 df ae 59     ..,v...gO.#....Y
     111:	e1 b1 b7 96 e5 e3 e4 53 c6 3a e6 51 99 76 96 e8     .......S.:.Q.v..
     121:	e6 c2 84 26 eb 89 8c 9b 62 ed 40 7c 6f fc ef bc     ...&....b.@|o...
     131:	9c 9f 40 f2 ba a5 6f a5 f4 90 05 5a 2a f7 5c 93     ..@...o....Z*.\.
     141:	6b 6c f9 67 6d c1 1b fc e0 e4 0d 47 fe f5 20 e6     kl.gm......G.. .
     151:	b5 00 d0 ed 90 2e 03 00 94 35 77 05 00 80 84 1e     .........5w.....
     161:	08 00 00 20 4e 0a 00 00 00 c8 0c 33 33 33 33 0f     ... N......3333.
     171:	98 6e 12 83 11 41 ef 8d 21 14 89 3b e6 55 16 cf     .n...A..!..;.U..
     181:	fe e6 db 18 d1 84 4b 38 1b f7 7c 1d 90 1d a4 bb     ......K8..|.....
     191:	e4 24 20 32 84 72 5e 22 81 00 c9 f1 24 ec a1 e5     .$ 2.r^"....$...
     1a1:	3d 27 00                                            ='.

000001a4 <__ctors_end>:
     1a4:	11 24       	eor	r1, r1
     1a6:	1f be       	out	0x3f, r1	; 63
     1a8:	cf e5       	ldi	r28, 0x5F	; 95
     1aa:	d8 e0       	ldi	r29, 0x08	; 8
     1ac:	de bf       	out	0x3e, r29	; 62
     1ae:	cd bf       	out	0x3d, r28	; 61

000001b0 <__do_copy_data>:
     1b0:	11 e0       	ldi	r17, 0x01	; 1
     1b2:	a0 e6       	ldi	r26, 0x60	; 96
     1b4:	b0 e0       	ldi	r27, 0x00	; 0
     1b6:	e6 e1       	ldi	r30, 0x16	; 22
     1b8:	f1 e5       	ldi	r31, 0x51	; 81
     1ba:	02 c0       	rjmp	.+4      	; 0x1c0 <.do_copy_data_start>

000001bc <.do_copy_data_loop>:
     1bc:	05 90       	lpm	r0, Z+
     1be:	0d 92       	st	X+, r0

000001c0 <.do_copy_data_start>:
     1c0:	ac 37       	cpi	r26, 0x7C	; 124
     1c2:	b1 07       	cpc	r27, r17
     1c4:	d9 f7       	brne	.-10     	; 0x1bc <.do_copy_data_loop>

000001c6 <__do_clear_bss>:
     1c6:	16 e0       	ldi	r17, 0x06	; 6
     1c8:	ac e7       	ldi	r26, 0x7C	; 124
     1ca:	b1 e0       	ldi	r27, 0x01	; 1
     1cc:	01 c0       	rjmp	.+2      	; 0x1d0 <.do_clear_bss_start>

000001ce <.do_clear_bss_loop>:
     1ce:	1d 92       	st	X+, r1

000001d0 <.do_clear_bss_start>:
     1d0:	a2 32       	cpi	r26, 0x22	; 34
     1d2:	b1 07       	cpc	r27, r17
     1d4:	e1 f7       	brne	.-8      	; 0x1ce <.do_clear_bss_loop>
     1d6:	0e 94 fb 00 	call	0x1f6	; 0x1f6 <main>
     1da:	0c 94 89 28 	jmp	0x5112	; 0x5112 <_exit>

000001de <__bad_interrupt>:
     1de:	0c 94 00 00 	jmp	0	; 0x0 <__vectors>

000001e2 <InitUART>:
	void InitUART(void)
	@des initialise le uart
*/
void InitUART(void)
{
	UCSRB = 0x00;
     1e2:	1a b8       	out	0x0a, r1	; 10
	UBRRH = 0;
     1e4:	10 bc       	out	0x20, r1	; 32
	//9600Kbps@16Mhz (ATMega32)
	UBRRL = 103;	
     1e6:	87 e6       	ldi	r24, 0x67	; 103
     1e8:	89 b9       	out	0x09, r24	; 9
	UCSRA = 0x00;
     1ea:	1b b8       	out	0x0b, r1	; 11
	UCSRC = 0x86;
     1ec:	86 e8       	ldi	r24, 0x86	; 134
     1ee:	80 bd       	out	0x20, r24	; 32
	UCSRB = 0xD8;
     1f0:	88 ed       	ldi	r24, 0xD8	; 216
     1f2:	8a b9       	out	0x0a, r24	; 10
}
     1f4:	08 95       	ret

000001f6 <main>:
	int main(void) 
	@des main
*/
int main(void) 
{
	cli();
     1f6:	f8 94       	cli
	//initialisations
	OSInit();
     1f8:	0e 94 f3 1b 	call	0x37e6	; 0x37e6 <OSInit>
	void InitUART(void)
	@des initialise le uart
*/
void InitUART(void)
{
	UCSRB = 0x00;
     1fc:	1a b8       	out	0x0a, r1	; 10
	UBRRH = 0;
     1fe:	10 bc       	out	0x20, r1	; 32
	//9600Kbps@16Mhz (ATMega32)
	UBRRL = 103;	
     200:	87 e6       	ldi	r24, 0x67	; 103
     202:	89 b9       	out	0x09, r24	; 9
	UCSRA = 0x00;
     204:	1b b8       	out	0x0b, r1	; 11
	UCSRC = 0x86;
     206:	86 e8       	ldi	r24, 0x86	; 134
     208:	80 bd       	out	0x20, r24	; 32
	UCSRB = 0xD8;
     20a:	88 ed       	ldi	r24, 0xD8	; 216
     20c:	8a b9       	out	0x0a, r24	; 10
{
	cli();
	//initialisations
	OSInit();
	InitUART();	
	pwmInit(); 	
     20e:	0e 94 48 04 	call	0x890	; 0x890 <pwmInit>
	hwInit();
     212:	0e 94 73 0c 	call	0x18e6	; 0x18e6 <hwInit>
	adcInit();
     216:	0e 94 df 08 	call	0x11be	; 0x11be <adcInit>
	adcStartConversion();
     21a:	0e 94 e9 08 	call	0x11d2	; 0x11d2 <adcStartConversion>
	SLInit();
     21e:	0e 94 7b 0c 	call	0x18f6	; 0x18f6 <SLInit>
	WdInit();
     222:	0e 94 a2 0c 	call	0x1944	; 0x1944 <WdInit>

	//creation des taches 
    OSTaskCreate(MoteurTask,    NULL, (OS_STK *)&MoteurTask_Stk[MOTEUR_STACK_SIZE-1], 1);  
     226:	80 ef       	ldi	r24, 0xF0	; 240
     228:	91 e0       	ldi	r25, 0x01	; 1
     22a:	60 e0       	ldi	r22, 0x00	; 0
     22c:	70 e0       	ldi	r23, 0x00	; 0
     22e:	48 eb       	ldi	r20, 0xB8	; 184
     230:	52 e0       	ldi	r21, 0x02	; 2
     232:	21 e0       	ldi	r18, 0x01	; 1
     234:	0e 94 b0 12 	call	0x2560	; 0x2560 <OSTaskCreate>
    OSTaskCreate(CmdTeleTask,   NULL, (OS_STK *)&CmdTele_Stk[STANDARD_STACK_SIZE-1] , 2); 	  
     238:	84 e8       	ldi	r24, 0x84	; 132
     23a:	91 e0       	ldi	r25, 0x01	; 1
     23c:	60 e0       	ldi	r22, 0x00	; 0
     23e:	70 e0       	ldi	r23, 0x00	; 0
     240:	4a ee       	ldi	r20, 0xEA	; 234
     242:	53 e0       	ldi	r21, 0x03	; 3
     244:	22 e0       	ldi	r18, 0x02	; 2
     246:	0e 94 b0 12 	call	0x2560	; 0x2560 <OSTaskCreate>
    OSTaskCreate(IOTask, NULL, (OS_STK *)&IOTask_Stk[STANDARD_STACK_SIZE-1] , 3); 
     24a:	8b e5       	ldi	r24, 0x5B	; 91
     24c:	91 e0       	ldi	r25, 0x01	; 1
     24e:	60 e0       	ldi	r22, 0x00	; 0
     250:	70 e0       	ldi	r23, 0x00	; 0
     252:	42 e5       	ldi	r20, 0x52	; 82
     254:	53 e0       	ldi	r21, 0x03	; 3
     256:	23 e0       	ldi	r18, 0x03	; 3
     258:	0e 94 b0 12 	call	0x2560	; 0x2560 <OSTaskCreate>
	   
    //creation des semaphores
	UARTTxSem 		= OSSemCreate(1);
     25c:	81 e0       	ldi	r24, 0x01	; 1
     25e:	90 e0       	ldi	r25, 0x00	; 0
     260:	0e 94 c3 10 	call	0x2186	; 0x2186 <OSSemCreate>
     264:	90 93 54 03 	sts	0x0354, r25
     268:	80 93 53 03 	sts	0x0353, r24
	UARTEchoSem 	= OSSemCreate(1);
     26c:	81 e0       	ldi	r24, 0x01	; 1
     26e:	90 e0       	ldi	r25, 0x00	; 0
     270:	0e 94 c3 10 	call	0x2186	; 0x2186 <OSSemCreate>
     274:	90 93 bc 02 	sts	0x02BC, r25
     278:	80 93 bb 02 	sts	0x02BB, r24
	MoteurUpdateSem	= OSSemCreate(1);
     27c:	81 e0       	ldi	r24, 0x01	; 1
     27e:	90 e0       	ldi	r25, 0x00	; 0
     280:	0e 94 c3 10 	call	0x2186	; 0x2186 <OSSemCreate>
     284:	90 93 f0 01 	sts	0x01F0, r25
     288:	80 93 ef 01 	sts	0x01EF, r24
	CmdTeleSem		= OSSemCreate(1);
     28c:	81 e0       	ldi	r24, 0x01	; 1
     28e:	90 e0       	ldi	r25, 0x00	; 0
     290:	0e 94 c3 10 	call	0x2186	; 0x2186 <OSSemCreate>
     294:	90 93 ec 01 	sts	0x01EC, r25
     298:	80 93 eb 01 	sts	0x01EB, r24
	InRunModeSem    = OSSemCreate(0);
     29c:	80 e0       	ldi	r24, 0x00	; 0
     29e:	90 e0       	ldi	r25, 0x00	; 0
     2a0:	0e 94 c3 10 	call	0x2186	; 0x2186 <OSSemCreate>
     2a4:	90 93 ba 02 	sts	0x02BA, r25
     2a8:	80 93 b9 02 	sts	0x02B9, r24
	//demarage de l'o.s.
	OSStart();
     2ac:	0e 94 6c 1b 	call	0x36d8	; 0x36d8 <OSStart>
}
     2b0:	80 e0       	ldi	r24, 0x00	; 0
     2b2:	90 e0       	ldi	r25, 0x00	; 0
     2b4:	08 95       	ret

000002b6 <IOTask>:
	@des tache qui vérifie l'état des switchs
	d'arrret et de mise en marche
	post et pend InRunModeSe
*/
static  void  IOTask(void *p_arg) 
{
     2b6:	df 93       	push	r29
     2b8:	cf 93       	push	r28
     2ba:	0f 92       	push	r0
     2bc:	cd b7       	in	r28, 0x3d	; 61
     2be:	de b7       	in	r29, 0x3e	; 62
	{    // Task body, always written as an infinite loop.

		switch(state)
		{
			case CHECK_FOR_START_BUTTON_STATE:
				if(SLCheckSwStatusStart())
     2c0:	0e 94 81 0c 	call	0x1902	; 0x1902 <SLCheckSwStatusStart>
     2c4:	88 23       	and	r24, r24
     2c6:	e1 f3       	breq	.-8      	; 0x2c0 <IOTask+0xa>
				{
					OSSemPost(InRunModeSem);
     2c8:	80 91 b9 02 	lds	r24, 0x02B9
     2cc:	90 91 ba 02 	lds	r25, 0x02BA
     2d0:	0e 94 1b 13 	call	0x2636	; 0x2636 <OSSemPost>
					state=CHECK_FOR_STOP_BUTTON_STATE;
					moteurSetMode(M_MARCHE);
     2d4:	80 e0       	ldi	r24, 0x00	; 0
     2d6:	0e 94 ee 07 	call	0xfdc	; 0xfdc <moteurSetMode>
				}
				break;

			case CHECK_FOR_STOP_BUTTON_STATE:
				if(SLCheckSwStatusStop())
     2da:	0e 94 8c 0c 	call	0x1918	; 0x1918 <SLCheckSwStatusStop>
     2de:	88 23       	and	r24, r24
     2e0:	e1 f3       	breq	.-8      	; 0x2da <IOTask+0x24>
				{
					OSSemPend(InRunModeSem, 0, &err);
     2e2:	80 91 b9 02 	lds	r24, 0x02B9
     2e6:	90 91 ba 02 	lds	r25, 0x02BA
     2ea:	60 e0       	ldi	r22, 0x00	; 0
     2ec:	70 e0       	ldi	r23, 0x00	; 0
     2ee:	ae 01       	movw	r20, r28
     2f0:	4f 5f       	subi	r20, 0xFF	; 255
     2f2:	5f 4f       	sbci	r21, 0xFF	; 255
     2f4:	0e 94 47 13 	call	0x268e	; 0x268e <OSSemPend>
					state=CHECK_FOR_START_BUTTON_STATE;
					moteurSetMode(M_ARRET);
     2f8:	82 e0       	ldi	r24, 0x02	; 2
     2fa:	0e 94 ee 07 	call	0xfdc	; 0xfdc <moteurSetMode>
					AngleD	    = 0;
     2fe:	10 92 7c 01 	sts	0x017C, r1
				    VitesseD	= 0;
     302:	10 92 7d 01 	sts	0x017D, r1
     306:	dc cf       	rjmp	.-72     	; 0x2c0 <IOTask+0xa>

00000308 <CmdTeleTask>:
/*
	static  void  CmdTeleTask(void *p_arg)
	@des tache de traitement des bytes recus et renvoi des bytes recus
*/
static  void  CmdTeleTask(void *p_arg) 
{
     308:	ef 92       	push	r14
     30a:	ff 92       	push	r15
     30c:	0f 93       	push	r16
     30e:	1f 93       	push	r17
     310:	df 93       	push	r29
     312:	cf 93       	push	r28
     314:	0f 92       	push	r0
     316:	cd b7       	in	r28, 0x3d	; 61
     318:	de b7       	in	r29, 0x3e	; 62
     31a:	00 e0       	ldi	r16, 0x00	; 0
	


    while (TRUE) 
	{    // Task body, always written as an infinite loop.
        tp = *((INT8U *) OSMboxPend(UARTRxBox, 0, &err));
     31c:	7e 01       	movw	r14, r28
     31e:	08 94       	sec
     320:	e1 1c       	adc	r14, r1
     322:	f1 1c       	adc	r15, r1
     324:	01 c0       	rjmp	.+2      	; 0x328 <CmdTeleTask+0x20>
/*
	static  void  CmdTeleTask(void *p_arg)
	@des tache de traitement des bytes recus et renvoi des bytes recus
*/
static  void  CmdTeleTask(void *p_arg) 
{
     326:	01 e0       	ldi	r16, 0x01	; 1
	


    while (TRUE) 
	{    // Task body, always written as an infinite loop.
        tp = *((INT8U *) OSMboxPend(UARTRxBox, 0, &err));
     328:	80 91 ed 01 	lds	r24, 0x01ED
     32c:	90 91 ee 01 	lds	r25, 0x01EE
     330:	60 e0       	ldi	r22, 0x00	; 0
     332:	70 e0       	ldi	r23, 0x00	; 0
     334:	a7 01       	movw	r20, r14
     336:	0e 94 dd 17 	call	0x2fba	; 0x2fba <OSMboxPend>
     33a:	fc 01       	movw	r30, r24
     33c:	10 81       	ld	r17, Z
		//Kick le watchdog
		WdDisable();
     33e:	0e 94 9b 0c 	call	0x1936	; 0x1936 <WdDisable>
		WD_RESTART_WATCHDOG;
     342:	81 b5       	in	r24, 0x21	; 33
     344:	8f 61       	ori	r24, 0x1F	; 31
     346:	81 bd       	out	0x21, r24	; 33

		//verifie l'integrité du Mbox
		if (err == OS_NO_ERR) 
     348:	89 81       	ldd	r24, Y+1	; 0x01
     34a:	88 23       	and	r24, r24
     34c:	69 f7       	brne	.-38     	; 0x328 <CmdTeleTask+0x20>
		{		
 				//Echo data
				if (OSSemAccept(UARTEchoSem))
     34e:	80 91 bb 02 	lds	r24, 0x02BB
     352:	90 91 bc 02 	lds	r25, 0x02BC
     356:	0e 94 a8 10 	call	0x2150	; 0x2150 <OSSemAccept>
     35a:	89 2b       	or	r24, r25
     35c:	81 f0       	breq	.+32     	; 0x37e <CmdTeleTask+0x76>
				{		
					OSSemPend(UARTTxSem, 0, &err);
     35e:	80 91 53 03 	lds	r24, 0x0353
     362:	90 91 54 03 	lds	r25, 0x0354
     366:	60 e0       	ldi	r22, 0x00	; 0
     368:	70 e0       	ldi	r23, 0x00	; 0
     36a:	a7 01       	movw	r20, r14
     36c:	0e 94 47 13 	call	0x268e	; 0x268e <OSSemPend>
					UDR = tp ;					
     370:	1c b9       	out	0x0c, r17	; 12
					OSSemPost(UARTEchoSem);
     372:	80 91 bb 02 	lds	r24, 0x02BB
     376:	90 91 bc 02 	lds	r25, 0x02BC
     37a:	0e 94 1b 13 	call	0x2636	; 0x2636 <OSSemPost>
				}
				//traite les données si est en mode roulement
				if (OSSemAccept(InRunModeSem))
     37e:	80 91 b9 02 	lds	r24, 0x02B9
     382:	90 91 ba 02 	lds	r25, 0x02BA
     386:	0e 94 a8 10 	call	0x2150	; 0x2150 <OSSemAccept>
     38a:	89 2b       	or	r24, r25
     38c:	69 f2       	breq	.-102    	; 0x328 <CmdTeleTask+0x20>
				{
					OSSemPost(InRunModeSem);
     38e:	80 91 b9 02 	lds	r24, 0x02B9
     392:	90 91 ba 02 	lds	r25, 0x02BA
     396:	0e 94 1b 13 	call	0x2636	; 0x2636 <OSSemPost>
					switch(Etat) 
     39a:	01 30       	cpi	r16, 0x01	; 1
     39c:	89 f0       	breq	.+34     	; 0x3c0 <CmdTeleTask+0xb8>
     39e:	01 30       	cpi	r16, 0x01	; 1
     3a0:	18 f0       	brcs	.+6      	; 0x3a8 <CmdTeleTask+0xa0>
     3a2:	02 30       	cpi	r16, 0x02	; 2
     3a4:	09 f6       	brne	.-126    	; 0x328 <CmdTeleTask+0x20>
     3a6:	10 c0       	rjmp	.+32     	; 0x3c8 <CmdTeleTask+0xc0>
					{
						case 0 :	
									if (tp  == 0xF0) 
     3a8:	10 3f       	cpi	r17, 0xF0	; 240
     3aa:	31 f4       	brne	.+12     	; 0x3b8 <CmdTeleTask+0xb0>
									{
										VitesseD = 0;
     3ac:	10 92 7d 01 	sts	0x017D, r1
										moteurSetMode(M_ARRET);
     3b0:	82 e0       	ldi	r24, 0x02	; 2
     3b2:	0e 94 ee 07 	call	0xfdc	; 0xfdc <moteurSetMode>
     3b6:	b8 cf       	rjmp	.-144    	; 0x328 <CmdTeleTask+0x20>
									}
									else if (tp == 0xF1) 
     3b8:	11 3f       	cpi	r17, 0xF1	; 241
     3ba:	09 f0       	breq	.+2      	; 0x3be <CmdTeleTask+0xb6>
     3bc:	b5 cf       	rjmp	.-150    	; 0x328 <CmdTeleTask+0x20>
     3be:	b3 cf       	rjmp	.-154    	; 0x326 <CmdTeleTask+0x1e>
										
									}
									break;

						case 1 :	
									VitesseD =tp;
     3c0:	10 93 7d 01 	sts	0x017D, r17
     3c4:	02 e0       	ldi	r16, 0x02	; 2
     3c6:	b0 cf       	rjmp	.-160    	; 0x328 <CmdTeleTask+0x20>
										Etat = 2;
									break;

						case 2 :	
									AngleD   =tp;
     3c8:	10 93 7c 01 	sts	0x017C, r17
										Etat = 0;	
									//assignation des valeurs au controle Moteur					
										moteurControl(VitesseD,AngleD);
     3cc:	80 91 7d 01 	lds	r24, 0x017D
     3d0:	61 2f       	mov	r22, r17
     3d2:	0e 94 9b 07 	call	0xf36	; 0xf36 <moteurControl>
										moteurSetMode(M_MARCHE);
     3d6:	80 e0       	ldi	r24, 0x00	; 0
     3d8:	0e 94 ee 07 	call	0xfdc	; 0xfdc <moteurSetMode>
     3dc:	00 e0       	ldi	r16, 0x00	; 0
     3de:	a4 cf       	rjmp	.-184    	; 0x328 <CmdTeleTask+0x20>

000003e0 <MoteurTask>:
	@des tache prioritaire affectue des inits et le 
	calculPWM lorsque que la semaphore MoteurUpdateSem 
	est posté
*/
static  void  MoteurTask(void *p_arg) 
{
     3e0:	0f 93       	push	r16
     3e2:	1f 93       	push	r17
     3e4:	df 93       	push	r29
     3e6:	cf 93       	push	r28
     3e8:	0f 92       	push	r0
     3ea:	cd b7       	in	r28, 0x3d	; 61
     3ec:	de b7       	in	r29, 0x3e	; 62

	INT8U	err;	
    (void)p_arg; // Prevent compiler warnings

	cli();//OS_CRITICAL_INT
     3ee:	f8 94       	cli
	InitOSTimer();
     3f0:	0e 94 d9 03 	call	0x7b2	; 0x7b2 <InitOSTimer>
	UARTRxBox = OSMboxCreate(NULL);	
     3f4:	80 e0       	ldi	r24, 0x00	; 0
     3f6:	90 e0       	ldi	r25, 0x00	; 0
     3f8:	0e 94 a2 0e 	call	0x1d44	; 0x1d44 <OSMboxCreate>
     3fc:	90 93 ee 01 	sts	0x01EE, r25
     400:	80 93 ed 01 	sts	0x01ED, r24
    sei();//EXIT_OS_CRITICAL
     404:	78 94       	sei
	adcCalibSeq();
     406:	0e 94 60 0a 	call	0x14c0	; 0x14c0 <adcCalibSeq>
	//kick le watchdog
	WdDisable();
     40a:	0e 94 9b 0c 	call	0x1936	; 0x1936 <WdDisable>
	WD_RESTART_WATCHDOG;
     40e:	81 b5       	in	r24, 0x21	; 33
     410:	8f 61       	ori	r24, 0x1F	; 31
     412:	81 bd       	out	0x21, r24	; 33
	//met le robot en mode arret au demarrage
	moteurSetMode(M_ARRET);
     414:	82 e0       	ldi	r24, 0x02	; 2
     416:	0e 94 ee 07 	call	0xfdc	; 0xfdc <moteurSetMode>

    while (TRUE) 
	{   
	   // Task body, always written as an infinite loop.
	   	OSSemPend(InRunModeSem, 0, &err);
     41a:	8e 01       	movw	r16, r28
     41c:	0f 5f       	subi	r16, 0xFF	; 255
     41e:	1f 4f       	sbci	r17, 0xFF	; 255
     420:	80 91 b9 02 	lds	r24, 0x02B9
     424:	90 91 ba 02 	lds	r25, 0x02BA
     428:	60 e0       	ldi	r22, 0x00	; 0
     42a:	70 e0       	ldi	r23, 0x00	; 0
     42c:	a8 01       	movw	r20, r16
     42e:	0e 94 47 13 	call	0x268e	; 0x268e <OSSemPend>
		OSSemPost(InRunModeSem);
     432:	80 91 b9 02 	lds	r24, 0x02B9
     436:	90 91 ba 02 	lds	r25, 0x02BA
     43a:	0e 94 1b 13 	call	0x2636	; 0x2636 <OSSemPost>
	    OSSemPend(MoteurUpdateSem, 0, &err);
     43e:	80 91 ef 01 	lds	r24, 0x01EF
     442:	90 91 f0 01 	lds	r25, 0x01F0
     446:	60 e0       	ldi	r22, 0x00	; 0
     448:	70 e0       	ldi	r23, 0x00	; 0
     44a:	a8 01       	movw	r20, r16
     44c:	0e 94 47 13 	call	0x268e	; 0x268e <OSSemPend>
		//appel de la fonction d'asservissement moteur
		CalculMoteur();		
     450:	0e 94 f1 07 	call	0xfe2	; 0xfe2 <CalculMoteur>
     454:	e5 cf       	rjmp	.-54     	; 0x420 <MoteurTask+0x40>

00000456 <__vector_15>:
	@des Isr d'envoi Uart fait 
	que posté UARTTxSem
*/
ISR(USART_TXC_vect,ISR_NAKED) 
{
	OS_INT_ENTER();
     456:	2f 93       	push	r18
     458:	3f 93       	push	r19
     45a:	2f b7       	in	r18, 0x3f	; 63
     45c:	20 68       	ori	r18, 0x80	; 128
     45e:	2f 93       	push	r18
     460:	0f 92       	push	r0
     462:	1f 92       	push	r1
     464:	4f 93       	push	r20
     466:	5f 93       	push	r21
     468:	6f 93       	push	r22
     46a:	7f 93       	push	r23
     46c:	8f 93       	push	r24
     46e:	9f 93       	push	r25
     470:	af 93       	push	r26
     472:	bf 93       	push	r27
     474:	ef 93       	push	r30
     476:	ff 93       	push	r31
     478:	80 91 3b 04 	lds	r24, 0x043B
     47c:	88 23       	and	r24, r24
     47e:	91 f4       	brne	.+36     	; 0x4a4 <__vector_15+0x4e>
     480:	2f 92       	push	r2
     482:	3f 92       	push	r3
     484:	4f 92       	push	r4
     486:	5f 92       	push	r5
     488:	6f 92       	push	r6
     48a:	7f 92       	push	r7
     48c:	8f 92       	push	r8
     48e:	9f 92       	push	r9
     490:	af 92       	push	r10
     492:	bf 92       	push	r11
     494:	cf 92       	push	r12
     496:	df 92       	push	r13
     498:	ef 92       	push	r14
     49a:	ff 92       	push	r15
     49c:	0f 93       	push	r16
     49e:	1f 93       	push	r17
     4a0:	cf 93       	push	r28
     4a2:	df 93       	push	r29
     4a4:	8f 5f       	subi	r24, 0xFF	; 255
     4a6:	80 93 3b 04 	sts	0x043B, r24
	PORTB|=UART_RX_LED;
     4aa:	c1 9a       	sbi	0x18, 1	; 24
	OSSemPost(UARTTxSem);
     4ac:	80 91 53 03 	lds	r24, 0x0353
     4b0:	90 91 54 03 	lds	r25, 0x0354
     4b4:	0e 94 1b 13 	call	0x2636	; 0x2636 <OSSemPost>
	OS_INT_EXIT();
     4b8:	f8 94       	cli
     4ba:	0e 94 99 1b 	call	0x3732	; 0x3732 <OSIntExit>
     4be:	80 91 3b 04 	lds	r24, 0x043B
     4c2:	88 23       	and	r24, r24
     4c4:	91 f4       	brne	.+36     	; 0x4ea <__vector_15+0x94>
     4c6:	df 91       	pop	r29
     4c8:	cf 91       	pop	r28
     4ca:	1f 91       	pop	r17
     4cc:	0f 91       	pop	r16
     4ce:	ff 90       	pop	r15
     4d0:	ef 90       	pop	r14
     4d2:	df 90       	pop	r13
     4d4:	cf 90       	pop	r12
     4d6:	bf 90       	pop	r11
     4d8:	af 90       	pop	r10
     4da:	9f 90       	pop	r9
     4dc:	8f 90       	pop	r8
     4de:	7f 90       	pop	r7
     4e0:	6f 90       	pop	r6
     4e2:	5f 90       	pop	r5
     4e4:	4f 90       	pop	r4
     4e6:	3f 90       	pop	r3
     4e8:	2f 90       	pop	r2
     4ea:	ff 91       	pop	r31
     4ec:	ef 91       	pop	r30
     4ee:	bf 91       	pop	r27
     4f0:	af 91       	pop	r26
     4f2:	9f 91       	pop	r25
     4f4:	8f 91       	pop	r24
     4f6:	7f 91       	pop	r23
     4f8:	6f 91       	pop	r22
     4fa:	5f 91       	pop	r21
     4fc:	4f 91       	pop	r20
     4fe:	1f 90       	pop	r1
     500:	0f 90       	pop	r0
     502:	2f 91       	pop	r18
     504:	2f 77       	andi	r18, 0x7F	; 127
     506:	2f bf       	out	0x3f, r18	; 63
     508:	3f 91       	pop	r19
     50a:	2f 91       	pop	r18
     50c:	18 95       	reti

0000050e <__vector_13>:
	provenant du uart et les places 
	dans la mailBox UartRxBox
*/
ISR(USART_RXC_vect,ISR_NAKED) 
{
	OS_INT_ENTER();
     50e:	2f 93       	push	r18
     510:	3f 93       	push	r19
     512:	2f b7       	in	r18, 0x3f	; 63
     514:	20 68       	ori	r18, 0x80	; 128
     516:	2f 93       	push	r18
     518:	0f 92       	push	r0
     51a:	1f 92       	push	r1
     51c:	4f 93       	push	r20
     51e:	5f 93       	push	r21
     520:	6f 93       	push	r22
     522:	7f 93       	push	r23
     524:	8f 93       	push	r24
     526:	9f 93       	push	r25
     528:	af 93       	push	r26
     52a:	bf 93       	push	r27
     52c:	ef 93       	push	r30
     52e:	ff 93       	push	r31
     530:	80 91 3b 04 	lds	r24, 0x043B
     534:	88 23       	and	r24, r24
     536:	91 f4       	brne	.+36     	; 0x55c <__vector_13+0x4e>
     538:	2f 92       	push	r2
     53a:	3f 92       	push	r3
     53c:	4f 92       	push	r4
     53e:	5f 92       	push	r5
     540:	6f 92       	push	r6
     542:	7f 92       	push	r7
     544:	8f 92       	push	r8
     546:	9f 92       	push	r9
     548:	af 92       	push	r10
     54a:	bf 92       	push	r11
     54c:	cf 92       	push	r12
     54e:	df 92       	push	r13
     550:	ef 92       	push	r14
     552:	ff 92       	push	r15
     554:	0f 93       	push	r16
     556:	1f 93       	push	r17
     558:	cf 93       	push	r28
     55a:	df 93       	push	r29
     55c:	8f 5f       	subi	r24, 0xFF	; 255
     55e:	80 93 3b 04 	sts	0x043B, r24
	tpRx = UDR;
     562:	8c b1       	in	r24, 0x0c	; 12
     564:	80 93 7e 01 	sts	0x017E, r24
	PORTB&=~UART_RX_LED;
     568:	c1 98       	cbi	0x18, 1	; 24
	OSMboxPost(UARTRxBox, (void*)&tpRx);
     56a:	80 91 ed 01 	lds	r24, 0x01ED
     56e:	90 91 ee 01 	lds	r25, 0x01EE
     572:	6e e7       	ldi	r22, 0x7E	; 126
     574:	71 e0       	ldi	r23, 0x01	; 1
     576:	0e 94 b5 17 	call	0x2f6a	; 0x2f6a <OSMboxPost>
	OS_INT_EXIT();
     57a:	f8 94       	cli
     57c:	0e 94 99 1b 	call	0x3732	; 0x3732 <OSIntExit>
     580:	80 91 3b 04 	lds	r24, 0x043B
     584:	88 23       	and	r24, r24
     586:	91 f4       	brne	.+36     	; 0x5ac <__vector_13+0x9e>
     588:	df 91       	pop	r29
     58a:	cf 91       	pop	r28
     58c:	1f 91       	pop	r17
     58e:	0f 91       	pop	r16
     590:	ff 90       	pop	r15
     592:	ef 90       	pop	r14
     594:	df 90       	pop	r13
     596:	cf 90       	pop	r12
     598:	bf 90       	pop	r11
     59a:	af 90       	pop	r10
     59c:	9f 90       	pop	r9
     59e:	8f 90       	pop	r8
     5a0:	7f 90       	pop	r7
     5a2:	6f 90       	pop	r6
     5a4:	5f 90       	pop	r5
     5a6:	4f 90       	pop	r4
     5a8:	3f 90       	pop	r3
     5aa:	2f 90       	pop	r2
     5ac:	ff 91       	pop	r31
     5ae:	ef 91       	pop	r30
     5b0:	bf 91       	pop	r27
     5b2:	af 91       	pop	r26
     5b4:	9f 91       	pop	r25
     5b6:	8f 91       	pop	r24
     5b8:	7f 91       	pop	r23
     5ba:	6f 91       	pop	r22
     5bc:	5f 91       	pop	r21
     5be:	4f 91       	pop	r20
     5c0:	1f 90       	pop	r1
     5c2:	0f 90       	pop	r0
     5c4:	2f 91       	pop	r18
     5c6:	2f 77       	andi	r18, 0x7F	; 127
     5c8:	2f bf       	out	0x3f, r18	; 63
     5ca:	3f 91       	pop	r19
     5cc:	2f 91       	pop	r18
     5ce:	18 95       	reti

000005d0 <OSTaskStkInit>:
*
**********************************************************************************************************
*/

OS_STK   *OSTaskStkInit(void (*task)(void *pd), void *pdata, OS_STK *ptos, INT16U opt)
{
     5d0:	fa 01       	movw	r30, r20
    stk     = (INT8U *)ptos;				/* AVR return stack ("hardware stack")          			*/
    tmp     = (INT16U)task;

	/* "push" initial register values onto the stack */

    *stk-- = (INT8U)tmp;                   /* Put task start address on top of stack          			*/
     5d2:	80 83       	st	Z, r24
    *stk-- = (INT8U)(tmp >> 8);
     5d4:	92 93       	st	-Z, r25

    *stk-- = (INT8U)0x00;                   /* R18  = 0x00                                               */
     5d6:	12 92       	st	-Z, r1
    *stk-- = (INT8U)0x00;                   /* R19  = 0x00                                               */
     5d8:	12 92       	st	-Z, r1
    *stk-- = (INT8U)0x80;                   /* SREG = Interrupts enabled                                */
     5da:	80 e8       	ldi	r24, 0x80	; 128
     5dc:	82 93       	st	-Z, r24
    *stk-- = (INT8U)0x00;                   /* R0 = 0x00                                               */
     5de:	12 92       	st	-Z, r1
    *stk-- = (INT8U)0x00;                   /* R1 = 0x00                                               */
     5e0:	12 92       	st	-Z, r1
    *stk-- = (INT8U)0x00;                   /* R20 = 0x00                                               */
     5e2:	12 92       	st	-Z, r1
    *stk-- = (INT8U)0x00;                   /* R21 = 0x00                                               */
     5e4:	12 92       	st	-Z, r1
    *stk-- = (INT8U)0x00;                   /* R22 = 0x00                                               */
     5e6:	12 92       	st	-Z, r1
    *stk-- = (INT8U)0x00;                   /* R23 = 0x00                                               */
     5e8:	12 92       	st	-Z, r1
 	
    tmp    = (INT16U)pdata;
    *stk-- = (INT8U)tmp;                    /* Simulate call to function with argument                  */
     5ea:	62 93       	st	-Z, r22
    *stk-- = (INT8U)(tmp >> 8);				/* R24, R25 contains argument pointer pdata 				*/
     5ec:	72 93       	st	-Z, r23

    *stk-- = (INT8U)0x00;                   /* R26 = 0x00                                               */
     5ee:	12 92       	st	-Z, r1
    *stk-- = (INT8U)0x00;                   /* R27 = 0x00                                               */
     5f0:	12 92       	st	-Z, r1
    *stk-- = (INT8U)0x00;                   /* R30 = 0x00                                               */
     5f2:	12 92       	st	-Z, r1
    *stk-- = (INT8U)0x00;                   /* R31 = 0x00                                               */
     5f4:	12 92       	st	-Z, r1
    *stk-- = (INT8U)0x00;                   /* R2  = 0x00                                               */
     5f6:	12 92       	st	-Z, r1
    *stk-- = (INT8U)0x00;                   /* R3  = 0x00                                               */
     5f8:	12 92       	st	-Z, r1
    *stk-- = (INT8U)0x00;                   /* R4  = 0x00                                               */
     5fa:	12 92       	st	-Z, r1
    *stk-- = (INT8U)0x00;                   /* R5  = 0x00                                               */
     5fc:	12 92       	st	-Z, r1
    *stk-- = (INT8U)0x00;                   /* R6  = 0x00                                               */
     5fe:	12 92       	st	-Z, r1
    *stk-- = (INT8U)0x00;                   /* R7  = 0x00                                               */
     600:	12 92       	st	-Z, r1
    *stk-- = (INT8U)0x00;                   /* R8  = 0x00                                               */
     602:	12 92       	st	-Z, r1
    *stk-- = (INT8U)0x00;                   /* R9  = 0x00                                               */
     604:	12 92       	st	-Z, r1
    *stk-- = (INT8U)0x00;                   /* R10 = 0x00                                               */
     606:	12 92       	st	-Z, r1
    *stk-- = (INT8U)0x00;                   /* R11 = 0x00                                               */
     608:	12 92       	st	-Z, r1
    *stk-- = (INT8U)0x00;                   /* R12 = 0x00                                               */
     60a:	12 92       	st	-Z, r1
    *stk-- = (INT8U)0x00;                   /* R13 = 0x00                                               */
     60c:	12 92       	st	-Z, r1
    *stk-- = (INT8U)0x00;                   /* R14 = 0x00                                               */
     60e:	12 92       	st	-Z, r1
    *stk-- = (INT8U)0x00;                   /* R15 = 0x00                                               */
     610:	12 92       	st	-Z, r1
    *stk-- = (INT8U)0x00;                   /* R16 = 0x00                                               */
     612:	12 92       	st	-Z, r1
    *stk-- = (INT8U)0x00;                   /* R17 = 0x00                                               */
     614:	12 92       	st	-Z, r1
    *stk-- = (INT8U)0x00;                   /* R28 = 0x00                                               */
     616:	12 92       	st	-Z, r1
    *stk-- = (INT8U)0x00;                   /* R29 = 0x00                                               */
     618:	12 92       	st	-Z, r1
     61a:	31 97       	sbiw	r30, 0x01	; 1
    return ((void *)stk);
}
     61c:	cf 01       	movw	r24, r30
     61e:	08 95       	ret

00000620 <OSStartHighRdy>:

void OSStartHighRdy (void) {
#if (OS_CPU_HOOKS_EN > 0) && (OS_TASK_SW_HOOK_EN > 0)
	OSTaskSwHook();
#endif
	OSRunning++;
     620:	80 91 f1 03 	lds	r24, 0x03F1
     624:	8f 5f       	subi	r24, 0xFF	; 255
     626:	80 93 f1 03 	sts	0x03F1, r24
	SP = (INT16U) OSTCBHighRdy->OSTCBStkPtr;
     62a:	e0 91 31 04 	lds	r30, 0x0431
     62e:	f0 91 32 04 	lds	r31, 0x0432
     632:	80 81       	ld	r24, Z
     634:	91 81       	ldd	r25, Z+1	; 0x01
     636:	9e bf       	out	0x3e, r25	; 62
     638:	8d bf       	out	0x3d, r24	; 61
	POP_ALL();
     63a:	df 91       	pop	r29
     63c:	cf 91       	pop	r28
     63e:	1f 91       	pop	r17
     640:	0f 91       	pop	r16
     642:	ff 90       	pop	r15
     644:	ef 90       	pop	r14
     646:	df 90       	pop	r13
     648:	cf 90       	pop	r12
     64a:	bf 90       	pop	r11
     64c:	af 90       	pop	r10
     64e:	9f 90       	pop	r9
     650:	8f 90       	pop	r8
     652:	7f 90       	pop	r7
     654:	6f 90       	pop	r6
     656:	5f 90       	pop	r5
     658:	4f 90       	pop	r4
     65a:	3f 90       	pop	r3
     65c:	2f 90       	pop	r2
     65e:	ff 91       	pop	r31
     660:	ef 91       	pop	r30
     662:	bf 91       	pop	r27
     664:	af 91       	pop	r26
     666:	9f 91       	pop	r25
     668:	8f 91       	pop	r24
     66a:	7f 91       	pop	r23
     66c:	6f 91       	pop	r22
     66e:	5f 91       	pop	r21
     670:	4f 91       	pop	r20
     672:	1f 90       	pop	r1
     674:	0f 90       	pop	r0
     676:	2f 91       	pop	r18
     678:	2f bf       	out	0x3f, r18	; 63
     67a:	3f 91       	pop	r19
     67c:	2f 91       	pop	r18
}
     67e:	08 95       	ret

00000680 <OSCtxSw>:
*                                                PCL                                     (High memory)
*********************************************************************************************************
*/

void OSCtxSw (void) {
	PUSH_ALL();
     680:	2f 93       	push	r18
     682:	3f 93       	push	r19
     684:	2f b7       	in	r18, 0x3f	; 63
     686:	2f 93       	push	r18
     688:	0f 92       	push	r0
     68a:	1f 92       	push	r1
     68c:	4f 93       	push	r20
     68e:	5f 93       	push	r21
     690:	6f 93       	push	r22
     692:	7f 93       	push	r23
     694:	8f 93       	push	r24
     696:	9f 93       	push	r25
     698:	af 93       	push	r26
     69a:	bf 93       	push	r27
     69c:	ef 93       	push	r30
     69e:	ff 93       	push	r31
     6a0:	2f 92       	push	r2
     6a2:	3f 92       	push	r3
     6a4:	4f 92       	push	r4
     6a6:	5f 92       	push	r5
     6a8:	6f 92       	push	r6
     6aa:	7f 92       	push	r7
     6ac:	8f 92       	push	r8
     6ae:	9f 92       	push	r9
     6b0:	af 92       	push	r10
     6b2:	bf 92       	push	r11
     6b4:	cf 92       	push	r12
     6b6:	df 92       	push	r13
     6b8:	ef 92       	push	r14
     6ba:	ff 92       	push	r15
     6bc:	0f 93       	push	r16
     6be:	1f 93       	push	r17
     6c0:	cf 93       	push	r28
     6c2:	df 93       	push	r29
	OSTCBCur->OSTCBStkPtr = (OS_STK *) SP;
     6c4:	8d b7       	in	r24, 0x3d	; 61
     6c6:	9e b7       	in	r25, 0x3e	; 62
     6c8:	e0 91 3c 04 	lds	r30, 0x043C
     6cc:	f0 91 3d 04 	lds	r31, 0x043D
     6d0:	91 83       	std	Z+1, r25	; 0x01
     6d2:	80 83       	st	Z, r24
#if (OS_CPU_HOOKS_EN > 0) && (OS_TASK_SW_HOOK_EN > 0)
	OSTaskSwHook();
#endif
	OSPrioCur = OSPrioHighRdy;
     6d4:	80 91 f6 03 	lds	r24, 0x03F6
     6d8:	80 93 0b 04 	sts	0x040B, r24
	OSTCBCur = OSTCBHighRdy;
     6dc:	e0 91 31 04 	lds	r30, 0x0431
     6e0:	f0 91 32 04 	lds	r31, 0x0432
     6e4:	f0 93 3d 04 	sts	0x043D, r31
     6e8:	e0 93 3c 04 	sts	0x043C, r30
	SP = (INT16U) OSTCBHighRdy->OSTCBStkPtr;
     6ec:	80 81       	ld	r24, Z
     6ee:	91 81       	ldd	r25, Z+1	; 0x01
     6f0:	9e bf       	out	0x3e, r25	; 62
     6f2:	8d bf       	out	0x3d, r24	; 61
	POP_ALL();
     6f4:	df 91       	pop	r29
     6f6:	cf 91       	pop	r28
     6f8:	1f 91       	pop	r17
     6fa:	0f 91       	pop	r16
     6fc:	ff 90       	pop	r15
     6fe:	ef 90       	pop	r14
     700:	df 90       	pop	r13
     702:	cf 90       	pop	r12
     704:	bf 90       	pop	r11
     706:	af 90       	pop	r10
     708:	9f 90       	pop	r9
     70a:	8f 90       	pop	r8
     70c:	7f 90       	pop	r7
     70e:	6f 90       	pop	r6
     710:	5f 90       	pop	r5
     712:	4f 90       	pop	r4
     714:	3f 90       	pop	r3
     716:	2f 90       	pop	r2
     718:	ff 91       	pop	r31
     71a:	ef 91       	pop	r30
     71c:	bf 91       	pop	r27
     71e:	af 91       	pop	r26
     720:	9f 91       	pop	r25
     722:	8f 91       	pop	r24
     724:	7f 91       	pop	r23
     726:	6f 91       	pop	r22
     728:	5f 91       	pop	r21
     72a:	4f 91       	pop	r20
     72c:	1f 90       	pop	r1
     72e:	0f 90       	pop	r0
     730:	2f 91       	pop	r18
     732:	2f bf       	out	0x3f, r18	; 63
     734:	3f 91       	pop	r19
     736:	2f 91       	pop	r18
}
     738:	08 95       	ret

0000073a <OSIntCtxSw>:
void OSIntCtxSw (void) {
#if OS_CRITICAL_METHOD == 1
	OSTCBCur->OSTCBStkPtr = (OS_STK *) SP+4;
#endif
#if OS_CRITICAL_METHOD == 2
	OSTCBCur->OSTCBStkPtr = (OS_STK *) SP+6;
     73a:	8d b7       	in	r24, 0x3d	; 61
     73c:	9e b7       	in	r25, 0x3e	; 62
     73e:	e0 91 3c 04 	lds	r30, 0x043C
     742:	f0 91 3d 04 	lds	r31, 0x043D
     746:	06 96       	adiw	r24, 0x06	; 6
     748:	91 83       	std	Z+1, r25	; 0x01
     74a:	80 83       	st	Z, r24
#endif
#if (OS_CPU_HOOKS_EN > 0) && (OS_TASK_SW_HOOK_EN > 0)
	OSTaskSwHook();
#endif
	OSPrioCur = OSPrioHighRdy;
     74c:	80 91 f6 03 	lds	r24, 0x03F6
     750:	80 93 0b 04 	sts	0x040B, r24
	OSTCBCur = OSTCBHighRdy;
     754:	e0 91 31 04 	lds	r30, 0x0431
     758:	f0 91 32 04 	lds	r31, 0x0432
     75c:	f0 93 3d 04 	sts	0x043D, r31
     760:	e0 93 3c 04 	sts	0x043C, r30
	SP = (INT16U) OSTCBHighRdy->OSTCBStkPtr;
     764:	80 81       	ld	r24, Z
     766:	91 81       	ldd	r25, Z+1	; 0x01
     768:	9e bf       	out	0x3e, r25	; 62
     76a:	8d bf       	out	0x3d, r24	; 61
	POP_ALL();
     76c:	df 91       	pop	r29
     76e:	cf 91       	pop	r28
     770:	1f 91       	pop	r17
     772:	0f 91       	pop	r16
     774:	ff 90       	pop	r15
     776:	ef 90       	pop	r14
     778:	df 90       	pop	r13
     77a:	cf 90       	pop	r12
     77c:	bf 90       	pop	r11
     77e:	af 90       	pop	r10
     780:	9f 90       	pop	r9
     782:	8f 90       	pop	r8
     784:	7f 90       	pop	r7
     786:	6f 90       	pop	r6
     788:	5f 90       	pop	r5
     78a:	4f 90       	pop	r4
     78c:	3f 90       	pop	r3
     78e:	2f 90       	pop	r2
     790:	ff 91       	pop	r31
     792:	ef 91       	pop	r30
     794:	bf 91       	pop	r27
     796:	af 91       	pop	r26
     798:	9f 91       	pop	r25
     79a:	8f 91       	pop	r24
     79c:	7f 91       	pop	r23
     79e:	6f 91       	pop	r22
     7a0:	5f 91       	pop	r21
     7a2:	4f 91       	pop	r20
     7a4:	1f 90       	pop	r1
     7a6:	0f 90       	pop	r0
     7a8:	2f 91       	pop	r18
     7aa:	2f bf       	out	0x3f, r18	; 63
     7ac:	3f 91       	pop	r19
     7ae:	2f 91       	pop	r18
}
     7b0:	08 95       	ret

000007b2 <InitOSTimer>:
}


void InitOSTimer(void) {

    TIMSK &= 0x3F;         // Disable TIMER2 Interrupts
     7b2:	89 b7       	in	r24, 0x39	; 57
     7b4:	8f 73       	andi	r24, 0x3F	; 63
     7b6:	89 bf       	out	0x39, r24	; 57
    TCCR2  = 0x0D;
     7b8:	8d e0       	ldi	r24, 0x0D	; 13
     7ba:	85 bd       	out	0x25, r24	; 37
    TCNT2  =    0;         // Start TCNT at 0 for a new cycle
     7bc:	14 bc       	out	0x24, r1	; 36
    OCR2   =  124;
     7be:	8c e7       	ldi	r24, 0x7C	; 124
     7c0:	83 bd       	out	0x23, r24	; 35

    TIFR   |= 0xC0;         // Clear  TIMER2 compare Interrupt Flag
     7c2:	88 b7       	in	r24, 0x38	; 56
     7c4:	80 6c       	ori	r24, 0xC0	; 192
     7c6:	88 bf       	out	0x38, r24	; 56
    TIMSK  |= 0x80;         // Enable TIMER2 compare Interrupt
     7c8:	89 b7       	in	r24, 0x39	; 57
     7ca:	80 68       	ori	r24, 0x80	; 128
     7cc:	89 bf       	out	0x39, r24	; 57
}
     7ce:	08 95       	ret

000007d0 <OSInitHookBegin>:
*********************************************************************************************************
*/
//#if OS_CPU_HOOKS_EN > 0 && OS_VERSION > 203
void  OSInitHookBegin (void)
{
}
     7d0:	08 95       	ret

000007d2 <OSInitHookEnd>:
*********************************************************************************************************
*/
//#if OS_CPU_HOOKS_EN > 0 && OS_VERSION > 203
void  OSInitHookEnd (void)
{
}
     7d2:	08 95       	ret

000007d4 <OSTaskCreateHook>:
*/
//#if OS_CPU_HOOKS_EN > 0 
void  OSTaskCreateHook (OS_TCB *ptcb)
{
    ptcb = ptcb;                       /* Prevent compiler warning                                     */
}
     7d4:	08 95       	ret

000007d6 <OSTaskDelHook>:
*/
#if OS_CPU_HOOKS_EN > 0 
void  OSTaskDelHook (OS_TCB *ptcb)
{
    ptcb = ptcb;                       /* Prevent compiler warning                                     */
}
     7d6:	08 95       	ret

000007d8 <OSTaskIdleHook>:
*********************************************************************************************************
*/
//#if OS_CPU_HOOKS_EN > 0 && OS_VERSION >= 251
void  OSTaskIdleHook (void)
{
}
     7d8:	08 95       	ret

000007da <OSTaskStatHook>:
*/

#if OS_CPU_HOOKS_EN > 0 
void  OSTaskStatHook (void)
{
}
     7da:	08 95       	ret

000007dc <OSTaskSwHook>:
*********************************************************************************************************
*/
#if (OS_CPU_HOOKS_EN > 0) && (OS_TASK_SW_HOOK_EN > 0)
void  OSTaskSwHook (void)
{
}
     7dc:	08 95       	ret

000007de <OSTCBInitHook>:
*/
//#if OS_CPU_HOOKS_EN > 0 && OS_VERSION > 203
void  OSTCBInitHook (OS_TCB *ptcb)
{
    ptcb = ptcb;                                           /* Prevent Compiler warning                 */
}
     7de:	08 95       	ret

000007e0 <OSTimeTickHook>:
*********************************************************************************************************
*/
#if (OS_CPU_HOOKS_EN > 0) && (OS_TIME_TICK_HOOK_EN > 0)
void  OSTimeTickHook (void)
{
}
     7e0:	08 95       	ret

000007e2 <__vector_4>:
*               Return from Interrupt
*********************************************************************************************************
*/

SIGNAL (SIG_OUTPUT_COMPARE2) {
	OS_INT_ENTER();
     7e2:	2f 93       	push	r18
     7e4:	3f 93       	push	r19
     7e6:	2f b7       	in	r18, 0x3f	; 63
     7e8:	20 68       	ori	r18, 0x80	; 128
     7ea:	2f 93       	push	r18
     7ec:	0f 92       	push	r0
     7ee:	1f 92       	push	r1
     7f0:	4f 93       	push	r20
     7f2:	5f 93       	push	r21
     7f4:	6f 93       	push	r22
     7f6:	7f 93       	push	r23
     7f8:	8f 93       	push	r24
     7fa:	9f 93       	push	r25
     7fc:	af 93       	push	r26
     7fe:	bf 93       	push	r27
     800:	ef 93       	push	r30
     802:	ff 93       	push	r31
     804:	80 91 3b 04 	lds	r24, 0x043B
     808:	88 23       	and	r24, r24
     80a:	91 f4       	brne	.+36     	; 0x830 <__vector_4+0x4e>
     80c:	2f 92       	push	r2
     80e:	3f 92       	push	r3
     810:	4f 92       	push	r4
     812:	5f 92       	push	r5
     814:	6f 92       	push	r6
     816:	7f 92       	push	r7
     818:	8f 92       	push	r8
     81a:	9f 92       	push	r9
     81c:	af 92       	push	r10
     81e:	bf 92       	push	r11
     820:	cf 92       	push	r12
     822:	df 92       	push	r13
     824:	ef 92       	push	r14
     826:	ff 92       	push	r15
     828:	0f 93       	push	r16
     82a:	1f 93       	push	r17
     82c:	cf 93       	push	r28
     82e:	df 93       	push	r29
     830:	8f 5f       	subi	r24, 0xFF	; 255
     832:	80 93 3b 04 	sts	0x043B, r24
	OSTimeTick();
     836:	0e 94 22 1b 	call	0x3644	; 0x3644 <OSTimeTick>
	OS_INT_EXIT();
     83a:	f8 94       	cli
     83c:	0e 94 99 1b 	call	0x3732	; 0x3732 <OSIntExit>
     840:	80 91 3b 04 	lds	r24, 0x043B
     844:	88 23       	and	r24, r24
     846:	91 f4       	brne	.+36     	; 0x86c <__stack+0xd>
     848:	df 91       	pop	r29
     84a:	cf 91       	pop	r28
     84c:	1f 91       	pop	r17
     84e:	0f 91       	pop	r16
     850:	ff 90       	pop	r15
     852:	ef 90       	pop	r14
     854:	df 90       	pop	r13
     856:	cf 90       	pop	r12
     858:	bf 90       	pop	r11
     85a:	af 90       	pop	r10
     85c:	9f 90       	pop	r9
     85e:	8f 90       	pop	r8
     860:	7f 90       	pop	r7
     862:	6f 90       	pop	r6
     864:	5f 90       	pop	r5
     866:	4f 90       	pop	r4
     868:	3f 90       	pop	r3
     86a:	2f 90       	pop	r2
     86c:	ff 91       	pop	r31
     86e:	ef 91       	pop	r30
     870:	bf 91       	pop	r27
     872:	af 91       	pop	r26
     874:	9f 91       	pop	r25
     876:	8f 91       	pop	r24
     878:	7f 91       	pop	r23
     87a:	6f 91       	pop	r22
     87c:	5f 91       	pop	r21
     87e:	4f 91       	pop	r20
     880:	1f 90       	pop	r1
     882:	0f 90       	pop	r0
     884:	2f 91       	pop	r18
     886:	2f 77       	andi	r18, 0x7F	; 127
     888:	2f bf       	out	0x3f, r18	; 63
     88a:	3f 91       	pop	r19
     88c:	2f 91       	pop	r18
     88e:	18 95       	reti

00000890 <pwmInit>:
	@des init du pwm 
*/
void pwmInit(void)
{
  //com1b1=1
  TCCR1A=(1<<COM1A1)|(0<<COM1A0)|(1<<COM1B1)|(0<<COM1B0)|(0<<FOC1A)|(0<<FOC1B)|(1<<WGM11)|(0<<WGM10);
     890:	82 ea       	ldi	r24, 0xA2	; 162
     892:	8f bd       	out	0x2f, r24	; 47
  TCCR1B=(0<<ICNC1)|(0<<ICES1)|(1<<WGM13)|(1<<WGM12)|(0<<CS12)|(1<<CS11)|(0<<CS10);
     894:	8a e1       	ldi	r24, 0x1A	; 26
     896:	8e bd       	out	0x2e, r24	; 46
  //overflow interruption on
  TIMSK=(0<<TICIE1)|(0<<OCIE1A)|(0<<OCIE1B)|(1<<TOIE1);
     898:	84 e0       	ldi	r24, 0x04	; 4
     89a:	89 bf       	out	0x39, r24	; 57

  //ajustement de la periode de 5mS
  ICR1=0x2710;
     89c:	80 e1       	ldi	r24, 0x10	; 16
     89e:	97 e2       	ldi	r25, 0x27	; 39
     8a0:	97 bd       	out	0x27, r25	; 39
     8a2:	86 bd       	out	0x26, r24	; 38
  OCR1A=0;
     8a4:	1b bc       	out	0x2b, r1	; 43
     8a6:	1a bc       	out	0x2a, r1	; 42
  OCR1B=0;
     8a8:	19 bc       	out	0x29, r1	; 41
     8aa:	18 bc       	out	0x28, r1	; 40
}
     8ac:	08 95       	ret

000008ae <pwmSetDutyValue>:
	void pwmSetDutyValue(U16 valueD,U16 valueG,U8 portValue)
	@des update les valeurs des variable qui seront passé dans l'interruption 
*/
void pwmSetDutyValue(U16 valueD,U16 valueG,U8 portValue)
{
	pwmOCR1B_value=valueG;
     8ae:	70 93 82 01 	sts	0x0182, r23
     8b2:	60 93 81 01 	sts	0x0181, r22
	pwmOCR1A_value=valueD;
     8b6:	90 93 80 01 	sts	0x0180, r25
     8ba:	80 93 7f 01 	sts	0x017F, r24
	pwmPortDREG.byte=portValue;
     8be:	40 93 eb 03 	sts	0x03EB, r20
}
     8c2:	08 95       	ret

000008c4 <__vector_9>:
	ISR(TIMER1_OVF_vect)
	@des interruption du pwm au 5mS
*/
ISR(TIMER1_OVF_vect,ISR_NAKED)
{
    OS_INT_ENTER();
     8c4:	2f 93       	push	r18
     8c6:	3f 93       	push	r19
     8c8:	2f b7       	in	r18, 0x3f	; 63
     8ca:	20 68       	ori	r18, 0x80	; 128
     8cc:	2f 93       	push	r18
     8ce:	0f 92       	push	r0
     8d0:	1f 92       	push	r1
     8d2:	4f 93       	push	r20
     8d4:	5f 93       	push	r21
     8d6:	6f 93       	push	r22
     8d8:	7f 93       	push	r23
     8da:	8f 93       	push	r24
     8dc:	9f 93       	push	r25
     8de:	af 93       	push	r26
     8e0:	bf 93       	push	r27
     8e2:	ef 93       	push	r30
     8e4:	ff 93       	push	r31
     8e6:	80 91 3b 04 	lds	r24, 0x043B
     8ea:	88 23       	and	r24, r24
     8ec:	91 f4       	brne	.+36     	; 0x912 <__vector_9+0x4e>
     8ee:	2f 92       	push	r2
     8f0:	3f 92       	push	r3
     8f2:	4f 92       	push	r4
     8f4:	5f 92       	push	r5
     8f6:	6f 92       	push	r6
     8f8:	7f 92       	push	r7
     8fa:	8f 92       	push	r8
     8fc:	9f 92       	push	r9
     8fe:	af 92       	push	r10
     900:	bf 92       	push	r11
     902:	cf 92       	push	r12
     904:	df 92       	push	r13
     906:	ef 92       	push	r14
     908:	ff 92       	push	r15
     90a:	0f 93       	push	r16
     90c:	1f 93       	push	r17
     90e:	cf 93       	push	r28
     910:	df 93       	push	r29
     912:	8f 5f       	subi	r24, 0xFF	; 255
     914:	80 93 3b 04 	sts	0x043B, r24
    OCR1A=pwmOCR1A_value;
     918:	80 91 7f 01 	lds	r24, 0x017F
     91c:	90 91 80 01 	lds	r25, 0x0180
     920:	9b bd       	out	0x2b, r25	; 43
     922:	8a bd       	out	0x2a, r24	; 42
	OCR1B=pwmOCR1B_value;
     924:	80 91 81 01 	lds	r24, 0x0181
     928:	90 91 82 01 	lds	r25, 0x0182
     92c:	99 bd       	out	0x29, r25	; 41
     92e:	88 bd       	out	0x28, r24	; 40
	pwmPortDREG.bit.b4=1;
     930:	80 91 eb 03 	lds	r24, 0x03EB
     934:	80 61       	ori	r24, 0x10	; 16
     936:	80 93 eb 03 	sts	0x03EB, r24
	pwmPortDREG.bit.b5=1;
     93a:	80 91 eb 03 	lds	r24, 0x03EB
     93e:	80 62       	ori	r24, 0x20	; 32
     940:	80 93 eb 03 	sts	0x03EB, r24
	PORTD=pwmPortDREG.byte;	
     944:	80 91 eb 03 	lds	r24, 0x03EB
     948:	82 bb       	out	0x12, r24	; 18
	OSSemPost(MoteurUpdateSem);
     94a:	80 91 ef 01 	lds	r24, 0x01EF
     94e:	90 91 f0 01 	lds	r25, 0x01F0
     952:	0e 94 1b 13 	call	0x2636	; 0x2636 <OSSemPost>
	OS_INT_EXIT();
     956:	f8 94       	cli
     958:	0e 94 99 1b 	call	0x3732	; 0x3732 <OSIntExit>
     95c:	80 91 3b 04 	lds	r24, 0x043B
     960:	88 23       	and	r24, r24
     962:	91 f4       	brne	.+36     	; 0x988 <__vector_9+0xc4>
     964:	df 91       	pop	r29
     966:	cf 91       	pop	r28
     968:	1f 91       	pop	r17
     96a:	0f 91       	pop	r16
     96c:	ff 90       	pop	r15
     96e:	ef 90       	pop	r14
     970:	df 90       	pop	r13
     972:	cf 90       	pop	r12
     974:	bf 90       	pop	r11
     976:	af 90       	pop	r10
     978:	9f 90       	pop	r9
     97a:	8f 90       	pop	r8
     97c:	7f 90       	pop	r7
     97e:	6f 90       	pop	r6
     980:	5f 90       	pop	r5
     982:	4f 90       	pop	r4
     984:	3f 90       	pop	r3
     986:	2f 90       	pop	r2
     988:	ff 91       	pop	r31
     98a:	ef 91       	pop	r30
     98c:	bf 91       	pop	r27
     98e:	af 91       	pop	r26
     990:	9f 91       	pop	r25
     992:	8f 91       	pop	r24
     994:	7f 91       	pop	r23
     996:	6f 91       	pop	r22
     998:	5f 91       	pop	r21
     99a:	4f 91       	pop	r20
     99c:	1f 90       	pop	r1
     99e:	0f 90       	pop	r0
     9a0:	2f 91       	pop	r18
     9a2:	2f 77       	andi	r18, 0x7F	; 127
     9a4:	2f bf       	out	0x3f, r18	; 63
     9a6:	3f 91       	pop	r19
     9a8:	2f 91       	pop	r18
     9aa:	18 95       	reti

000009ac <CalculPWM>:
/*
	void CalculPWM(float Vitesse_D, float Angle_D, float Vg, float Vd, float *Duty_G, float *Duty_D)
	@des calcul de l'asservisement 
*/
void CalculPWM(float Vitesse_D, float Angle_D, float Vg, float Vd, float *Duty_G, float *Duty_D)
{
     9ac:	2f 92       	push	r2
     9ae:	3f 92       	push	r3
     9b0:	4f 92       	push	r4
     9b2:	5f 92       	push	r5
     9b4:	6f 92       	push	r6
     9b6:	7f 92       	push	r7
     9b8:	8f 92       	push	r8
     9ba:	9f 92       	push	r9
     9bc:	af 92       	push	r10
     9be:	bf 92       	push	r11
     9c0:	cf 92       	push	r12
     9c2:	df 92       	push	r13
     9c4:	ef 92       	push	r14
     9c6:	ff 92       	push	r15
     9c8:	0f 93       	push	r16
     9ca:	1f 93       	push	r17
     9cc:	df 93       	push	r29
     9ce:	cf 93       	push	r28
     9d0:	cd b7       	in	r28, 0x3d	; 61
     9d2:	de b7       	in	r29, 0x3e	; 62
     9d4:	60 97       	sbiw	r28, 0x10	; 16
     9d6:	0f b6       	in	r0, 0x3f	; 63
     9d8:	f8 94       	cli
     9da:	de bf       	out	0x3e, r29	; 62
     9dc:	0f be       	out	0x3f, r0	; 63
     9de:	cd bf       	out	0x3d, r28	; 61
     9e0:	6f 83       	std	Y+7, r22	; 0x07
     9e2:	78 87       	std	Y+8, r23	; 0x08
     9e4:	89 87       	std	Y+9, r24	; 0x09
     9e6:	9a 87       	std	Y+10, r25	; 0x0a
     9e8:	2b 87       	std	Y+11, r18	; 0x0b
     9ea:	3c 87       	std	Y+12, r19	; 0x0c
     9ec:	4d 87       	std	Y+13, r20	; 0x0d
     9ee:	5e 87       	std	Y+14, r21	; 0x0e
     9f0:	27 01       	movw	r4, r14
     9f2:	38 01       	movw	r6, r16
     9f4:	98 8a       	std	Y+16, r9	; 0x10
     9f6:	8f 86       	std	Y+15, r8	; 0x0f
	static float Ua     = 0.0;
	static int 	 Signe_Ua = 0;
	static int 	 Signe_Ut = 0;


	Vg = (Vg > 1.0) ? 1.0 : ((Vg < -1.0) ? -1.0 : Vg);  /* Regarde les limites (-1.0 à 1.0) */
     9f8:	c8 01       	movw	r24, r16
     9fa:	b7 01       	movw	r22, r14
     9fc:	20 e0       	ldi	r18, 0x00	; 0
     9fe:	30 e0       	ldi	r19, 0x00	; 0
     a00:	40 e8       	ldi	r20, 0x80	; 128
     a02:	5f e3       	ldi	r21, 0x3F	; 63
     a04:	0e 94 9b 27 	call	0x4f36	; 0x4f36 <__gesf2>
     a08:	18 16       	cp	r1, r24
     a0a:	5c f4       	brge	.+22     	; 0xa22 <CalculPWM+0x76>
     a0c:	0f 2e       	mov	r0, r31
     a0e:	f0 e0       	ldi	r31, 0x00	; 0
     a10:	4f 2e       	mov	r4, r31
     a12:	f0 e0       	ldi	r31, 0x00	; 0
     a14:	5f 2e       	mov	r5, r31
     a16:	f0 e8       	ldi	r31, 0x80	; 128
     a18:	6f 2e       	mov	r6, r31
     a1a:	ff e3       	ldi	r31, 0x3F	; 63
     a1c:	7f 2e       	mov	r7, r31
     a1e:	f0 2d       	mov	r31, r0
     a20:	14 c0       	rjmp	.+40     	; 0xa4a <CalculPWM+0x9e>
     a22:	c8 01       	movw	r24, r16
     a24:	b7 01       	movw	r22, r14
     a26:	20 e0       	ldi	r18, 0x00	; 0
     a28:	30 e0       	ldi	r19, 0x00	; 0
     a2a:	40 e8       	ldi	r20, 0x80	; 128
     a2c:	5f eb       	ldi	r21, 0xBF	; 191
     a2e:	0e 94 51 26 	call	0x4ca2	; 0x4ca2 <__cmpsf2>
     a32:	88 23       	and	r24, r24
     a34:	54 f4       	brge	.+20     	; 0xa4a <CalculPWM+0x9e>
     a36:	0f 2e       	mov	r0, r31
     a38:	f0 e0       	ldi	r31, 0x00	; 0
     a3a:	4f 2e       	mov	r4, r31
     a3c:	f0 e0       	ldi	r31, 0x00	; 0
     a3e:	5f 2e       	mov	r5, r31
     a40:	f0 e8       	ldi	r31, 0x80	; 128
     a42:	6f 2e       	mov	r6, r31
     a44:	ff eb       	ldi	r31, 0xBF	; 191
     a46:	7f 2e       	mov	r7, r31
     a48:	f0 2d       	mov	r31, r0
	Vd = (Vd > 1.0) ? 1.0 : ((Vd < -1.0) ? -1.0 : Vd);  /* Regarde les limites (-1.0 à 1.0) */
     a4a:	c6 01       	movw	r24, r12
     a4c:	b5 01       	movw	r22, r10
     a4e:	20 e0       	ldi	r18, 0x00	; 0
     a50:	30 e0       	ldi	r19, 0x00	; 0
     a52:	40 e8       	ldi	r20, 0x80	; 128
     a54:	5f e3       	ldi	r21, 0x3F	; 63
     a56:	0e 94 9b 27 	call	0x4f36	; 0x4f36 <__gesf2>
     a5a:	18 16       	cp	r1, r24
     a5c:	5c f4       	brge	.+22     	; 0xa74 <CalculPWM+0xc8>
     a5e:	0f 2e       	mov	r0, r31
     a60:	f0 e0       	ldi	r31, 0x00	; 0
     a62:	af 2e       	mov	r10, r31
     a64:	f0 e0       	ldi	r31, 0x00	; 0
     a66:	bf 2e       	mov	r11, r31
     a68:	f0 e8       	ldi	r31, 0x80	; 128
     a6a:	cf 2e       	mov	r12, r31
     a6c:	ff e3       	ldi	r31, 0x3F	; 63
     a6e:	df 2e       	mov	r13, r31
     a70:	f0 2d       	mov	r31, r0
     a72:	14 c0       	rjmp	.+40     	; 0xa9c <CalculPWM+0xf0>
     a74:	c6 01       	movw	r24, r12
     a76:	b5 01       	movw	r22, r10
     a78:	20 e0       	ldi	r18, 0x00	; 0
     a7a:	30 e0       	ldi	r19, 0x00	; 0
     a7c:	40 e8       	ldi	r20, 0x80	; 128
     a7e:	5f eb       	ldi	r21, 0xBF	; 191
     a80:	0e 94 51 26 	call	0x4ca2	; 0x4ca2 <__cmpsf2>
     a84:	88 23       	and	r24, r24
     a86:	54 f4       	brge	.+20     	; 0xa9c <CalculPWM+0xf0>
     a88:	0f 2e       	mov	r0, r31
     a8a:	f0 e0       	ldi	r31, 0x00	; 0
     a8c:	af 2e       	mov	r10, r31
     a8e:	f0 e0       	ldi	r31, 0x00	; 0
     a90:	bf 2e       	mov	r11, r31
     a92:	f0 e8       	ldi	r31, 0x80	; 128
     a94:	cf 2e       	mov	r12, r31
     a96:	ff eb       	ldi	r31, 0xBF	; 191
     a98:	df 2e       	mov	r13, r31
     a9a:	f0 2d       	mov	r31, r0
		
	Old_W = W;
     a9c:	e0 90 b7 01 	lds	r14, 0x01B7
     aa0:	f0 90 b8 01 	lds	r15, 0x01B8
     aa4:	00 91 b9 01 	lds	r16, 0x01B9
     aa8:	10 91 ba 01 	lds	r17, 0x01BA
     aac:	e0 92 b3 01 	sts	0x01B3, r14
     ab0:	f0 92 b4 01 	sts	0x01B4, r15
     ab4:	00 93 b5 01 	sts	0x01B5, r16
     ab8:	10 93 b6 01 	sts	0x01B6, r17
	W     = 0.5*(Vmax/RAYON)*(Vd-Vg);
     abc:	c6 01       	movw	r24, r12
     abe:	b5 01       	movw	r22, r10
     ac0:	a3 01       	movw	r20, r6
     ac2:	92 01       	movw	r18, r4
     ac4:	0e 94 ec 25 	call	0x4bd8	; 0x4bd8 <__subsf3>
     ac8:	2a e1       	ldi	r18, 0x1A	; 26
     aca:	32 e6       	ldi	r19, 0x62	; 98
     acc:	46 e8       	ldi	r20, 0x86	; 134
     ace:	50 e4       	ldi	r21, 0x40	; 64
     ad0:	0e 94 9f 27 	call	0x4f3e	; 0x4f3e <__mulsf3>
     ad4:	6b 83       	std	Y+3, r22	; 0x03
     ad6:	7c 83       	std	Y+4, r23	; 0x04
     ad8:	8d 83       	std	Y+5, r24	; 0x05
     ada:	9e 83       	std	Y+6, r25	; 0x06
     adc:	60 93 b7 01 	sts	0x01B7, r22
     ae0:	70 93 b8 01 	sts	0x01B8, r23
     ae4:	80 93 b9 01 	sts	0x01B9, r24
     ae8:	90 93 ba 01 	sts	0x01BA, r25
	Vt    = 0.5*(Vd+Vg);
     aec:	c6 01       	movw	r24, r12
     aee:	b5 01       	movw	r22, r10
     af0:	a3 01       	movw	r20, r6
     af2:	92 01       	movw	r18, r4
     af4:	0e 94 ed 25 	call	0x4bda	; 0x4bda <__addsf3>
     af8:	20 e0       	ldi	r18, 0x00	; 0
     afa:	30 e0       	ldi	r19, 0x00	; 0
     afc:	40 e0       	ldi	r20, 0x00	; 0
     afe:	5f e3       	ldi	r21, 0x3F	; 63
     b00:	0e 94 9f 27 	call	0x4f3e	; 0x4f3e <__mulsf3>
     b04:	3b 01       	movw	r6, r22
     b06:	4c 01       	movw	r8, r24
     b08:	60 93 af 01 	sts	0x01AF, r22
     b0c:	70 93 b0 01 	sts	0x01B0, r23
     b10:	80 93 b1 01 	sts	0x01B1, r24
     b14:	90 93 b2 01 	sts	0x01B2, r25

	Angle =  Angle + (0.5)*TS*(W+Old_W);
     b18:	6b 81       	ldd	r22, Y+3	; 0x03
     b1a:	7c 81       	ldd	r23, Y+4	; 0x04
     b1c:	8d 81       	ldd	r24, Y+5	; 0x05
     b1e:	9e 81       	ldd	r25, Y+6	; 0x06
     b20:	a8 01       	movw	r20, r16
     b22:	97 01       	movw	r18, r14
     b24:	0e 94 ed 25 	call	0x4bda	; 0x4bda <__addsf3>
     b28:	2a e0       	ldi	r18, 0x0A	; 10
     b2a:	37 ed       	ldi	r19, 0xD7	; 215
     b2c:	43 e2       	ldi	r20, 0x23	; 35
     b2e:	5b e3       	ldi	r21, 0x3B	; 59
     b30:	0e 94 9f 27 	call	0x4f3e	; 0x4f3e <__mulsf3>
     b34:	20 91 bf 01 	lds	r18, 0x01BF
     b38:	30 91 c0 01 	lds	r19, 0x01C0
     b3c:	40 91 c1 01 	lds	r20, 0x01C1
     b40:	50 91 c2 01 	lds	r21, 0x01C2
     b44:	0e 94 ed 25 	call	0x4bda	; 0x4bda <__addsf3>
     b48:	7b 01       	movw	r14, r22
     b4a:	8c 01       	movw	r16, r24
	Angle = (Angle > 2.0*Pi) ? Angle - 2*Pi : ((Angle < 0.0) ? Angle + 2*Pi : Angle); /* Angle entre 0 et 2 pi */
     b4c:	2b ed       	ldi	r18, 0xDB	; 219
     b4e:	3f e0       	ldi	r19, 0x0F	; 15
     b50:	49 ec       	ldi	r20, 0xC9	; 201
     b52:	50 e4       	ldi	r21, 0x40	; 64
     b54:	0e 94 9b 27 	call	0x4f36	; 0x4f36 <__gesf2>
     b58:	18 16       	cp	r1, r24
     b5a:	4c f4       	brge	.+18     	; 0xb6e <CalculPWM+0x1c2>
     b5c:	c8 01       	movw	r24, r16
     b5e:	b7 01       	movw	r22, r14
     b60:	2b ed       	ldi	r18, 0xDB	; 219
     b62:	3f e0       	ldi	r19, 0x0F	; 15
     b64:	49 ec       	ldi	r20, 0xC9	; 201
     b66:	50 e4       	ldi	r21, 0x40	; 64
     b68:	0e 94 ec 25 	call	0x4bd8	; 0x4bd8 <__subsf3>
     b6c:	12 c0       	rjmp	.+36     	; 0xb92 <CalculPWM+0x1e6>
     b6e:	c8 01       	movw	r24, r16
     b70:	b7 01       	movw	r22, r14
     b72:	20 e0       	ldi	r18, 0x00	; 0
     b74:	30 e0       	ldi	r19, 0x00	; 0
     b76:	40 e0       	ldi	r20, 0x00	; 0
     b78:	50 e0       	ldi	r21, 0x00	; 0
     b7a:	0e 94 51 26 	call	0x4ca2	; 0x4ca2 <__cmpsf2>
     b7e:	88 23       	and	r24, r24
     b80:	54 f4       	brge	.+20     	; 0xb96 <CalculPWM+0x1ea>
     b82:	c8 01       	movw	r24, r16
     b84:	b7 01       	movw	r22, r14
     b86:	2b ed       	ldi	r18, 0xDB	; 219
     b88:	3f e0       	ldi	r19, 0x0F	; 15
     b8a:	49 ec       	ldi	r20, 0xC9	; 201
     b8c:	50 e4       	ldi	r21, 0x40	; 64
     b8e:	0e 94 ed 25 	call	0x4bda	; 0x4bda <__addsf3>
     b92:	7b 01       	movw	r14, r22
     b94:	8c 01       	movw	r16, r24
     b96:	e0 92 bf 01 	sts	0x01BF, r14
     b9a:	f0 92 c0 01 	sts	0x01C0, r15
     b9e:	00 93 c1 01 	sts	0x01C1, r16
     ba2:	10 93 c2 01 	sts	0x01C2, r17
	ErreurAngle = ((Angle_D >= Pi + Angle) ? Angle_D - 2*Pi : ((Angle_D <= -Pi + Angle) ? Angle_D + 2*Pi : Angle_D))-Angle;
     ba6:	c8 01       	movw	r24, r16
     ba8:	b7 01       	movw	r22, r14
     baa:	2b ed       	ldi	r18, 0xDB	; 219
     bac:	3f e0       	ldi	r19, 0x0F	; 15
     bae:	49 e4       	ldi	r20, 0x49	; 73
     bb0:	50 e4       	ldi	r21, 0x40	; 64
     bb2:	0e 94 ed 25 	call	0x4bda	; 0x4bda <__addsf3>
     bb6:	9b 01       	movw	r18, r22
     bb8:	ac 01       	movw	r20, r24
     bba:	6b 85       	ldd	r22, Y+11	; 0x0b
     bbc:	7c 85       	ldd	r23, Y+12	; 0x0c
     bbe:	8d 85       	ldd	r24, Y+13	; 0x0d
     bc0:	9e 85       	ldd	r25, Y+14	; 0x0e
     bc2:	0e 94 9b 27 	call	0x4f36	; 0x4f36 <__gesf2>
     bc6:	88 23       	and	r24, r24
     bc8:	5c f0       	brlt	.+22     	; 0xbe0 <CalculPWM+0x234>
     bca:	6b 85       	ldd	r22, Y+11	; 0x0b
     bcc:	7c 85       	ldd	r23, Y+12	; 0x0c
     bce:	8d 85       	ldd	r24, Y+13	; 0x0d
     bd0:	9e 85       	ldd	r25, Y+14	; 0x0e
     bd2:	2b ed       	ldi	r18, 0xDB	; 219
     bd4:	3f e0       	ldi	r19, 0x0F	; 15
     bd6:	49 ec       	ldi	r20, 0xC9	; 201
     bd8:	50 e4       	ldi	r21, 0x40	; 64
     bda:	0e 94 ec 25 	call	0x4bd8	; 0x4bd8 <__subsf3>
     bde:	1c c0       	rjmp	.+56     	; 0xc18 <CalculPWM+0x26c>
     be0:	c8 01       	movw	r24, r16
     be2:	b7 01       	movw	r22, r14
     be4:	2b ed       	ldi	r18, 0xDB	; 219
     be6:	3f e0       	ldi	r19, 0x0F	; 15
     be8:	49 e4       	ldi	r20, 0x49	; 73
     bea:	50 e4       	ldi	r21, 0x40	; 64
     bec:	0e 94 ec 25 	call	0x4bd8	; 0x4bd8 <__subsf3>
     bf0:	9b 01       	movw	r18, r22
     bf2:	ac 01       	movw	r20, r24
     bf4:	6b 85       	ldd	r22, Y+11	; 0x0b
     bf6:	7c 85       	ldd	r23, Y+12	; 0x0c
     bf8:	8d 85       	ldd	r24, Y+13	; 0x0d
     bfa:	9e 85       	ldd	r25, Y+14	; 0x0e
     bfc:	0e 94 51 26 	call	0x4ca2	; 0x4ca2 <__cmpsf2>
     c00:	18 16       	cp	r1, r24
     c02:	74 f0       	brlt	.+28     	; 0xc20 <CalculPWM+0x274>
     c04:	6b 85       	ldd	r22, Y+11	; 0x0b
     c06:	7c 85       	ldd	r23, Y+12	; 0x0c
     c08:	8d 85       	ldd	r24, Y+13	; 0x0d
     c0a:	9e 85       	ldd	r25, Y+14	; 0x0e
     c0c:	2b ed       	ldi	r18, 0xDB	; 219
     c0e:	3f e0       	ldi	r19, 0x0F	; 15
     c10:	49 ec       	ldi	r20, 0xC9	; 201
     c12:	50 e4       	ldi	r21, 0x40	; 64
     c14:	0e 94 ed 25 	call	0x4bda	; 0x4bda <__addsf3>
     c18:	6b 87       	std	Y+11, r22	; 0x0b
     c1a:	7c 87       	std	Y+12, r23	; 0x0c
     c1c:	8d 87       	std	Y+13, r24	; 0x0d
     c1e:	9e 87       	std	Y+14, r25	; 0x0e
     c20:	6b 85       	ldd	r22, Y+11	; 0x0b
     c22:	7c 85       	ldd	r23, Y+12	; 0x0c
     c24:	8d 85       	ldd	r24, Y+13	; 0x0d
     c26:	9e 85       	ldd	r25, Y+14	; 0x0e
     c28:	a8 01       	movw	r20, r16
     c2a:	97 01       	movw	r18, r14
     c2c:	0e 94 ec 25 	call	0x4bd8	; 0x4bd8 <__subsf3>
     c30:	5b 01       	movw	r10, r22
     c32:	6c 01       	movw	r12, r24
     c34:	60 93 bb 01 	sts	0x01BB, r22
     c38:	70 93 bc 01 	sts	0x01BC, r23
     c3c:	80 93 bd 01 	sts	0x01BD, r24
     c40:	90 93 be 01 	sts	0x01BE, r25

	Ut = -H11*Vt + H12*Vitesse_D;
     c44:	c4 01       	movw	r24, r8
     c46:	b3 01       	movw	r22, r6
     c48:	28 ee       	ldi	r18, 0xE8	; 232
     c4a:	31 eb       	ldi	r19, 0xB1	; 177
     c4c:	49 e7       	ldi	r20, 0x79	; 121
     c4e:	50 ec       	ldi	r21, 0xC0	; 192
     c50:	0e 94 9f 27 	call	0x4f3e	; 0x4f3e <__mulsf3>
     c54:	7b 01       	movw	r14, r22
     c56:	8c 01       	movw	r16, r24
     c58:	6f 81       	ldd	r22, Y+7	; 0x07
     c5a:	78 85       	ldd	r23, Y+8	; 0x08
     c5c:	89 85       	ldd	r24, Y+9	; 0x09
     c5e:	9a 85       	ldd	r25, Y+10	; 0x0a
     c60:	24 ef       	ldi	r18, 0xF4	; 244
     c62:	38 ed       	ldi	r19, 0xD8	; 216
     c64:	4c e9       	ldi	r20, 0x9C	; 156
     c66:	50 e4       	ldi	r21, 0x40	; 64
     c68:	0e 94 9f 27 	call	0x4f3e	; 0x4f3e <__mulsf3>
     c6c:	9b 01       	movw	r18, r22
     c6e:	ac 01       	movw	r20, r24
     c70:	c8 01       	movw	r24, r16
     c72:	b7 01       	movw	r22, r14
     c74:	0e 94 ed 25 	call	0x4bda	; 0x4bda <__addsf3>
     c78:	3b 01       	movw	r6, r22
     c7a:	4c 01       	movw	r8, r24
	Ua = H21*ErreurAngle - H22*W;
     c7c:	c6 01       	movw	r24, r12
     c7e:	b5 01       	movw	r22, r10
     c80:	21 e2       	ldi	r18, 0x21	; 33
     c82:	37 ea       	ldi	r19, 0xA7	; 167
     c84:	44 e9       	ldi	r20, 0x94	; 148
     c86:	5f e3       	ldi	r21, 0x3F	; 63
     c88:	0e 94 9f 27 	call	0x4f3e	; 0x4f3e <__mulsf3>
     c8c:	7b 01       	movw	r14, r22
     c8e:	8c 01       	movw	r16, r24
     c90:	6b 81       	ldd	r22, Y+3	; 0x03
     c92:	7c 81       	ldd	r23, Y+4	; 0x04
     c94:	8d 81       	ldd	r24, Y+5	; 0x05
     c96:	9e 81       	ldd	r25, Y+6	; 0x06
     c98:	28 e1       	ldi	r18, 0x18	; 24
     c9a:	37 ea       	ldi	r19, 0xA7	; 167
     c9c:	44 e1       	ldi	r20, 0x14	; 20
     c9e:	5f eb       	ldi	r21, 0xBF	; 191
     ca0:	0e 94 9f 27 	call	0x4f3e	; 0x4f3e <__mulsf3>
     ca4:	9b 01       	movw	r18, r22
     ca6:	ac 01       	movw	r20, r24
     ca8:	c8 01       	movw	r24, r16
     caa:	b7 01       	movw	r22, r14
     cac:	0e 94 ed 25 	call	0x4bda	; 0x4bda <__addsf3>
     cb0:	5b 01       	movw	r10, r22
     cb2:	6c 01       	movw	r12, r24
			
	Signe_Ua = (Ua >= 0.0) ? 1 : -1;
     cb4:	20 e0       	ldi	r18, 0x00	; 0
     cb6:	30 e0       	ldi	r19, 0x00	; 0
     cb8:	40 e0       	ldi	r20, 0x00	; 0
     cba:	50 e0       	ldi	r21, 0x00	; 0
     cbc:	0e 94 9b 27 	call	0x4f36	; 0x4f36 <__gesf2>
     cc0:	87 ff       	sbrs	r24, 7
     cc2:	03 c0       	rjmp	.+6      	; 0xcca <CalculPWM+0x31e>
     cc4:	0f ef       	ldi	r16, 0xFF	; 255
     cc6:	1f ef       	ldi	r17, 0xFF	; 255
     cc8:	02 c0       	rjmp	.+4      	; 0xcce <CalculPWM+0x322>
     cca:	01 e0       	ldi	r16, 0x01	; 1
     ccc:	10 e0       	ldi	r17, 0x00	; 0
     cce:	10 93 a6 01 	sts	0x01A6, r17
     cd2:	00 93 a5 01 	sts	0x01A5, r16
	Signe_Ut = (Ut >= 0.0) ? 1 : -1;
     cd6:	c4 01       	movw	r24, r8
     cd8:	b3 01       	movw	r22, r6
     cda:	20 e0       	ldi	r18, 0x00	; 0
     cdc:	30 e0       	ldi	r19, 0x00	; 0
     cde:	40 e0       	ldi	r20, 0x00	; 0
     ce0:	50 e0       	ldi	r21, 0x00	; 0
     ce2:	0e 94 9b 27 	call	0x4f36	; 0x4f36 <__gesf2>
     ce6:	87 ff       	sbrs	r24, 7
     ce8:	05 c0       	rjmp	.+10     	; 0xcf4 <CalculPWM+0x348>
     cea:	2f ef       	ldi	r18, 0xFF	; 255
     cec:	3f ef       	ldi	r19, 0xFF	; 255
     cee:	3a 83       	std	Y+2, r19	; 0x02
     cf0:	29 83       	std	Y+1, r18	; 0x01
     cf2:	04 c0       	rjmp	.+8      	; 0xcfc <CalculPWM+0x350>
     cf4:	81 e0       	ldi	r24, 0x01	; 1
     cf6:	90 e0       	ldi	r25, 0x00	; 0
     cf8:	9a 83       	std	Y+2, r25	; 0x02
     cfa:	89 83       	std	Y+1, r24	; 0x01
     cfc:	a9 81       	ldd	r26, Y+1	; 0x01
     cfe:	ba 81       	ldd	r27, Y+2	; 0x02
     d00:	b0 93 a4 01 	sts	0x01A4, r27
     d04:	a0 93 a3 01 	sts	0x01A3, r26
	
	Ua = (Signe_Ua*Ua > 1.0) ? Signe_Ua*1.0 : ((Signe_Ua*Ua <= 0.05) ? 0.0 : Ua);
     d08:	b8 01       	movw	r22, r16
     d0a:	88 27       	eor	r24, r24
     d0c:	77 fd       	sbrc	r23, 7
     d0e:	80 95       	com	r24
     d10:	98 2f       	mov	r25, r24
     d12:	0e 94 eb 26 	call	0x4dd6	; 0x4dd6 <__floatsisf>
     d16:	1b 01       	movw	r2, r22
     d18:	2c 01       	movw	r4, r24
     d1a:	a6 01       	movw	r20, r12
     d1c:	95 01       	movw	r18, r10
     d1e:	0e 94 9f 27 	call	0x4f3e	; 0x4f3e <__mulsf3>
     d22:	7b 01       	movw	r14, r22
     d24:	8c 01       	movw	r16, r24
     d26:	20 e0       	ldi	r18, 0x00	; 0
     d28:	30 e0       	ldi	r19, 0x00	; 0
     d2a:	40 e8       	ldi	r20, 0x80	; 128
     d2c:	5f e3       	ldi	r21, 0x3F	; 63
     d2e:	0e 94 9b 27 	call	0x4f36	; 0x4f36 <__gesf2>
     d32:	18 16       	cp	r1, r24
     d34:	1c f4       	brge	.+6      	; 0xd3c <CalculPWM+0x390>
     d36:	62 01       	movw	r12, r4
     d38:	51 01       	movw	r10, r2
     d3a:	14 c0       	rjmp	.+40     	; 0xd64 <CalculPWM+0x3b8>
     d3c:	c8 01       	movw	r24, r16
     d3e:	b7 01       	movw	r22, r14
     d40:	2d ec       	ldi	r18, 0xCD	; 205
     d42:	3c ec       	ldi	r19, 0xCC	; 204
     d44:	4c e4       	ldi	r20, 0x4C	; 76
     d46:	5d e3       	ldi	r21, 0x3D	; 61
     d48:	0e 94 51 26 	call	0x4ca2	; 0x4ca2 <__cmpsf2>
     d4c:	18 16       	cp	r1, r24
     d4e:	54 f0       	brlt	.+20     	; 0xd64 <CalculPWM+0x3b8>
     d50:	0f 2e       	mov	r0, r31
     d52:	f0 e0       	ldi	r31, 0x00	; 0
     d54:	af 2e       	mov	r10, r31
     d56:	f0 e0       	ldi	r31, 0x00	; 0
     d58:	bf 2e       	mov	r11, r31
     d5a:	f0 e0       	ldi	r31, 0x00	; 0
     d5c:	cf 2e       	mov	r12, r31
     d5e:	f0 e0       	ldi	r31, 0x00	; 0
     d60:	df 2e       	mov	r13, r31
     d62:	f0 2d       	mov	r31, r0
     d64:	a0 92 a7 01 	sts	0x01A7, r10
     d68:	b0 92 a8 01 	sts	0x01A8, r11
     d6c:	c0 92 a9 01 	sts	0x01A9, r12
     d70:	d0 92 aa 01 	sts	0x01AA, r13
	Ut = (Signe_Ut*Ut > 1.0) ? Signe_Ut*1.0 : Ut;
     d74:	e9 81       	ldd	r30, Y+1	; 0x01
     d76:	fa 81       	ldd	r31, Y+2	; 0x02
     d78:	bf 01       	movw	r22, r30
     d7a:	88 27       	eor	r24, r24
     d7c:	77 fd       	sbrc	r23, 7
     d7e:	80 95       	com	r24
     d80:	98 2f       	mov	r25, r24
     d82:	0e 94 eb 26 	call	0x4dd6	; 0x4dd6 <__floatsisf>
     d86:	7b 01       	movw	r14, r22
     d88:	8c 01       	movw	r16, r24
     d8a:	a4 01       	movw	r20, r8
     d8c:	93 01       	movw	r18, r6
     d8e:	0e 94 9f 27 	call	0x4f3e	; 0x4f3e <__mulsf3>
     d92:	20 e0       	ldi	r18, 0x00	; 0
     d94:	30 e0       	ldi	r19, 0x00	; 0
     d96:	40 e8       	ldi	r20, 0x80	; 128
     d98:	5f e3       	ldi	r21, 0x3F	; 63
     d9a:	0e 94 9b 27 	call	0x4f36	; 0x4f36 <__gesf2>
     d9e:	18 16       	cp	r1, r24
     da0:	14 f4       	brge	.+4      	; 0xda6 <CalculPWM+0x3fa>
     da2:	37 01       	movw	r6, r14
     da4:	48 01       	movw	r8, r16
	Ut = ((Signe_Ut*Ut) > (1.0 - Signe_Ua*Ua)) ? Signe_Ut*(1.0 - Signe_Ua*Ua) : Ut;
     da6:	c2 01       	movw	r24, r4
     da8:	b1 01       	movw	r22, r2
     daa:	a6 01       	movw	r20, r12
     dac:	95 01       	movw	r18, r10
     dae:	0e 94 9f 27 	call	0x4f3e	; 0x4f3e <__mulsf3>
     db2:	9b 01       	movw	r18, r22
     db4:	ac 01       	movw	r20, r24
     db6:	60 e0       	ldi	r22, 0x00	; 0
     db8:	70 e0       	ldi	r23, 0x00	; 0
     dba:	80 e8       	ldi	r24, 0x80	; 128
     dbc:	9f e3       	ldi	r25, 0x3F	; 63
     dbe:	0e 94 ec 25 	call	0x4bd8	; 0x4bd8 <__subsf3>
     dc2:	1b 01       	movw	r2, r22
     dc4:	2c 01       	movw	r4, r24
     dc6:	c8 01       	movw	r24, r16
     dc8:	b7 01       	movw	r22, r14
     dca:	a4 01       	movw	r20, r8
     dcc:	93 01       	movw	r18, r6
     dce:	0e 94 9f 27 	call	0x4f3e	; 0x4f3e <__mulsf3>
     dd2:	a2 01       	movw	r20, r4
     dd4:	91 01       	movw	r18, r2
     dd6:	0e 94 9b 27 	call	0x4f36	; 0x4f36 <__gesf2>
     dda:	18 16       	cp	r1, r24
     ddc:	44 f4       	brge	.+16     	; 0xdee <CalculPWM+0x442>
     dde:	c8 01       	movw	r24, r16
     de0:	b7 01       	movw	r22, r14
     de2:	a2 01       	movw	r20, r4
     de4:	91 01       	movw	r18, r2
     de6:	0e 94 9f 27 	call	0x4f3e	; 0x4f3e <__mulsf3>
     dea:	3b 01       	movw	r6, r22
     dec:	4c 01       	movw	r8, r24
     dee:	60 92 ab 01 	sts	0x01AB, r6
     df2:	70 92 ac 01 	sts	0x01AC, r7
     df6:	80 92 ad 01 	sts	0x01AD, r8
     dfa:	90 92 ae 01 	sts	0x01AE, r9


	*Duty_D = (Ut+Ua);
     dfe:	c4 01       	movw	r24, r8
     e00:	b3 01       	movw	r22, r6
     e02:	a6 01       	movw	r20, r12
     e04:	95 01       	movw	r18, r10
     e06:	0e 94 ed 25 	call	0x4bda	; 0x4bda <__addsf3>
     e0a:	ad a1       	ldd	r26, Y+37	; 0x25
     e0c:	be a1       	ldd	r27, Y+38	; 0x26
     e0e:	6d 93       	st	X+, r22
     e10:	7d 93       	st	X+, r23
     e12:	8d 93       	st	X+, r24
     e14:	9c 93       	st	X, r25
     e16:	13 97       	sbiw	r26, 0x03	; 3
	*Duty_G = (Ut-Ua);
     e18:	c4 01       	movw	r24, r8
     e1a:	b3 01       	movw	r22, r6
     e1c:	a6 01       	movw	r20, r12
     e1e:	95 01       	movw	r18, r10
     e20:	0e 94 ec 25 	call	0x4bd8	; 0x4bd8 <__subsf3>
     e24:	ef 85       	ldd	r30, Y+15	; 0x0f
     e26:	f8 89       	ldd	r31, Y+16	; 0x10
     e28:	60 83       	st	Z, r22
     e2a:	71 83       	std	Z+1, r23	; 0x01
     e2c:	82 83       	std	Z+2, r24	; 0x02
     e2e:	93 83       	std	Z+3, r25	; 0x03

	*Duty_D = (*Duty_D > 0.99) ? 0.99 : ((*Duty_D < -0.99) ? -0.99 : *Duty_D);
     e30:	ad a1       	ldd	r26, Y+37	; 0x25
     e32:	be a1       	ldd	r27, Y+38	; 0x26
     e34:	ed 90       	ld	r14, X+
     e36:	fd 90       	ld	r15, X+
     e38:	0d 91       	ld	r16, X+
     e3a:	1c 91       	ld	r17, X
     e3c:	c8 01       	movw	r24, r16
     e3e:	b7 01       	movw	r22, r14
     e40:	24 ea       	ldi	r18, 0xA4	; 164
     e42:	30 e7       	ldi	r19, 0x70	; 112
     e44:	4d e7       	ldi	r20, 0x7D	; 125
     e46:	5f e3       	ldi	r21, 0x3F	; 63
     e48:	0e 94 9b 27 	call	0x4f36	; 0x4f36 <__gesf2>
     e4c:	18 16       	cp	r1, r24
     e4e:	5c f4       	brge	.+22     	; 0xe66 <CalculPWM+0x4ba>
     e50:	0f 2e       	mov	r0, r31
     e52:	f4 ea       	ldi	r31, 0xA4	; 164
     e54:	ef 2e       	mov	r14, r31
     e56:	f0 e7       	ldi	r31, 0x70	; 112
     e58:	ff 2e       	mov	r15, r31
     e5a:	fd e7       	ldi	r31, 0x7D	; 125
     e5c:	0f 2f       	mov	r16, r31
     e5e:	ff e3       	ldi	r31, 0x3F	; 63
     e60:	1f 2f       	mov	r17, r31
     e62:	f0 2d       	mov	r31, r0
     e64:	14 c0       	rjmp	.+40     	; 0xe8e <CalculPWM+0x4e2>
     e66:	c8 01       	movw	r24, r16
     e68:	b7 01       	movw	r22, r14
     e6a:	24 ea       	ldi	r18, 0xA4	; 164
     e6c:	30 e7       	ldi	r19, 0x70	; 112
     e6e:	4d e7       	ldi	r20, 0x7D	; 125
     e70:	5f eb       	ldi	r21, 0xBF	; 191
     e72:	0e 94 51 26 	call	0x4ca2	; 0x4ca2 <__cmpsf2>
     e76:	88 23       	and	r24, r24
     e78:	54 f4       	brge	.+20     	; 0xe8e <CalculPWM+0x4e2>
     e7a:	0f 2e       	mov	r0, r31
     e7c:	f4 ea       	ldi	r31, 0xA4	; 164
     e7e:	ef 2e       	mov	r14, r31
     e80:	f0 e7       	ldi	r31, 0x70	; 112
     e82:	ff 2e       	mov	r15, r31
     e84:	fd e7       	ldi	r31, 0x7D	; 125
     e86:	0f 2f       	mov	r16, r31
     e88:	ff eb       	ldi	r31, 0xBF	; 191
     e8a:	1f 2f       	mov	r17, r31
     e8c:	f0 2d       	mov	r31, r0
     e8e:	ed a1       	ldd	r30, Y+37	; 0x25
     e90:	fe a1       	ldd	r31, Y+38	; 0x26
     e92:	e0 82       	st	Z, r14
     e94:	f1 82       	std	Z+1, r15	; 0x01
     e96:	02 83       	std	Z+2, r16	; 0x02
     e98:	13 83       	std	Z+3, r17	; 0x03
	*Duty_G = (*Duty_G > 0.99) ? 0.99 : ((*Duty_G < -0.99) ? -0.99 : *Duty_G);	
     e9a:	af 85       	ldd	r26, Y+15	; 0x0f
     e9c:	b8 89       	ldd	r27, Y+16	; 0x10
     e9e:	ed 90       	ld	r14, X+
     ea0:	fd 90       	ld	r15, X+
     ea2:	0d 91       	ld	r16, X+
     ea4:	1c 91       	ld	r17, X
     ea6:	c8 01       	movw	r24, r16
     ea8:	b7 01       	movw	r22, r14
     eaa:	24 ea       	ldi	r18, 0xA4	; 164
     eac:	30 e7       	ldi	r19, 0x70	; 112
     eae:	4d e7       	ldi	r20, 0x7D	; 125
     eb0:	5f e3       	ldi	r21, 0x3F	; 63
     eb2:	0e 94 9b 27 	call	0x4f36	; 0x4f36 <__gesf2>
     eb6:	18 16       	cp	r1, r24
     eb8:	5c f4       	brge	.+22     	; 0xed0 <CalculPWM+0x524>
     eba:	0f 2e       	mov	r0, r31
     ebc:	f4 ea       	ldi	r31, 0xA4	; 164
     ebe:	ef 2e       	mov	r14, r31
     ec0:	f0 e7       	ldi	r31, 0x70	; 112
     ec2:	ff 2e       	mov	r15, r31
     ec4:	fd e7       	ldi	r31, 0x7D	; 125
     ec6:	0f 2f       	mov	r16, r31
     ec8:	ff e3       	ldi	r31, 0x3F	; 63
     eca:	1f 2f       	mov	r17, r31
     ecc:	f0 2d       	mov	r31, r0
     ece:	14 c0       	rjmp	.+40     	; 0xef8 <CalculPWM+0x54c>
     ed0:	c8 01       	movw	r24, r16
     ed2:	b7 01       	movw	r22, r14
     ed4:	24 ea       	ldi	r18, 0xA4	; 164
     ed6:	30 e7       	ldi	r19, 0x70	; 112
     ed8:	4d e7       	ldi	r20, 0x7D	; 125
     eda:	5f eb       	ldi	r21, 0xBF	; 191
     edc:	0e 94 51 26 	call	0x4ca2	; 0x4ca2 <__cmpsf2>
     ee0:	88 23       	and	r24, r24
     ee2:	54 f4       	brge	.+20     	; 0xef8 <CalculPWM+0x54c>
     ee4:	0f 2e       	mov	r0, r31
     ee6:	f4 ea       	ldi	r31, 0xA4	; 164
     ee8:	ef 2e       	mov	r14, r31
     eea:	f0 e7       	ldi	r31, 0x70	; 112
     eec:	ff 2e       	mov	r15, r31
     eee:	fd e7       	ldi	r31, 0x7D	; 125
     ef0:	0f 2f       	mov	r16, r31
     ef2:	ff eb       	ldi	r31, 0xBF	; 191
     ef4:	1f 2f       	mov	r17, r31
     ef6:	f0 2d       	mov	r31, r0
     ef8:	ef 85       	ldd	r30, Y+15	; 0x0f
     efa:	f8 89       	ldd	r31, Y+16	; 0x10
     efc:	e0 82       	st	Z, r14
     efe:	f1 82       	std	Z+1, r15	; 0x01
     f00:	02 83       	std	Z+2, r16	; 0x02
     f02:	13 83       	std	Z+3, r17	; 0x03
}
     f04:	60 96       	adiw	r28, 0x10	; 16
     f06:	0f b6       	in	r0, 0x3f	; 63
     f08:	f8 94       	cli
     f0a:	de bf       	out	0x3e, r29	; 62
     f0c:	0f be       	out	0x3f, r0	; 63
     f0e:	cd bf       	out	0x3d, r28	; 61
     f10:	cf 91       	pop	r28
     f12:	df 91       	pop	r29
     f14:	1f 91       	pop	r17
     f16:	0f 91       	pop	r16
     f18:	ff 90       	pop	r15
     f1a:	ef 90       	pop	r14
     f1c:	df 90       	pop	r13
     f1e:	cf 90       	pop	r12
     f20:	bf 90       	pop	r11
     f22:	af 90       	pop	r10
     f24:	9f 90       	pop	r9
     f26:	8f 90       	pop	r8
     f28:	7f 90       	pop	r7
     f2a:	6f 90       	pop	r6
     f2c:	5f 90       	pop	r5
     f2e:	4f 90       	pop	r4
     f30:	3f 90       	pop	r3
     f32:	2f 90       	pop	r2
     f34:	08 95       	ret

00000f36 <moteurControl>:
/*
	U8 moteurControl(U8 vitesse,U8 angle,U8 mode)
	@des fn qui est appeler par la fn de controle update les valeurs recues
*/
U8 moteurControl(U8 vitesse,U8 angle)
{	
     f36:	0f 93       	push	r16
     f38:	1f 93       	push	r17
     f3a:	08 2f       	mov	r16, r24
     f3c:	16 2f       	mov	r17, r22
	if(vitesse>VITESSEMAX || angle>ANGLEMAX)	//verifies if received value is not within accepted range
     f3e:	89 3c       	cpi	r24, 0xC9	; 201
     f40:	08 f0       	brcs	.+2      	; 0xf44 <moteurControl+0xe>
     f42:	48 c0       	rjmp	.+144    	; 0xfd4 <moteurControl+0x9e>
     f44:	65 3b       	cpi	r22, 0xB5	; 181
     f46:	08 f0       	brcs	.+2      	; 0xf4a <moteurControl+0x14>
     f48:	45 c0       	rjmp	.+138    	; 0xfd4 <moteurControl+0x9e>
	{
		return 1;
	}
	if(vitesse!=lastVitesse || angle!=lastAngle)
     f4a:	80 91 84 01 	lds	r24, 0x0184
     f4e:	08 17       	cp	r16, r24
     f50:	29 f4       	brne	.+10     	; 0xf5c <moteurControl+0x26>
     f52:	80 91 85 01 	lds	r24, 0x0185
     f56:	68 17       	cp	r22, r24
     f58:	c9 f4       	brne	.+50     	; 0xf8c <moteurControl+0x56>
     f5a:	3a c0       	rjmp	.+116    	; 0xfd0 <moteurControl+0x9a>
	{ 
		if(vitesse!=lastVitesse)
		{
			mVitesse_D=(float)(vitesse-100)/100;
     f5c:	60 2f       	mov	r22, r16
     f5e:	70 e0       	ldi	r23, 0x00	; 0
     f60:	64 56       	subi	r22, 0x64	; 100
     f62:	70 40       	sbci	r23, 0x00	; 0
     f64:	88 27       	eor	r24, r24
     f66:	77 fd       	sbrc	r23, 7
     f68:	80 95       	com	r24
     f6a:	98 2f       	mov	r25, r24
     f6c:	0e 94 eb 26 	call	0x4dd6	; 0x4dd6 <__floatsisf>
     f70:	20 e0       	ldi	r18, 0x00	; 0
     f72:	30 e0       	ldi	r19, 0x00	; 0
     f74:	48 ec       	ldi	r20, 0xC8	; 200
     f76:	52 e4       	ldi	r21, 0x42	; 66
     f78:	0e 94 55 26 	call	0x4caa	; 0x4caa <__divsf3>
     f7c:	60 93 8b 01 	sts	0x018B, r22
     f80:	70 93 8c 01 	sts	0x018C, r23
     f84:	80 93 8d 01 	sts	0x018D, r24
     f88:	90 93 8e 01 	sts	0x018E, r25
			
		}

		if(angle!=lastAngle)
     f8c:	80 91 85 01 	lds	r24, 0x0185
     f90:	18 17       	cp	r17, r24
     f92:	d1 f0       	breq	.+52     	; 0xfc8 <moteurControl+0x92>
		{
			mAngle_D=((float) angle)*Pi/90.0;;
     f94:	61 2f       	mov	r22, r17
     f96:	70 e0       	ldi	r23, 0x00	; 0
     f98:	80 e0       	ldi	r24, 0x00	; 0
     f9a:	90 e0       	ldi	r25, 0x00	; 0
     f9c:	0e 94 e9 26 	call	0x4dd2	; 0x4dd2 <__floatunsisf>
     fa0:	2b ed       	ldi	r18, 0xDB	; 219
     fa2:	3f e0       	ldi	r19, 0x0F	; 15
     fa4:	49 e4       	ldi	r20, 0x49	; 73
     fa6:	50 e4       	ldi	r21, 0x40	; 64
     fa8:	0e 94 9f 27 	call	0x4f3e	; 0x4f3e <__mulsf3>
     fac:	20 e0       	ldi	r18, 0x00	; 0
     fae:	30 e0       	ldi	r19, 0x00	; 0
     fb0:	44 eb       	ldi	r20, 0xB4	; 180
     fb2:	52 e4       	ldi	r21, 0x42	; 66
     fb4:	0e 94 55 26 	call	0x4caa	; 0x4caa <__divsf3>
     fb8:	60 93 8f 01 	sts	0x018F, r22
     fbc:	70 93 90 01 	sts	0x0190, r23
     fc0:	80 93 91 01 	sts	0x0191, r24
     fc4:	90 93 92 01 	sts	0x0192, r25
		}

		lastVitesse=vitesse;
     fc8:	00 93 84 01 	sts	0x0184, r16
		lastAngle=angle;
     fcc:	10 93 85 01 	sts	0x0185, r17
     fd0:	80 e0       	ldi	r24, 0x00	; 0
     fd2:	01 c0       	rjmp	.+2      	; 0xfd6 <moteurControl+0xa0>
     fd4:	81 e0       	ldi	r24, 0x01	; 1
	}
	return 0;
}
     fd6:	1f 91       	pop	r17
     fd8:	0f 91       	pop	r16
     fda:	08 95       	ret

00000fdc <moteurSetMode>:
	void moteurSetMode(U8 mode)
	@des fn qui met le robot en mode :M_ARRET,M_MARCHE,M_NEUTRE
*/
void moteurSetMode(U8 mode)
{
	mMode=mode;
     fdc:	80 93 8a 01 	sts	0x018A, r24
}
     fe0:	08 95       	ret

00000fe2 <CalculMoteur>:
/*
	void CalculMoteur(void)
	@des Calcul des valeurs envoyé au moteur et asservissement 
*/
void CalculMoteur(void)
{
     fe2:	8f 92       	push	r8
     fe4:	9f 92       	push	r9
     fe6:	af 92       	push	r10
     fe8:	bf 92       	push	r11
     fea:	cf 92       	push	r12
     fec:	df 92       	push	r13
     fee:	ef 92       	push	r14
     ff0:	ff 92       	push	r15
     ff2:	0f 93       	push	r16
     ff4:	1f 93       	push	r17
#define M_DIR_D1 mPortDREG.bit.b6
#define M_DIR_D2 mPortDREG.bit.b7	  
 

		//MODE AVANT
		if(mMode!=M_MARCHE)
     ff6:	80 91 8a 01 	lds	r24, 0x018A
     ffa:	88 23       	and	r24, r24
     ffc:	19 f1       	breq	.+70     	; 0x1044 <CalculMoteur+0x62>
		{	
			switch(mMode)
     ffe:	81 30       	cpi	r24, 0x01	; 1
    1000:	11 f4       	brne	.+4      	; 0x1006 <CalculMoteur+0x24>
			{
				case M_NEUTRE:
				M_DIR_G1=0;
				M_DIR_G2=0;
				M_DIR_D1=0;
				M_DIR_D2=0;
    1002:	dd 24       	eor	r13, r13
    1004:	02 c0       	rjmp	.+4      	; 0x100a <CalculMoteur+0x28>
				//M_ARRET
				default:  
				M_DIR_G1=1;
				M_DIR_G2=1;
				M_DIR_D1=1;
				M_DIR_D2=1;
    1006:	fc ec       	ldi	r31, 0xCC	; 204
    1008:	df 2e       	mov	r13, r31
				break;
				
			}
			mDuty_G=0;
    100a:	80 e0       	ldi	r24, 0x00	; 0
    100c:	90 e0       	ldi	r25, 0x00	; 0
    100e:	a0 e0       	ldi	r26, 0x00	; 0
    1010:	b0 e0       	ldi	r27, 0x00	; 0
    1012:	80 93 9b 01 	sts	0x019B, r24
    1016:	90 93 9c 01 	sts	0x019C, r25
    101a:	a0 93 9d 01 	sts	0x019D, r26
    101e:	b0 93 9e 01 	sts	0x019E, r27
			mDuty_D=0;
    1022:	80 93 9f 01 	sts	0x019F, r24
    1026:	90 93 a0 01 	sts	0x01A0, r25
    102a:	a0 93 a1 01 	sts	0x01A1, r26
    102e:	b0 93 a2 01 	sts	0x01A2, r27
			dutyValD=0;
    1032:	10 92 ef 03 	sts	0x03EF, r1
    1036:	10 92 ee 03 	sts	0x03EE, r1
			dutyValG=0;
    103a:	10 92 ed 03 	sts	0x03ED, r1
    103e:	10 92 ec 03 	sts	0x03EC, r1
    1042:	a7 c0       	rjmp	.+334    	; 0x1192 <CalculMoteur+0x1b0>
		}
		else
		{
			adcCalculateAvg(&mVd,&mVg);	
    1044:	87 e9       	ldi	r24, 0x97	; 151
    1046:	91 e0       	ldi	r25, 0x01	; 1
    1048:	63 e9       	ldi	r22, 0x93	; 147
    104a:	71 e0       	ldi	r23, 0x01	; 1
    104c:	0e 94 eb 08 	call	0x11d6	; 0x11d6 <adcCalculateAvg>
			CalculPWM(mVitesse_D,mAngle_D,mVg,mVd,&mDuty_G,&mDuty_D);
    1050:	00 d0       	rcall	.+0      	; 0x1052 <CalculMoteur+0x70>
    1052:	60 91 8b 01 	lds	r22, 0x018B
    1056:	70 91 8c 01 	lds	r23, 0x018C
    105a:	80 91 8d 01 	lds	r24, 0x018D
    105e:	90 91 8e 01 	lds	r25, 0x018E
    1062:	20 91 8f 01 	lds	r18, 0x018F
    1066:	30 91 90 01 	lds	r19, 0x0190
    106a:	40 91 91 01 	lds	r20, 0x0191
    106e:	50 91 92 01 	lds	r21, 0x0192
    1072:	e0 90 93 01 	lds	r14, 0x0193
    1076:	f0 90 94 01 	lds	r15, 0x0194
    107a:	00 91 95 01 	lds	r16, 0x0195
    107e:	10 91 96 01 	lds	r17, 0x0196
    1082:	a0 90 97 01 	lds	r10, 0x0197
    1086:	b0 90 98 01 	lds	r11, 0x0198
    108a:	c0 90 99 01 	lds	r12, 0x0199
    108e:	d0 90 9a 01 	lds	r13, 0x019A
    1092:	ef e9       	ldi	r30, 0x9F	; 159
    1094:	f1 e0       	ldi	r31, 0x01	; 1
    1096:	ad b7       	in	r26, 0x3d	; 61
    1098:	be b7       	in	r27, 0x3e	; 62
    109a:	12 96       	adiw	r26, 0x02	; 2
    109c:	fc 93       	st	X, r31
    109e:	ee 93       	st	-X, r30
    10a0:	11 97       	sbiw	r26, 0x01	; 1
    10a2:	eb e9       	ldi	r30, 0x9B	; 155
    10a4:	8e 2e       	mov	r8, r30
    10a6:	e1 e0       	ldi	r30, 0x01	; 1
    10a8:	9e 2e       	mov	r9, r30
    10aa:	0e 94 d6 04 	call	0x9ac	; 0x9ac <CalculPWM>
			//MODE ARRIERE
			if(mDuty_G<0)
    10ae:	e0 90 9b 01 	lds	r14, 0x019B
    10b2:	f0 90 9c 01 	lds	r15, 0x019C
    10b6:	00 91 9d 01 	lds	r16, 0x019D
    10ba:	10 91 9e 01 	lds	r17, 0x019E
    10be:	0f 90       	pop	r0
    10c0:	0f 90       	pop	r0
    10c2:	c8 01       	movw	r24, r16
    10c4:	b7 01       	movw	r22, r14
    10c6:	20 e0       	ldi	r18, 0x00	; 0
    10c8:	30 e0       	ldi	r19, 0x00	; 0
    10ca:	40 e0       	ldi	r20, 0x00	; 0
    10cc:	50 e0       	ldi	r21, 0x00	; 0
    10ce:	0e 94 51 26 	call	0x4ca2	; 0x4ca2 <__cmpsf2>
    10d2:	88 23       	and	r24, r24
    10d4:	74 f4       	brge	.+28     	; 0x10f2 <CalculMoteur+0x110>
			{
				M_DIR_G1=0;
				M_DIR_G2=1;
    10d6:	98 e0       	ldi	r25, 0x08	; 8
    10d8:	d9 2e       	mov	r13, r25
				mDuty_G=mDuty_G*(-1);
    10da:	d8 01       	movw	r26, r16
    10dc:	c7 01       	movw	r24, r14
    10de:	b0 58       	subi	r27, 0x80	; 128
    10e0:	80 93 9b 01 	sts	0x019B, r24
    10e4:	90 93 9c 01 	sts	0x019C, r25
    10e8:	a0 93 9d 01 	sts	0x019D, r26
    10ec:	b0 93 9e 01 	sts	0x019E, r27
    10f0:	02 c0       	rjmp	.+4      	; 0x10f6 <CalculMoteur+0x114>
			}
			//MODE AVANT
			else
			{
				M_DIR_G1=1;
				M_DIR_G2=0;	
    10f2:	84 e0       	ldi	r24, 0x04	; 4
    10f4:	d8 2e       	mov	r13, r24
			}	

			//MODE ARRIERE
			if(mDuty_D<0)
    10f6:	e0 90 9f 01 	lds	r14, 0x019F
    10fa:	f0 90 a0 01 	lds	r15, 0x01A0
    10fe:	00 91 a1 01 	lds	r16, 0x01A1
    1102:	10 91 a2 01 	lds	r17, 0x01A2
    1106:	c8 01       	movw	r24, r16
    1108:	b7 01       	movw	r22, r14
    110a:	20 e0       	ldi	r18, 0x00	; 0
    110c:	30 e0       	ldi	r19, 0x00	; 0
    110e:	40 e0       	ldi	r20, 0x00	; 0
    1110:	50 e0       	ldi	r21, 0x00	; 0
    1112:	0e 94 51 26 	call	0x4ca2	; 0x4ca2 <__cmpsf2>
    1116:	88 23       	and	r24, r24
    1118:	84 f4       	brge	.+32     	; 0x113a <CalculMoteur+0x158>
			{
				M_DIR_D1=0;
    111a:	bf eb       	ldi	r27, 0xBF	; 191
    111c:	db 22       	and	r13, r27
				M_DIR_D2=1;
    111e:	80 e8       	ldi	r24, 0x80	; 128
    1120:	d8 2a       	or	r13, r24
				mDuty_D=mDuty_D*(-1);
    1122:	d8 01       	movw	r26, r16
    1124:	c7 01       	movw	r24, r14
    1126:	b0 58       	subi	r27, 0x80	; 128
    1128:	80 93 9f 01 	sts	0x019F, r24
    112c:	90 93 a0 01 	sts	0x01A0, r25
    1130:	a0 93 a1 01 	sts	0x01A1, r26
    1134:	b0 93 a2 01 	sts	0x01A2, r27
    1138:	04 c0       	rjmp	.+8      	; 0x1142 <CalculMoteur+0x160>
			}
			//MODE AVANT
			else
			{
				M_DIR_D1=1;
    113a:	a0 e4       	ldi	r26, 0x40	; 64
    113c:	da 2a       	or	r13, r26
				M_DIR_D2=0;	
    113e:	bf e7       	ldi	r27, 0x7F	; 127
    1140:	db 22       	and	r13, r27
			}
			
			dutyValD=(U16)(mDuty_D*10000);
    1142:	60 91 9f 01 	lds	r22, 0x019F
    1146:	70 91 a0 01 	lds	r23, 0x01A0
    114a:	80 91 a1 01 	lds	r24, 0x01A1
    114e:	90 91 a2 01 	lds	r25, 0x01A2
    1152:	20 e0       	ldi	r18, 0x00	; 0
    1154:	30 e4       	ldi	r19, 0x40	; 64
    1156:	4c e1       	ldi	r20, 0x1C	; 28
    1158:	56 e4       	ldi	r21, 0x46	; 70
    115a:	0e 94 9f 27 	call	0x4f3e	; 0x4f3e <__mulsf3>
    115e:	0e 94 bd 26 	call	0x4d7a	; 0x4d7a <__fixunssfsi>
    1162:	70 93 ef 03 	sts	0x03EF, r23
    1166:	60 93 ee 03 	sts	0x03EE, r22
			dutyValG=(U16)(mDuty_G*10000);		
    116a:	60 91 9b 01 	lds	r22, 0x019B
    116e:	70 91 9c 01 	lds	r23, 0x019C
    1172:	80 91 9d 01 	lds	r24, 0x019D
    1176:	90 91 9e 01 	lds	r25, 0x019E
    117a:	20 e0       	ldi	r18, 0x00	; 0
    117c:	30 e4       	ldi	r19, 0x40	; 64
    117e:	4c e1       	ldi	r20, 0x1C	; 28
    1180:	56 e4       	ldi	r21, 0x46	; 70
    1182:	0e 94 9f 27 	call	0x4f3e	; 0x4f3e <__mulsf3>
    1186:	0e 94 bd 26 	call	0x4d7a	; 0x4d7a <__fixunssfsi>
    118a:	70 93 ed 03 	sts	0x03ED, r23
    118e:	60 93 ec 03 	sts	0x03EC, r22
		}
		pwmSetDutyValue(dutyValD,dutyValG,mPortDREG.byte);	
    1192:	60 91 ec 03 	lds	r22, 0x03EC
    1196:	70 91 ed 03 	lds	r23, 0x03ED
    119a:	80 91 ee 03 	lds	r24, 0x03EE
    119e:	90 91 ef 03 	lds	r25, 0x03EF
    11a2:	4d 2d       	mov	r20, r13
    11a4:	0e 94 57 04 	call	0x8ae	; 0x8ae <pwmSetDutyValue>

}
    11a8:	1f 91       	pop	r17
    11aa:	0f 91       	pop	r16
    11ac:	ff 90       	pop	r15
    11ae:	ef 90       	pop	r14
    11b0:	df 90       	pop	r13
    11b2:	cf 90       	pop	r12
    11b4:	bf 90       	pop	r11
    11b6:	af 90       	pop	r10
    11b8:	9f 90       	pop	r9
    11ba:	8f 90       	pop	r8
    11bc:	08 95       	ret

000011be <adcInit>:
	@des init du peripherique adc
*/
void adcInit(void)
{
    
	ADMUX=ADC_MOTEUR_DROIT;	
    11be:	91 e0       	ldi	r25, 0x01	; 1
    11c0:	97 b9       	out	0x07, r25	; 7
 	ADCSRA=(1<<ADEN )
    11c2:	8f ea       	ldi	r24, 0xAF	; 175
    11c4:	86 b9       	out	0x06, r24	; 6
		  	|(1<<ADPS2)
		  	|(1<<ADPS1)
		  	|(1<<ADPS0);	

	//init letat de la variable de lecture
   	adcMuxState=ADC_MOTEUR_DROIT;	
    11c6:	90 93 c3 01 	sts	0x01C3, r25
	SFIOR=0x0F&SFIOR;
    11ca:	80 b7       	in	r24, 0x30	; 48
    11cc:	8f 70       	andi	r24, 0x0F	; 15
    11ce:	80 bf       	out	0x30, r24	; 48
}
    11d0:	08 95       	ret

000011d2 <adcStartConversion>:
	@fn void adcStartConversion(void)
	@des demarre les lectures
*/
void adcStartConversion(void)
{
   ADCSRA |= 1<<ADSC;
    11d2:	36 9a       	sbi	0x06, 6	; 6
}
    11d4:	08 95       	ret

000011d6 <adcCalculateAvg>:
	void adcCalculateAvg(float * moteurD, float * moteurG)
	@des calcul des valeurs moyennes 
	@arg pointeur sur valeur des vitesse moteurs 
*/	
void adcCalculateAvg(float * moteurD, float * moteurG)
{
    11d6:	4f 92       	push	r4
    11d8:	5f 92       	push	r5
    11da:	6f 92       	push	r6
    11dc:	7f 92       	push	r7
    11de:	8f 92       	push	r8
    11e0:	9f 92       	push	r9
    11e2:	af 92       	push	r10
    11e4:	bf 92       	push	r11
    11e6:	cf 92       	push	r12
    11e8:	df 92       	push	r13
    11ea:	ef 92       	push	r14
    11ec:	ff 92       	push	r15
    11ee:	0f 93       	push	r16
    11f0:	1f 93       	push	r17
    11f2:	cf 93       	push	r28
    11f4:	df 93       	push	r29
    11f6:	ec 01       	movw	r28, r24
    11f8:	2b 01       	movw	r4, r22
	S32 nbSampleD;
	S32 nbSampleG;
	S32 MoteurDVal;
	S32 MoteurGVal;
	cli();
    11fa:	f8 94       	cli
	nbSampleD=adcNbSamplesD;
    11fc:	20 91 d0 01 	lds	r18, 0x01D0
    1200:	30 91 d1 01 	lds	r19, 0x01D1
    1204:	40 91 d2 01 	lds	r20, 0x01D2
    1208:	50 91 d3 01 	lds	r21, 0x01D3
	nbSampleG=adcNbSamplesG;
    120c:	60 90 cc 01 	lds	r6, 0x01CC
    1210:	70 90 cd 01 	lds	r7, 0x01CD
    1214:	80 90 ce 01 	lds	r8, 0x01CE
    1218:	90 90 cf 01 	lds	r9, 0x01CF
	MoteurDVal=adcMoteurDAvg;
    121c:	60 91 c8 01 	lds	r22, 0x01C8
    1220:	70 91 c9 01 	lds	r23, 0x01C9
    1224:	80 91 ca 01 	lds	r24, 0x01CA
    1228:	90 91 cb 01 	lds	r25, 0x01CB
	MoteurGVal=adcMoteurGAvg;		
    122c:	a0 90 c4 01 	lds	r10, 0x01C4
    1230:	b0 90 c5 01 	lds	r11, 0x01C5
    1234:	c0 90 c6 01 	lds	r12, 0x01C6
    1238:	d0 90 c7 01 	lds	r13, 0x01C7
	sei();
    123c:	78 94       	sei

	*moteurD=(MoteurDVal<0)?((float)((MoteurDVal/nbSampleD)+adcCalibMinValDM)/adcCalibMaxValDM):
    123e:	97 ff       	sbrs	r25, 7
    1240:	1b c0       	rjmp	.+54     	; 0x1278 <adcCalculateAvg+0xa2>
    1242:	0e 94 02 28 	call	0x5004	; 0x5004 <__divmodsi4>
    1246:	60 91 e7 01 	lds	r22, 0x01E7
    124a:	70 91 e8 01 	lds	r23, 0x01E8
    124e:	80 91 e9 01 	lds	r24, 0x01E9
    1252:	90 91 ea 01 	lds	r25, 0x01EA
    1256:	62 0f       	add	r22, r18
    1258:	73 1f       	adc	r23, r19
    125a:	84 1f       	adc	r24, r20
    125c:	95 1f       	adc	r25, r21
    125e:	0e 94 eb 26 	call	0x4dd6	; 0x4dd6 <__floatsisf>
    1262:	7b 01       	movw	r14, r22
    1264:	8c 01       	movw	r16, r24
    1266:	60 91 6e 00 	lds	r22, 0x006E
    126a:	70 91 6f 00 	lds	r23, 0x006F
    126e:	80 91 70 00 	lds	r24, 0x0070
    1272:	90 91 71 00 	lds	r25, 0x0071
    1276:	1c c0       	rjmp	.+56     	; 0x12b0 <adcCalculateAvg+0xda>
    1278:	0e 94 02 28 	call	0x5004	; 0x5004 <__divmodsi4>
    127c:	80 91 e3 01 	lds	r24, 0x01E3
    1280:	90 91 e4 01 	lds	r25, 0x01E4
    1284:	a0 91 e5 01 	lds	r26, 0x01E5
    1288:	b0 91 e6 01 	lds	r27, 0x01E6
    128c:	28 1b       	sub	r18, r24
    128e:	39 0b       	sbc	r19, r25
    1290:	4a 0b       	sbc	r20, r26
    1292:	5b 0b       	sbc	r21, r27
    1294:	ca 01       	movw	r24, r20
    1296:	b9 01       	movw	r22, r18
    1298:	0e 94 eb 26 	call	0x4dd6	; 0x4dd6 <__floatsisf>
    129c:	7b 01       	movw	r14, r22
    129e:	8c 01       	movw	r16, r24
    12a0:	60 91 6a 00 	lds	r22, 0x006A
    12a4:	70 91 6b 00 	lds	r23, 0x006B
    12a8:	80 91 6c 00 	lds	r24, 0x006C
    12ac:	90 91 6d 00 	lds	r25, 0x006D
    12b0:	0e 94 eb 26 	call	0x4dd6	; 0x4dd6 <__floatsisf>
    12b4:	9b 01       	movw	r18, r22
    12b6:	ac 01       	movw	r20, r24
    12b8:	c8 01       	movw	r24, r16
    12ba:	b7 01       	movw	r22, r14
    12bc:	0e 94 55 26 	call	0x4caa	; 0x4caa <__divsf3>
    12c0:	e6 2f       	mov	r30, r22
    12c2:	2e 2f       	mov	r18, r30
    12c4:	37 2f       	mov	r19, r23
    12c6:	48 2f       	mov	r20, r24
    12c8:	59 2f       	mov	r21, r25
    12ca:	c9 01       	movw	r24, r18
    12cc:	da 01       	movw	r26, r20
    12ce:	88 83       	st	Y, r24
    12d0:	99 83       	std	Y+1, r25	; 0x01
    12d2:	aa 83       	std	Y+2, r26	; 0x02
    12d4:	bb 83       	std	Y+3, r27	; 0x03
		((float)((MoteurDVal/nbSampleD)-adcCalibMinValDP)/adcCalibMaxValDP);
	*moteurG=(MoteurGVal<0)?((float)((MoteurGVal/nbSampleG)+adcCalibMinValGM)/adcCalibMaxValGM):
    12d6:	d7 fe       	sbrs	r13, 7
    12d8:	1f c0       	rjmp	.+62     	; 0x1318 <adcCalculateAvg+0x142>
    12da:	c6 01       	movw	r24, r12
    12dc:	b5 01       	movw	r22, r10
    12de:	a4 01       	movw	r20, r8
    12e0:	93 01       	movw	r18, r6
    12e2:	0e 94 02 28 	call	0x5004	; 0x5004 <__divmodsi4>
    12e6:	60 91 df 01 	lds	r22, 0x01DF
    12ea:	70 91 e0 01 	lds	r23, 0x01E0
    12ee:	80 91 e1 01 	lds	r24, 0x01E1
    12f2:	90 91 e2 01 	lds	r25, 0x01E2
    12f6:	62 0f       	add	r22, r18
    12f8:	73 1f       	adc	r23, r19
    12fa:	84 1f       	adc	r24, r20
    12fc:	95 1f       	adc	r25, r21
    12fe:	0e 94 eb 26 	call	0x4dd6	; 0x4dd6 <__floatsisf>
    1302:	7b 01       	movw	r14, r22
    1304:	8c 01       	movw	r16, r24
    1306:	60 91 66 00 	lds	r22, 0x0066
    130a:	70 91 67 00 	lds	r23, 0x0067
    130e:	80 91 68 00 	lds	r24, 0x0068
    1312:	90 91 69 00 	lds	r25, 0x0069
    1316:	20 c0       	rjmp	.+64     	; 0x1358 <adcCalculateAvg+0x182>
    1318:	c6 01       	movw	r24, r12
    131a:	b5 01       	movw	r22, r10
    131c:	a4 01       	movw	r20, r8
    131e:	93 01       	movw	r18, r6
    1320:	0e 94 02 28 	call	0x5004	; 0x5004 <__divmodsi4>
    1324:	80 91 db 01 	lds	r24, 0x01DB
    1328:	90 91 dc 01 	lds	r25, 0x01DC
    132c:	a0 91 dd 01 	lds	r26, 0x01DD
    1330:	b0 91 de 01 	lds	r27, 0x01DE
    1334:	28 1b       	sub	r18, r24
    1336:	39 0b       	sbc	r19, r25
    1338:	4a 0b       	sbc	r20, r26
    133a:	5b 0b       	sbc	r21, r27
    133c:	ca 01       	movw	r24, r20
    133e:	b9 01       	movw	r22, r18
    1340:	0e 94 eb 26 	call	0x4dd6	; 0x4dd6 <__floatsisf>
    1344:	7b 01       	movw	r14, r22
    1346:	8c 01       	movw	r16, r24
    1348:	60 91 62 00 	lds	r22, 0x0062
    134c:	70 91 63 00 	lds	r23, 0x0063
    1350:	80 91 64 00 	lds	r24, 0x0064
    1354:	90 91 65 00 	lds	r25, 0x0065
    1358:	0e 94 eb 26 	call	0x4dd6	; 0x4dd6 <__floatsisf>
    135c:	9b 01       	movw	r18, r22
    135e:	ac 01       	movw	r20, r24
    1360:	c8 01       	movw	r24, r16
    1362:	b7 01       	movw	r22, r14
    1364:	0e 94 55 26 	call	0x4caa	; 0x4caa <__divsf3>
    1368:	e6 2f       	mov	r30, r22
    136a:	2e 2f       	mov	r18, r30
    136c:	37 2f       	mov	r19, r23
    136e:	48 2f       	mov	r20, r24
    1370:	59 2f       	mov	r21, r25
    1372:	c9 01       	movw	r24, r18
    1374:	da 01       	movw	r26, r20
    1376:	f2 01       	movw	r30, r4
    1378:	80 83       	st	Z, r24
    137a:	91 83       	std	Z+1, r25	; 0x01
    137c:	a2 83       	std	Z+2, r26	; 0x02
    137e:	b3 83       	std	Z+3, r27	; 0x03
		((float)((MoteurGVal/nbSampleG)-adcCalibMinValGP)/adcCalibMaxValGP);
	adcMoteurDAvg=0;
    1380:	10 92 c8 01 	sts	0x01C8, r1
    1384:	10 92 c9 01 	sts	0x01C9, r1
    1388:	10 92 ca 01 	sts	0x01CA, r1
    138c:	10 92 cb 01 	sts	0x01CB, r1
	adcMoteurGAvg=0;
    1390:	10 92 c4 01 	sts	0x01C4, r1
    1394:	10 92 c5 01 	sts	0x01C5, r1
    1398:	10 92 c6 01 	sts	0x01C6, r1
    139c:	10 92 c7 01 	sts	0x01C7, r1
	adcNbSamplesG=0;
    13a0:	10 92 cc 01 	sts	0x01CC, r1
    13a4:	10 92 cd 01 	sts	0x01CD, r1
    13a8:	10 92 ce 01 	sts	0x01CE, r1
    13ac:	10 92 cf 01 	sts	0x01CF, r1
	adcNbSamplesD=0;
    13b0:	10 92 d0 01 	sts	0x01D0, r1
    13b4:	10 92 d1 01 	sts	0x01D1, r1
    13b8:	10 92 d2 01 	sts	0x01D2, r1
    13bc:	10 92 d3 01 	sts	0x01D3, r1
	
	
}
    13c0:	df 91       	pop	r29
    13c2:	cf 91       	pop	r28
    13c4:	1f 91       	pop	r17
    13c6:	0f 91       	pop	r16
    13c8:	ff 90       	pop	r15
    13ca:	ef 90       	pop	r14
    13cc:	df 90       	pop	r13
    13ce:	cf 90       	pop	r12
    13d0:	bf 90       	pop	r11
    13d2:	af 90       	pop	r10
    13d4:	9f 90       	pop	r9
    13d6:	8f 90       	pop	r8
    13d8:	7f 90       	pop	r7
    13da:	6f 90       	pop	r6
    13dc:	5f 90       	pop	r5
    13de:	4f 90       	pop	r4
    13e0:	08 95       	ret

000013e2 <adcReadCalibValue>:
/*
	void adcReadCalibValue(S32 *adcValD,S32 *adcValG)
	@des calcul des moyennes en type S32 pour la calibration
*/
void adcReadCalibValue(S32 *adcValD,S32 *adcValG)
{
    13e2:	6f 92       	push	r6
    13e4:	7f 92       	push	r7
    13e6:	8f 92       	push	r8
    13e8:	9f 92       	push	r9
    13ea:	af 92       	push	r10
    13ec:	bf 92       	push	r11
    13ee:	cf 92       	push	r12
    13f0:	df 92       	push	r13
    13f2:	ef 92       	push	r14
    13f4:	ff 92       	push	r15
    13f6:	0f 93       	push	r16
    13f8:	1f 93       	push	r17
    13fa:	4c 01       	movw	r8, r24
    13fc:	3b 01       	movw	r6, r22
	S32 nbSampleD;
	S32 nbSampleG;
	S32 MoteurDVal;
	S32 MoteurGVal;
	cli();
    13fe:	f8 94       	cli
	nbSampleD=adcNbSamplesD;
    1400:	20 91 d0 01 	lds	r18, 0x01D0
    1404:	30 91 d1 01 	lds	r19, 0x01D1
    1408:	40 91 d2 01 	lds	r20, 0x01D2
    140c:	50 91 d3 01 	lds	r21, 0x01D3
	nbSampleG=adcNbSamplesG;
    1410:	a0 90 cc 01 	lds	r10, 0x01CC
    1414:	b0 90 cd 01 	lds	r11, 0x01CD
    1418:	c0 90 ce 01 	lds	r12, 0x01CE
    141c:	d0 90 cf 01 	lds	r13, 0x01CF
	MoteurDVal=adcMoteurDAvg;
    1420:	60 91 c8 01 	lds	r22, 0x01C8
    1424:	70 91 c9 01 	lds	r23, 0x01C9
    1428:	80 91 ca 01 	lds	r24, 0x01CA
    142c:	90 91 cb 01 	lds	r25, 0x01CB
	MoteurGVal=adcMoteurGAvg;		
    1430:	e0 90 c4 01 	lds	r14, 0x01C4
    1434:	f0 90 c5 01 	lds	r15, 0x01C5
    1438:	00 91 c6 01 	lds	r16, 0x01C6
    143c:	10 91 c7 01 	lds	r17, 0x01C7
	sei();
    1440:	78 94       	sei
	*adcValD=MoteurDVal/nbSampleD;
    1442:	0e 94 02 28 	call	0x5004	; 0x5004 <__divmodsi4>
    1446:	f4 01       	movw	r30, r8
    1448:	20 83       	st	Z, r18
    144a:	31 83       	std	Z+1, r19	; 0x01
    144c:	42 83       	std	Z+2, r20	; 0x02
    144e:	53 83       	std	Z+3, r21	; 0x03
	*adcValG=MoteurGVal/nbSampleG;
    1450:	c8 01       	movw	r24, r16
    1452:	b7 01       	movw	r22, r14
    1454:	a6 01       	movw	r20, r12
    1456:	95 01       	movw	r18, r10
    1458:	0e 94 02 28 	call	0x5004	; 0x5004 <__divmodsi4>
    145c:	f3 01       	movw	r30, r6
    145e:	20 83       	st	Z, r18
    1460:	31 83       	std	Z+1, r19	; 0x01
    1462:	42 83       	std	Z+2, r20	; 0x02
    1464:	53 83       	std	Z+3, r21	; 0x03
	adcMoteurDAvg=0;
    1466:	10 92 c8 01 	sts	0x01C8, r1
    146a:	10 92 c9 01 	sts	0x01C9, r1
    146e:	10 92 ca 01 	sts	0x01CA, r1
    1472:	10 92 cb 01 	sts	0x01CB, r1
	adcMoteurGAvg=0;
    1476:	10 92 c4 01 	sts	0x01C4, r1
    147a:	10 92 c5 01 	sts	0x01C5, r1
    147e:	10 92 c6 01 	sts	0x01C6, r1
    1482:	10 92 c7 01 	sts	0x01C7, r1
	adcNbSamplesG=0;
    1486:	10 92 cc 01 	sts	0x01CC, r1
    148a:	10 92 cd 01 	sts	0x01CD, r1
    148e:	10 92 ce 01 	sts	0x01CE, r1
    1492:	10 92 cf 01 	sts	0x01CF, r1
	adcNbSamplesD=0;
    1496:	10 92 d0 01 	sts	0x01D0, r1
    149a:	10 92 d1 01 	sts	0x01D1, r1
    149e:	10 92 d2 01 	sts	0x01D2, r1
    14a2:	10 92 d3 01 	sts	0x01D3, r1
	
}
    14a6:	1f 91       	pop	r17
    14a8:	0f 91       	pop	r16
    14aa:	ff 90       	pop	r15
    14ac:	ef 90       	pop	r14
    14ae:	df 90       	pop	r13
    14b0:	cf 90       	pop	r12
    14b2:	bf 90       	pop	r11
    14b4:	af 90       	pop	r10
    14b6:	9f 90       	pop	r9
    14b8:	8f 90       	pop	r8
    14ba:	7f 90       	pop	r7
    14bc:	6f 90       	pop	r6
    14be:	08 95       	ret

000014c0 <adcCalibSeq>:
/*
	void adcCalibSeq(void)
	@des sequence de calibration
*/	
void adcCalibSeq(void)
{
    14c0:	1f 93       	push	r17
	tREG08 portDreg;
	//VMAX calib+ lecture
	TIMSK=0;
    14c2:	19 be       	out	0x39, r1	; 57
	adcMotMskVarD=0;
    14c4:	10 92 d9 01 	sts	0x01D9, r1
	adcMotMskVarG=0;
    14c8:	10 92 da 01 	sts	0x01DA, r1
	ADC_SET_CAL;
    14cc:	dc 9a       	sbi	0x1b, 4	; 27
	portDreg.bit.b4=0;
	portDreg.bit.b5=0;
	portDreg.bit.b7=0;
	portDreg.bit.b3=0;
	portDreg.bit.b6=1;
	portDreg.bit.b2=1;
    14ce:	14 e4       	ldi	r17, 0x44	; 68
	PORTD=portDreg.byte;
    14d0:	12 bb       	out	0x12, r17	; 18
	while(adcNbSamplesG<32);	
    14d2:	80 91 cc 01 	lds	r24, 0x01CC
    14d6:	90 91 cd 01 	lds	r25, 0x01CD
    14da:	a0 91 ce 01 	lds	r26, 0x01CE
    14de:	b0 91 cf 01 	lds	r27, 0x01CF
    14e2:	80 97       	sbiw	r24, 0x20	; 32
    14e4:	a1 05       	cpc	r26, r1
    14e6:	b1 05       	cpc	r27, r1
    14e8:	a4 f3       	brlt	.-24     	; 0x14d2 <adcCalibSeq+0x12>
	OCR1A=0;
    14ea:	1b bc       	out	0x2b, r1	; 43
    14ec:	1a bc       	out	0x2a, r1	; 42
  	OCR1B=0;
    14ee:	19 bc       	out	0x29, r1	; 41
    14f0:	18 bc       	out	0x28, r1	; 40
	adcReadCalibValue(&adcCalibMaxValDP,&adcCalibMaxValGP);
    14f2:	8a e6       	ldi	r24, 0x6A	; 106
    14f4:	90 e0       	ldi	r25, 0x00	; 0
    14f6:	62 e6       	ldi	r22, 0x62	; 98
    14f8:	70 e0       	ldi	r23, 0x00	; 0
    14fa:	0e 94 f1 09 	call	0x13e2	; 0x13e2 <adcReadCalibValue>
	while(adcNbSamplesG<60);
    14fe:	80 91 cc 01 	lds	r24, 0x01CC
    1502:	90 91 cd 01 	lds	r25, 0x01CD
    1506:	a0 91 ce 01 	lds	r26, 0x01CE
    150a:	b0 91 cf 01 	lds	r27, 0x01CF
    150e:	cc 97       	sbiw	r24, 0x3c	; 60
    1510:	a1 05       	cpc	r26, r1
    1512:	b1 05       	cpc	r27, r1
    1514:	a4 f3       	brlt	.-24     	; 0x14fe <adcCalibSeq+0x3e>
	adcReadCalibValue(&adcCalibMaxValDP,&adcCalibMaxValGP);
    1516:	8a e6       	ldi	r24, 0x6A	; 106
    1518:	90 e0       	ldi	r25, 0x00	; 0
    151a:	62 e6       	ldi	r22, 0x62	; 98
    151c:	70 e0       	ldi	r23, 0x00	; 0
    151e:	0e 94 f1 09 	call	0x13e2	; 0x13e2 <adcReadCalibValue>
	//VMIN calib+ lecture
	ADC_CLEAR_CAL;
    1522:	dc 98       	cbi	0x1b, 4	; 27
	portDreg.bit.b4=0;
	portDreg.bit.b5=0;
	portDreg.bit.b7=0;
	portDreg.bit.b3=0;
    1524:	17 74       	andi	r17, 0x47	; 71
	portDreg.bit.b6=1;
	portDreg.bit.b2=1;
    1526:	14 64       	ori	r17, 0x44	; 68
	PORTD=portDreg.byte;
    1528:	12 bb       	out	0x12, r17	; 18
	OCR1A=0;
    152a:	1b bc       	out	0x2b, r1	; 43
    152c:	1a bc       	out	0x2a, r1	; 42
  	OCR1B=0;
    152e:	19 bc       	out	0x29, r1	; 41
    1530:	18 bc       	out	0x28, r1	; 40
	while(adcNbSamplesG<32);	
    1532:	80 91 cc 01 	lds	r24, 0x01CC
    1536:	90 91 cd 01 	lds	r25, 0x01CD
    153a:	a0 91 ce 01 	lds	r26, 0x01CE
    153e:	b0 91 cf 01 	lds	r27, 0x01CF
    1542:	80 97       	sbiw	r24, 0x20	; 32
    1544:	a1 05       	cpc	r26, r1
    1546:	b1 05       	cpc	r27, r1
    1548:	a4 f3       	brlt	.-24     	; 0x1532 <adcCalibSeq+0x72>
	adcReadCalibValue(&adcCalibMinValDP,&adcCalibMinValGP);
    154a:	83 ee       	ldi	r24, 0xE3	; 227
    154c:	91 e0       	ldi	r25, 0x01	; 1
    154e:	6b ed       	ldi	r22, 0xDB	; 219
    1550:	71 e0       	ldi	r23, 0x01	; 1
    1552:	0e 94 f1 09 	call	0x13e2	; 0x13e2 <adcReadCalibValue>
	while(adcNbSamplesG<60);
    1556:	80 91 cc 01 	lds	r24, 0x01CC
    155a:	90 91 cd 01 	lds	r25, 0x01CD
    155e:	a0 91 ce 01 	lds	r26, 0x01CE
    1562:	b0 91 cf 01 	lds	r27, 0x01CF
    1566:	cc 97       	sbiw	r24, 0x3c	; 60
    1568:	a1 05       	cpc	r26, r1
    156a:	b1 05       	cpc	r27, r1
    156c:	a4 f3       	brlt	.-24     	; 0x1556 <adcCalibSeq+0x96>
	adcReadCalibValue(&adcCalibMinValDP,&adcCalibMinValGP);
    156e:	83 ee       	ldi	r24, 0xE3	; 227
    1570:	91 e0       	ldi	r25, 0x01	; 1
    1572:	6b ed       	ldi	r22, 0xDB	; 219
    1574:	71 e0       	ldi	r23, 0x01	; 1
    1576:	0e 94 f1 09 	call	0x13e2	; 0x13e2 <adcReadCalibValue>

	//VMAX calib- lecture
	ADC_SET_CAL;
    157a:	dc 9a       	sbi	0x1b, 4	; 27
	portDreg.bit.b4=0;
	portDreg.bit.b5=0;
    157c:	1f 7c       	andi	r17, 0xCF	; 207
	portDreg.bit.b7=1;
	portDreg.bit.b3=1;
    157e:	18 68       	ori	r17, 0x88	; 136
	portDreg.bit.b6=0;
	portDreg.bit.b2=0;
    1580:	1b 7a       	andi	r17, 0xAB	; 171
	PORTD=portDreg.byte;
    1582:	12 bb       	out	0x12, r17	; 18
	while(adcNbSamplesG<32);	
    1584:	80 91 cc 01 	lds	r24, 0x01CC
    1588:	90 91 cd 01 	lds	r25, 0x01CD
    158c:	a0 91 ce 01 	lds	r26, 0x01CE
    1590:	b0 91 cf 01 	lds	r27, 0x01CF
    1594:	80 97       	sbiw	r24, 0x20	; 32
    1596:	a1 05       	cpc	r26, r1
    1598:	b1 05       	cpc	r27, r1
    159a:	a4 f3       	brlt	.-24     	; 0x1584 <adcCalibSeq+0xc4>
	OCR1A=0;
    159c:	1b bc       	out	0x2b, r1	; 43
    159e:	1a bc       	out	0x2a, r1	; 42
  	OCR1B=0;
    15a0:	19 bc       	out	0x29, r1	; 41
    15a2:	18 bc       	out	0x28, r1	; 40
	adcReadCalibValue(&adcCalibMaxValDM,&adcCalibMaxValGM);
    15a4:	8e e6       	ldi	r24, 0x6E	; 110
    15a6:	90 e0       	ldi	r25, 0x00	; 0
    15a8:	66 e6       	ldi	r22, 0x66	; 102
    15aa:	70 e0       	ldi	r23, 0x00	; 0
    15ac:	0e 94 f1 09 	call	0x13e2	; 0x13e2 <adcReadCalibValue>
	while(adcNbSamplesG<60);
    15b0:	80 91 cc 01 	lds	r24, 0x01CC
    15b4:	90 91 cd 01 	lds	r25, 0x01CD
    15b8:	a0 91 ce 01 	lds	r26, 0x01CE
    15bc:	b0 91 cf 01 	lds	r27, 0x01CF
    15c0:	cc 97       	sbiw	r24, 0x3c	; 60
    15c2:	a1 05       	cpc	r26, r1
    15c4:	b1 05       	cpc	r27, r1
    15c6:	a4 f3       	brlt	.-24     	; 0x15b0 <adcCalibSeq+0xf0>
	adcReadCalibValue(&adcCalibMaxValDM,&adcCalibMaxValGM);
    15c8:	8e e6       	ldi	r24, 0x6E	; 110
    15ca:	90 e0       	ldi	r25, 0x00	; 0
    15cc:	66 e6       	ldi	r22, 0x66	; 102
    15ce:	70 e0       	ldi	r23, 0x00	; 0
    15d0:	0e 94 f1 09 	call	0x13e2	; 0x13e2 <adcReadCalibValue>

	//VMIN calib+ lecture
	ADC_CLEAR_CAL;
    15d4:	dc 98       	cbi	0x1b, 4	; 27
	portDreg.bit.b4=0;
	portDreg.bit.b5=0;
    15d6:	1f 7c       	andi	r17, 0xCF	; 207
	portDreg.bit.b7=1;
	portDreg.bit.b3=1;
    15d8:	18 68       	ori	r17, 0x88	; 136
	portDreg.bit.b6=0;
	portDreg.bit.b2=0;
    15da:	1b 7a       	andi	r17, 0xAB	; 171
	PORTD=portDreg.byte;
    15dc:	12 bb       	out	0x12, r17	; 18
	OCR1A=0;
    15de:	1b bc       	out	0x2b, r1	; 43
    15e0:	1a bc       	out	0x2a, r1	; 42
  	OCR1B=0;
    15e2:	19 bc       	out	0x29, r1	; 41
    15e4:	18 bc       	out	0x28, r1	; 40
	while(adcNbSamplesG<32);	
    15e6:	80 91 cc 01 	lds	r24, 0x01CC
    15ea:	90 91 cd 01 	lds	r25, 0x01CD
    15ee:	a0 91 ce 01 	lds	r26, 0x01CE
    15f2:	b0 91 cf 01 	lds	r27, 0x01CF
    15f6:	80 97       	sbiw	r24, 0x20	; 32
    15f8:	a1 05       	cpc	r26, r1
    15fa:	b1 05       	cpc	r27, r1
    15fc:	a4 f3       	brlt	.-24     	; 0x15e6 <adcCalibSeq+0x126>
	adcReadCalibValue(&adcCalibMinValDM,&adcCalibMinValGM);
    15fe:	87 ee       	ldi	r24, 0xE7	; 231
    1600:	91 e0       	ldi	r25, 0x01	; 1
    1602:	6f ed       	ldi	r22, 0xDF	; 223
    1604:	71 e0       	ldi	r23, 0x01	; 1
    1606:	0e 94 f1 09 	call	0x13e2	; 0x13e2 <adcReadCalibValue>
	while(adcNbSamplesG<60);
    160a:	80 91 cc 01 	lds	r24, 0x01CC
    160e:	90 91 cd 01 	lds	r25, 0x01CD
    1612:	a0 91 ce 01 	lds	r26, 0x01CE
    1616:	b0 91 cf 01 	lds	r27, 0x01CF
    161a:	cc 97       	sbiw	r24, 0x3c	; 60
    161c:	a1 05       	cpc	r26, r1
    161e:	b1 05       	cpc	r27, r1
    1620:	a4 f3       	brlt	.-24     	; 0x160a <adcCalibSeq+0x14a>
	adcReadCalibValue(&adcCalibMinValDM,&adcCalibMinValGM);
    1622:	87 ee       	ldi	r24, 0xE7	; 231
    1624:	91 e0       	ldi	r25, 0x01	; 1
    1626:	6f ed       	ldi	r22, 0xDF	; 223
    1628:	71 e0       	ldi	r23, 0x01	; 1
    162a:	0e 94 f1 09 	call	0x13e2	; 0x13e2 <adcReadCalibValue>

	TIMSK=(1<<TOIE1);
    162e:	94 e0       	ldi	r25, 0x04	; 4
    1630:	99 bf       	out	0x39, r25	; 57
	ADC_CLEAR_CAL;
    1632:	dc 98       	cbi	0x1b, 4	; 27
	adcMotMskVarD=ADC_MOTEUR_DROIT_MSK;
    1634:	88 e0       	ldi	r24, 0x08	; 8
    1636:	80 93 d9 01 	sts	0x01D9, r24
	adcMotMskVarG=ADC_MOTEUR_GAUCHE_MSK;
    163a:	90 93 da 01 	sts	0x01DA, r25
		
	adcCalibMaxValDP=(S32)(adcCalibMaxValDP-adcCalibMinValDP);
    163e:	80 91 6a 00 	lds	r24, 0x006A
    1642:	90 91 6b 00 	lds	r25, 0x006B
    1646:	a0 91 6c 00 	lds	r26, 0x006C
    164a:	b0 91 6d 00 	lds	r27, 0x006D
    164e:	20 91 e3 01 	lds	r18, 0x01E3
    1652:	30 91 e4 01 	lds	r19, 0x01E4
    1656:	40 91 e5 01 	lds	r20, 0x01E5
    165a:	50 91 e6 01 	lds	r21, 0x01E6
    165e:	82 1b       	sub	r24, r18
    1660:	93 0b       	sbc	r25, r19
    1662:	a4 0b       	sbc	r26, r20
    1664:	b5 0b       	sbc	r27, r21
    1666:	80 93 6a 00 	sts	0x006A, r24
    166a:	90 93 6b 00 	sts	0x006B, r25
    166e:	a0 93 6c 00 	sts	0x006C, r26
    1672:	b0 93 6d 00 	sts	0x006D, r27
	adcCalibMaxValGP=(S32)(adcCalibMaxValGP-adcCalibMinValGP);
    1676:	80 91 62 00 	lds	r24, 0x0062
    167a:	90 91 63 00 	lds	r25, 0x0063
    167e:	a0 91 64 00 	lds	r26, 0x0064
    1682:	b0 91 65 00 	lds	r27, 0x0065
    1686:	20 91 db 01 	lds	r18, 0x01DB
    168a:	30 91 dc 01 	lds	r19, 0x01DC
    168e:	40 91 dd 01 	lds	r20, 0x01DD
    1692:	50 91 de 01 	lds	r21, 0x01DE
    1696:	82 1b       	sub	r24, r18
    1698:	93 0b       	sbc	r25, r19
    169a:	a4 0b       	sbc	r26, r20
    169c:	b5 0b       	sbc	r27, r21
    169e:	80 93 62 00 	sts	0x0062, r24
    16a2:	90 93 63 00 	sts	0x0063, r25
    16a6:	a0 93 64 00 	sts	0x0064, r26
    16aa:	b0 93 65 00 	sts	0x0065, r27
 	adcCalibMaxValDM=(S32)(adcCalibMaxValDM-adcCalibMinValDM);
    16ae:	80 91 6e 00 	lds	r24, 0x006E
    16b2:	90 91 6f 00 	lds	r25, 0x006F
    16b6:	a0 91 70 00 	lds	r26, 0x0070
    16ba:	b0 91 71 00 	lds	r27, 0x0071
    16be:	20 91 e7 01 	lds	r18, 0x01E7
    16c2:	30 91 e8 01 	lds	r19, 0x01E8
    16c6:	40 91 e9 01 	lds	r20, 0x01E9
    16ca:	50 91 ea 01 	lds	r21, 0x01EA
    16ce:	82 1b       	sub	r24, r18
    16d0:	93 0b       	sbc	r25, r19
    16d2:	a4 0b       	sbc	r26, r20
    16d4:	b5 0b       	sbc	r27, r21
    16d6:	80 93 6e 00 	sts	0x006E, r24
    16da:	90 93 6f 00 	sts	0x006F, r25
    16de:	a0 93 70 00 	sts	0x0070, r26
    16e2:	b0 93 71 00 	sts	0x0071, r27
	adcCalibMaxValGM=(S32)(adcCalibMaxValGM-adcCalibMinValGM);
    16e6:	80 91 66 00 	lds	r24, 0x0066
    16ea:	90 91 67 00 	lds	r25, 0x0067
    16ee:	a0 91 68 00 	lds	r26, 0x0068
    16f2:	b0 91 69 00 	lds	r27, 0x0069
    16f6:	20 91 df 01 	lds	r18, 0x01DF
    16fa:	30 91 e0 01 	lds	r19, 0x01E0
    16fe:	40 91 e1 01 	lds	r20, 0x01E1
    1702:	50 91 e2 01 	lds	r21, 0x01E2
    1706:	82 1b       	sub	r24, r18
    1708:	93 0b       	sbc	r25, r19
    170a:	a4 0b       	sbc	r26, r20
    170c:	b5 0b       	sbc	r27, r21
    170e:	80 93 66 00 	sts	0x0066, r24
    1712:	90 93 67 00 	sts	0x0067, r25
    1716:	a0 93 68 00 	sts	0x0068, r26
    171a:	b0 93 69 00 	sts	0x0069, r27
	

}
    171e:	1f 91       	pop	r17
    1720:	08 95       	ret

00001722 <__vector_16>:
	@fn ISR(ADC_vect)
	@des routine d'interruption
*/
ISR(ADC_vect,ISR_NAKED)
{
	OS_INT_ENTER();
    1722:	2f 93       	push	r18
    1724:	3f 93       	push	r19
    1726:	2f b7       	in	r18, 0x3f	; 63
    1728:	20 68       	ori	r18, 0x80	; 128
    172a:	2f 93       	push	r18
    172c:	0f 92       	push	r0
    172e:	1f 92       	push	r1
    1730:	4f 93       	push	r20
    1732:	5f 93       	push	r21
    1734:	6f 93       	push	r22
    1736:	7f 93       	push	r23
    1738:	8f 93       	push	r24
    173a:	9f 93       	push	r25
    173c:	af 93       	push	r26
    173e:	bf 93       	push	r27
    1740:	ef 93       	push	r30
    1742:	ff 93       	push	r31
    1744:	80 91 3b 04 	lds	r24, 0x043B
    1748:	88 23       	and	r24, r24
    174a:	91 f4       	brne	.+36     	; 0x1770 <__vector_16+0x4e>
    174c:	2f 92       	push	r2
    174e:	3f 92       	push	r3
    1750:	4f 92       	push	r4
    1752:	5f 92       	push	r5
    1754:	6f 92       	push	r6
    1756:	7f 92       	push	r7
    1758:	8f 92       	push	r8
    175a:	9f 92       	push	r9
    175c:	af 92       	push	r10
    175e:	bf 92       	push	r11
    1760:	cf 92       	push	r12
    1762:	df 92       	push	r13
    1764:	ef 92       	push	r14
    1766:	ff 92       	push	r15
    1768:	0f 93       	push	r16
    176a:	1f 93       	push	r17
    176c:	cf 93       	push	r28
    176e:	df 93       	push	r29
    1770:	8f 5f       	subi	r24, 0xFF	; 255
    1772:	80 93 3b 04 	sts	0x043B, r24
	ADMUX = (ADMUX & 0x01) ? (0x00) : (0x01);
    1776:	87 b1       	in	r24, 0x07	; 7
    1778:	80 95       	com	r24
    177a:	81 70       	andi	r24, 0x01	; 1
    177c:	87 b9       	out	0x07, r24	; 7
	if(ADMUX&0x01)
    177e:	38 9b       	sbis	0x07, 0	; 7
    1780:	44 c0       	rjmp	.+136    	; 0x180a <__vector_16+0xe8>
	{	
			//assignation de la valeur de mux pour la prochaine conversion
		adcNbSamplesD++;
    1782:	80 91 d0 01 	lds	r24, 0x01D0
    1786:	90 91 d1 01 	lds	r25, 0x01D1
    178a:	a0 91 d2 01 	lds	r26, 0x01D2
    178e:	b0 91 d3 01 	lds	r27, 0x01D3
    1792:	01 96       	adiw	r24, 0x01	; 1
    1794:	a1 1d       	adc	r26, r1
    1796:	b1 1d       	adc	r27, r1
    1798:	80 93 d0 01 	sts	0x01D0, r24
    179c:	90 93 d1 01 	sts	0x01D1, r25
    17a0:	a0 93 d2 01 	sts	0x01D2, r26
    17a4:	b0 93 d3 01 	sts	0x01D3, r27
			//addition ou soustraction de la valeur lue selon le bit de signe
		adcMoteurDAvg+=	((PINA&adcMotMskVarD)==0)? ((S32)(ADC&0x03ff)):(-(S32)(ADC&0x03ff));
    17a8:	e0 90 c8 01 	lds	r14, 0x01C8
    17ac:	f0 90 c9 01 	lds	r15, 0x01C9
    17b0:	00 91 ca 01 	lds	r16, 0x01CA
    17b4:	10 91 cb 01 	lds	r17, 0x01CB
    17b8:	99 b3       	in	r25, 0x19	; 25
    17ba:	80 91 d9 01 	lds	r24, 0x01D9
    17be:	89 23       	and	r24, r25
    17c0:	49 f4       	brne	.+18     	; 0x17d4 <__vector_16+0xb2>
    17c2:	84 b1       	in	r24, 0x04	; 4
    17c4:	95 b1       	in	r25, 0x05	; 5
    17c6:	9c 01       	movw	r18, r24
    17c8:	40 e0       	ldi	r20, 0x00	; 0
    17ca:	50 e0       	ldi	r21, 0x00	; 0
    17cc:	33 70       	andi	r19, 0x03	; 3
    17ce:	40 70       	andi	r20, 0x00	; 0
    17d0:	50 70       	andi	r21, 0x00	; 0
    17d2:	0e c0       	rjmp	.+28     	; 0x17f0 <__vector_16+0xce>
    17d4:	84 b1       	in	r24, 0x04	; 4
    17d6:	95 b1       	in	r25, 0x05	; 5
    17d8:	a0 e0       	ldi	r26, 0x00	; 0
    17da:	b0 e0       	ldi	r27, 0x00	; 0
    17dc:	93 70       	andi	r25, 0x03	; 3
    17de:	a0 70       	andi	r26, 0x00	; 0
    17e0:	b0 70       	andi	r27, 0x00	; 0
    17e2:	22 27       	eor	r18, r18
    17e4:	33 27       	eor	r19, r19
    17e6:	a9 01       	movw	r20, r18
    17e8:	28 1b       	sub	r18, r24
    17ea:	39 0b       	sbc	r19, r25
    17ec:	4a 0b       	sbc	r20, r26
    17ee:	5b 0b       	sbc	r21, r27
    17f0:	2e 0d       	add	r18, r14
    17f2:	3f 1d       	adc	r19, r15
    17f4:	40 1f       	adc	r20, r16
    17f6:	51 1f       	adc	r21, r17
    17f8:	20 93 c8 01 	sts	0x01C8, r18
    17fc:	30 93 c9 01 	sts	0x01C9, r19
    1800:	40 93 ca 01 	sts	0x01CA, r20
    1804:	50 93 cb 01 	sts	0x01CB, r21
    1808:	43 c0       	rjmp	.+134    	; 0x1890 <__vector_16+0x16e>
	}
	else 
	{
		//assignation de la valeur de mux pour la prochaine conversion
		adcNbSamplesG++;
    180a:	80 91 cc 01 	lds	r24, 0x01CC
    180e:	90 91 cd 01 	lds	r25, 0x01CD
    1812:	a0 91 ce 01 	lds	r26, 0x01CE
    1816:	b0 91 cf 01 	lds	r27, 0x01CF
    181a:	01 96       	adiw	r24, 0x01	; 1
    181c:	a1 1d       	adc	r26, r1
    181e:	b1 1d       	adc	r27, r1
    1820:	80 93 cc 01 	sts	0x01CC, r24
    1824:	90 93 cd 01 	sts	0x01CD, r25
    1828:	a0 93 ce 01 	sts	0x01CE, r26
    182c:	b0 93 cf 01 	sts	0x01CF, r27
		//addition ou soustraction de la valeur lue selon le bit de signe
		adcMoteurGAvg+=	((PINA&adcMotMskVarG)==0)? ((S32)(ADC&0x03ff)):(-(S32)(ADC&0x03ff));
    1830:	e0 90 c4 01 	lds	r14, 0x01C4
    1834:	f0 90 c5 01 	lds	r15, 0x01C5
    1838:	00 91 c6 01 	lds	r16, 0x01C6
    183c:	10 91 c7 01 	lds	r17, 0x01C7
    1840:	99 b3       	in	r25, 0x19	; 25
    1842:	80 91 da 01 	lds	r24, 0x01DA
    1846:	89 23       	and	r24, r25
    1848:	49 f4       	brne	.+18     	; 0x185c <__vector_16+0x13a>
    184a:	84 b1       	in	r24, 0x04	; 4
    184c:	95 b1       	in	r25, 0x05	; 5
    184e:	9c 01       	movw	r18, r24
    1850:	40 e0       	ldi	r20, 0x00	; 0
    1852:	50 e0       	ldi	r21, 0x00	; 0
    1854:	33 70       	andi	r19, 0x03	; 3
    1856:	40 70       	andi	r20, 0x00	; 0
    1858:	50 70       	andi	r21, 0x00	; 0
    185a:	0e c0       	rjmp	.+28     	; 0x1878 <__vector_16+0x156>
    185c:	84 b1       	in	r24, 0x04	; 4
    185e:	95 b1       	in	r25, 0x05	; 5
    1860:	a0 e0       	ldi	r26, 0x00	; 0
    1862:	b0 e0       	ldi	r27, 0x00	; 0
    1864:	93 70       	andi	r25, 0x03	; 3
    1866:	a0 70       	andi	r26, 0x00	; 0
    1868:	b0 70       	andi	r27, 0x00	; 0
    186a:	22 27       	eor	r18, r18
    186c:	33 27       	eor	r19, r19
    186e:	a9 01       	movw	r20, r18
    1870:	28 1b       	sub	r18, r24
    1872:	39 0b       	sbc	r19, r25
    1874:	4a 0b       	sbc	r20, r26
    1876:	5b 0b       	sbc	r21, r27
    1878:	2e 0d       	add	r18, r14
    187a:	3f 1d       	adc	r19, r15
    187c:	40 1f       	adc	r20, r16
    187e:	51 1f       	adc	r21, r17
    1880:	20 93 c4 01 	sts	0x01C4, r18
    1884:	30 93 c5 01 	sts	0x01C5, r19
    1888:	40 93 c6 01 	sts	0x01C6, r20
    188c:	50 93 c7 01 	sts	0x01C7, r21
	}
	OS_INT_EXIT();
    1890:	f8 94       	cli
    1892:	0e 94 99 1b 	call	0x3732	; 0x3732 <OSIntExit>
    1896:	80 91 3b 04 	lds	r24, 0x043B
    189a:	88 23       	and	r24, r24
    189c:	91 f4       	brne	.+36     	; 0x18c2 <__vector_16+0x1a0>
    189e:	df 91       	pop	r29
    18a0:	cf 91       	pop	r28
    18a2:	1f 91       	pop	r17
    18a4:	0f 91       	pop	r16
    18a6:	ff 90       	pop	r15
    18a8:	ef 90       	pop	r14
    18aa:	df 90       	pop	r13
    18ac:	cf 90       	pop	r12
    18ae:	bf 90       	pop	r11
    18b0:	af 90       	pop	r10
    18b2:	9f 90       	pop	r9
    18b4:	8f 90       	pop	r8
    18b6:	7f 90       	pop	r7
    18b8:	6f 90       	pop	r6
    18ba:	5f 90       	pop	r5
    18bc:	4f 90       	pop	r4
    18be:	3f 90       	pop	r3
    18c0:	2f 90       	pop	r2
    18c2:	ff 91       	pop	r31
    18c4:	ef 91       	pop	r30
    18c6:	bf 91       	pop	r27
    18c8:	af 91       	pop	r26
    18ca:	9f 91       	pop	r25
    18cc:	8f 91       	pop	r24
    18ce:	7f 91       	pop	r23
    18d0:	6f 91       	pop	r22
    18d2:	5f 91       	pop	r21
    18d4:	4f 91       	pop	r20
    18d6:	1f 90       	pop	r1
    18d8:	0f 90       	pop	r0
    18da:	2f 91       	pop	r18
    18dc:	2f 77       	andi	r18, 0x7F	; 127
    18de:	2f bf       	out	0x3f, r18	; 63
    18e0:	3f 91       	pop	r19
    18e2:	2f 91       	pop	r18
    18e4:	18 95       	reti

000018e6 <hwInit>:
	@des init de la direction des  ports 
*/	
void hwInit(void)
{
	//init directions leds port en sortie
	DDRB = 0xff; 
    18e6:	8f ef       	ldi	r24, 0xFF	; 255
    18e8:	87 bb       	out	0x17, r24	; 23
	//init des directions pwm/uart/dir
	DDRD = 0xfe;
    18ea:	9e ef       	ldi	r25, 0xFE	; 254
    18ec:	91 bb       	out	0x11, r25	; 17
	//init des directions pin Calib/dir/sw
	DDRA = 0x10;
    18ee:	90 e1       	ldi	r25, 0x10	; 16
    18f0:	9a bb       	out	0x1a, r25	; 26
	//eteint les leds
	PORTB=0xff;
    18f2:	88 bb       	out	0x18, r24	; 24
}
    18f4:	08 95       	ret

000018f6 <SLInit>:
	@des initialise les dels d'affichage d'état du robot
*/
void SLInit(void)
{
	
	PORTB|=LED_RUN_LED;
    18f6:	c7 9a       	sbi	0x18, 7	; 24
	PORTB&=~LED_WAIT_LED;;
    18f8:	c6 98       	cbi	0x18, 6	; 24
	PORTD|=SW_STOP_THE_MOTORS;		
    18fa:	82 b3       	in	r24, 0x12	; 18
    18fc:	8c 6c       	ori	r24, 0xCC	; 204
    18fe:	82 bb       	out	0x12, r24	; 18
}
    1900:	08 95       	ret

00001902 <SLCheckSwStatusStart>:
	@des verifie le bouton start
	@return 1 si bouton appuyer sinon 0
*/
U8 SLCheckSwStatusStart(void)
{
	if((PINA&SW_START_MSK)==0)
    1902:	ce 9b       	sbis	0x19, 6	; 25
    1904:	02 c0       	rjmp	.+4      	; 0x190a <SLCheckSwStatusStart+0x8>
    1906:	80 e0       	ldi	r24, 0x00	; 0
    1908:	08 95       	ret
	{

		PORTB|=LED_WAIT_LED;
    190a:	c6 9a       	sbi	0x18, 6	; 24
		PORTB&=~LED_RUN_LED;
    190c:	c7 98       	cbi	0x18, 7	; 24
		moteurSetMode(M_MARCHE);
    190e:	80 e0       	ldi	r24, 0x00	; 0
    1910:	0e 94 ee 07 	call	0xfdc	; 0xfdc <moteurSetMode>
    1914:	81 e0       	ldi	r24, 0x01	; 1
		return 1;
	}
	else
		return 0;

}
    1916:	08 95       	ret

00001918 <SLCheckSwStatusStop>:
	@des verifie le bouton stop
	@return 1 si bouton appuyer sinon 0 
*/
U8 SLCheckSwStatusStop(void)
{
	if((PINA&SW_STOP_MSK)==0)
    1918:	cf 9b       	sbis	0x19, 7	; 25
    191a:	02 c0       	rjmp	.+4      	; 0x1920 <SLCheckSwStatusStop+0x8>
    191c:	80 e0       	ldi	r24, 0x00	; 0
    191e:	08 95       	ret
	{
		PORTB|=LED_RUN_LED;
    1920:	c7 9a       	sbi	0x18, 7	; 24
		PORTB|=LED_COM_STATUS;
    1922:	c1 9a       	sbi	0x18, 1	; 24
		PORTB&=~LED_WAIT_LED;	
    1924:	c6 98       	cbi	0x18, 6	; 24
		PORTD|=SW_STOP_THE_MOTORS;
    1926:	82 b3       	in	r24, 0x12	; 18
    1928:	8c 6c       	ori	r24, 0xCC	; 204
    192a:	82 bb       	out	0x12, r24	; 18
		moteurSetMode(M_ARRET);
    192c:	82 e0       	ldi	r24, 0x02	; 2
    192e:	0e 94 ee 07 	call	0xfdc	; 0xfdc <moteurSetMode>
    1932:	81 e0       	ldi	r24, 0x01	; 1
		return 1;
	}
	else 
		return 0;
	
}
    1934:	08 95       	ret

00001936 <WdDisable>:
	@des desactive le watchdog
*/
void WdDisable(void)
{

	WDTCR |= (1<<WDTOE); 
    1936:	81 b5       	in	r24, 0x21	; 33
    1938:	80 61       	ori	r24, 0x10	; 16
    193a:	81 bd       	out	0x21, r24	; 33
	WDTCR &= ~(1<<WDE);
    193c:	81 b5       	in	r24, 0x21	; 33
    193e:	87 7f       	andi	r24, 0xF7	; 247
    1940:	81 bd       	out	0x21, r24	; 33
}
    1942:	08 95       	ret

00001944 <WdInit>:
	void WdInit(void)
	@des init le watchdog 
*/
void WdInit(void)
{
	WDTCR=0x07;
    1944:	87 e0       	ldi	r24, 0x07	; 7
    1946:	81 bd       	out	0x21, r24	; 33
}
    1948:	08 95       	ret

0000194a <OSIntEnter>:
*********************************************************************************************************
*/

void  OSIntEnter (void)
{
    if (OSRunning == TRUE) {
    194a:	80 91 f1 03 	lds	r24, 0x03F1
    194e:	81 30       	cpi	r24, 0x01	; 1
    1950:	39 f4       	brne	.+14     	; 0x1960 <OSIntEnter+0x16>
        if (OSIntNesting < 255u) {
    1952:	80 91 3b 04 	lds	r24, 0x043B
    1956:	8f 3f       	cpi	r24, 0xFF	; 255
    1958:	19 f0       	breq	.+6      	; 0x1960 <OSIntEnter+0x16>
            OSIntNesting++;                      /* Increment ISR nesting level                        */
    195a:	8f 5f       	subi	r24, 0xFF	; 255
    195c:	80 93 3b 04 	sts	0x043B, r24
    1960:	08 95       	ret

00001962 <OSVersion>:
*/

INT16U  OSVersion (void)
{
    return (OS_VERSION);
}
    1962:	84 e0       	ldi	r24, 0x04	; 4
    1964:	91 e0       	ldi	r25, 0x01	; 1
    1966:	08 95       	ret

00001968 <OS_EventTaskRdy>:
* Note       : This function is INTERNAL to uC/OS-II and your application should not call it.
*********************************************************************************************************
*/
#if OS_EVENT_EN > 0
INT8U  OS_EventTaskRdy (OS_EVENT *pevent, void *msg, INT8U msk)
{
    1968:	ff 92       	push	r15
    196a:	0f 93       	push	r16
    196c:	1f 93       	push	r17
    196e:	cf 93       	push	r28
    1970:	df 93       	push	r29
    1972:	ec 01       	movw	r28, r24
    1974:	8b 01       	movw	r16, r22
    1976:	f4 2e       	mov	r15, r20
    INT8U   bitx;
    INT8U   bity;
    INT8U   prio;


    y                      = OSUnMapTbl[pevent->OSEventGrp];   /* Find HPT waiting for message         */
    1978:	39 81       	ldd	r19, Y+1	; 0x01
    197a:	e3 2f       	mov	r30, r19
    197c:	f0 e0       	ldi	r31, 0x00	; 0
    197e:	e6 58       	subi	r30, 0x86	; 134
    1980:	ff 4f       	sbci	r31, 0xFF	; 255
    1982:	20 81       	ld	r18, Z
    bity                   = OSMapTbl[y];
    1984:	42 2f       	mov	r20, r18
    1986:	50 e0       	ldi	r21, 0x00	; 0
    1988:	fa 01       	movw	r30, r20
    198a:	ee 58       	subi	r30, 0x8E	; 142
    198c:	ff 4f       	sbci	r31, 0xFF	; 255
    198e:	70 81       	ld	r23, Z
    x                      = OSUnMapTbl[pevent->OSEventTbl[y]];
    1990:	dc 01       	movw	r26, r24
    1992:	a4 0f       	add	r26, r20
    1994:	b5 1f       	adc	r27, r21
    1996:	16 96       	adiw	r26, 0x06	; 6
    1998:	9c 91       	ld	r25, X
    199a:	16 97       	sbiw	r26, 0x06	; 6
    199c:	e9 2f       	mov	r30, r25
    199e:	f0 e0       	ldi	r31, 0x00	; 0
    19a0:	e6 58       	subi	r30, 0x86	; 134
    19a2:	ff 4f       	sbci	r31, 0xFF	; 255
    19a4:	80 81       	ld	r24, Z
    bitx                   = OSMapTbl[x];
    19a6:	e8 2f       	mov	r30, r24
    19a8:	f0 e0       	ldi	r31, 0x00	; 0
    19aa:	ee 58       	subi	r30, 0x8E	; 142
    19ac:	ff 4f       	sbci	r31, 0xFF	; 255
    19ae:	60 81       	ld	r22, Z
    prio                   = (INT8U)((y << 3) + x);   /* Find priority of task getting the msg         */
    19b0:	22 0f       	add	r18, r18
    19b2:	22 0f       	add	r18, r18
    19b4:	22 0f       	add	r18, r18
    19b6:	28 0f       	add	r18, r24
    pevent->OSEventTbl[y] &= ~bitx;                   /* Remove this task from the waiting list        */
    19b8:	86 2f       	mov	r24, r22
    19ba:	80 95       	com	r24
    19bc:	89 23       	and	r24, r25
    19be:	16 96       	adiw	r26, 0x06	; 6
    19c0:	8c 93       	st	X, r24
    if (pevent->OSEventTbl[y] == 0x00) {              
    19c2:	88 23       	and	r24, r24
    19c4:	21 f4       	brne	.+8      	; 0x19ce <OS_EventTaskRdy+0x66>
        pevent->OSEventGrp &= ~bity;                  /* Clr group bit if this was only task pending   */
    19c6:	87 2f       	mov	r24, r23
    19c8:	80 95       	com	r24
    19ca:	38 23       	and	r19, r24
    19cc:	39 83       	std	Y+1, r19	; 0x01
    }
    ptcb                 =  OSTCBPrioTbl[prio];       /* Point to this task's OS_TCB                   */
    19ce:	e2 2f       	mov	r30, r18
    19d0:	f0 e0       	ldi	r31, 0x00	; 0
    19d2:	ee 0f       	add	r30, r30
    19d4:	ff 1f       	adc	r31, r31
    19d6:	ee 5f       	subi	r30, 0xFE	; 254
    19d8:	f9 4f       	sbci	r31, 0xF9	; 249
    19da:	01 90       	ld	r0, Z+
    19dc:	f0 81       	ld	r31, Z
    19de:	e0 2d       	mov	r30, r0
    ptcb->OSTCBDly       =  0;                        /* Prevent OSTimeTick() from readying task       */
    19e0:	14 86       	std	Z+12, r1	; 0x0c
    19e2:	13 86       	std	Z+11, r1	; 0x0b
    ptcb->OSTCBEventPtr  = (OS_EVENT *)0;             /* Unlink ECB from this task                     */
    19e4:	17 82       	std	Z+7, r1	; 0x07
    19e6:	16 82       	std	Z+6, r1	; 0x06
#if ((OS_Q_EN > 0) && (OS_MAX_QS > 0)) || (OS_MBOX_EN > 0)
    ptcb->OSTCBMsg       = msg;                       /* Send message directly to waiting task         */
    19e8:	11 87       	std	Z+9, r17	; 0x09
    19ea:	00 87       	std	Z+8, r16	; 0x08
#else
    msg                  = msg;                       /* Prevent compiler warning if not used          */
#endif
    ptcb->OSTCBStat     &= ~msk;                      /* Clear bit associated with event type          */
    19ec:	8f 2d       	mov	r24, r15
    19ee:	80 95       	com	r24
    19f0:	95 85       	ldd	r25, Z+13	; 0x0d
    19f2:	89 23       	and	r24, r25
    19f4:	85 87       	std	Z+13, r24	; 0x0d
    if (ptcb->OSTCBStat == OS_STAT_RDY) {             /* See if task is ready (could be susp'd)        */
    19f6:	88 23       	and	r24, r24
    19f8:	59 f4       	brne	.+22     	; 0x1a10 <OS_EventTaskRdy+0xa8>
        OSRdyGrp        |=  bity;                     /* Put task in the ready to run list             */
    19fa:	80 91 35 04 	lds	r24, 0x0435
    19fe:	87 2b       	or	r24, r23
    1a00:	80 93 35 04 	sts	0x0435, r24
        OSRdyTbl[y]     |=  bitx;
    1a04:	fa 01       	movw	r30, r20
    1a06:	ea 5c       	subi	r30, 0xCA	; 202
    1a08:	fb 4f       	sbci	r31, 0xFB	; 251
    1a0a:	80 81       	ld	r24, Z
    1a0c:	68 2b       	or	r22, r24
    1a0e:	60 83       	st	Z, r22
    }
    return (prio);
}
    1a10:	82 2f       	mov	r24, r18
    1a12:	df 91       	pop	r29
    1a14:	cf 91       	pop	r28
    1a16:	1f 91       	pop	r17
    1a18:	0f 91       	pop	r16
    1a1a:	ff 90       	pop	r15
    1a1c:	08 95       	ret

00001a1e <OS_EventTaskWait>:
* Note       : This function is INTERNAL to uC/OS-II and your application should not call it.
*********************************************************************************************************
*/
#if OS_EVENT_EN > 0
void  OS_EventTaskWait (OS_EVENT *pevent)
{
    1a1e:	cf 93       	push	r28
    1a20:	df 93       	push	r29
    1a22:	ec 01       	movw	r28, r24
    INT8U  y;


    OSTCBCur->OSTCBEventPtr = pevent;            /* Store pointer to event control block in TCB        */
    1a24:	a0 91 3c 04 	lds	r26, 0x043C
    1a28:	b0 91 3d 04 	lds	r27, 0x043D
    1a2c:	17 96       	adiw	r26, 0x07	; 7
    1a2e:	9c 93       	st	X, r25
    1a30:	8e 93       	st	-X, r24
    1a32:	16 97       	sbiw	r26, 0x06	; 6
    y                       = OSTCBCur->OSTCBY;  /* Task no longer ready                               */
    OSRdyTbl[y]            &= ~OSTCBCur->OSTCBBitX;
    1a34:	50 96       	adiw	r26, 0x10	; 16
    1a36:	8c 91       	ld	r24, X
    1a38:	50 97       	sbiw	r26, 0x10	; 16
    1a3a:	28 2f       	mov	r18, r24
    1a3c:	30 e0       	ldi	r19, 0x00	; 0
    1a3e:	51 96       	adiw	r26, 0x11	; 17
    1a40:	4c 91       	ld	r20, X
    1a42:	51 97       	sbiw	r26, 0x11	; 17
    1a44:	f9 01       	movw	r30, r18
    1a46:	ea 5c       	subi	r30, 0xCA	; 202
    1a48:	fb 4f       	sbci	r31, 0xFB	; 251
    1a4a:	84 2f       	mov	r24, r20
    1a4c:	80 95       	com	r24
    1a4e:	90 81       	ld	r25, Z
    1a50:	89 23       	and	r24, r25
    1a52:	80 83       	st	Z, r24
    if (OSRdyTbl[y] == 0x00) {                   
    1a54:	88 23       	and	r24, r24
    1a56:	49 f4       	brne	.+18     	; 0x1a6a <OS_EventTaskWait+0x4c>
        OSRdyGrp &= ~OSTCBCur->OSTCBBitY;        /* Clear event grp bit if this was only task pending  */
    1a58:	52 96       	adiw	r26, 0x12	; 18
    1a5a:	9c 91       	ld	r25, X
    1a5c:	52 97       	sbiw	r26, 0x12	; 18
    1a5e:	90 95       	com	r25
    1a60:	80 91 35 04 	lds	r24, 0x0435
    1a64:	89 23       	and	r24, r25
    1a66:	80 93 35 04 	sts	0x0435, r24
    }
    pevent->OSEventTbl[OSTCBCur->OSTCBY] |= OSTCBCur->OSTCBBitX;          /* Put task in waiting list  */
    1a6a:	fe 01       	movw	r30, r28
    1a6c:	e2 0f       	add	r30, r18
    1a6e:	f3 1f       	adc	r31, r19
    1a70:	86 81       	ldd	r24, Z+6	; 0x06
    1a72:	84 2b       	or	r24, r20
    1a74:	86 83       	std	Z+6, r24	; 0x06
    pevent->OSEventGrp                   |= OSTCBCur->OSTCBBitY;
    1a76:	89 81       	ldd	r24, Y+1	; 0x01
    1a78:	52 96       	adiw	r26, 0x12	; 18
    1a7a:	9c 91       	ld	r25, X
    1a7c:	89 2b       	or	r24, r25
    1a7e:	89 83       	std	Y+1, r24	; 0x01
}
    1a80:	df 91       	pop	r29
    1a82:	cf 91       	pop	r28
    1a84:	08 95       	ret

00001a86 <OS_EventTO>:
* Note       : This function is INTERNAL to uC/OS-II and your application should not call it.
*********************************************************************************************************
*/
#if OS_EVENT_EN > 0
void  OS_EventTO (OS_EVENT *pevent)
{
    1a86:	cf 93       	push	r28
    1a88:	df 93       	push	r29
    1a8a:	ec 01       	movw	r28, r24
    INT8U  y;


    y                      = OSTCBCur->OSTCBY;
    1a8c:	a0 91 3c 04 	lds	r26, 0x043C
    1a90:	b0 91 3d 04 	lds	r27, 0x043D
    pevent->OSEventTbl[y] &= ~OSTCBCur->OSTCBBitX;
    1a94:	50 96       	adiw	r26, 0x10	; 16
    1a96:	8c 91       	ld	r24, X
    1a98:	50 97       	sbiw	r26, 0x10	; 16
    1a9a:	fe 01       	movw	r30, r28
    1a9c:	e8 0f       	add	r30, r24
    1a9e:	f1 1d       	adc	r31, r1
    1aa0:	51 96       	adiw	r26, 0x11	; 17
    1aa2:	8c 91       	ld	r24, X
    1aa4:	51 97       	sbiw	r26, 0x11	; 17
    1aa6:	80 95       	com	r24
    1aa8:	96 81       	ldd	r25, Z+6	; 0x06
    1aaa:	89 23       	and	r24, r25
    1aac:	86 83       	std	Z+6, r24	; 0x06
    if (pevent->OSEventTbl[y] == 0x00) {
    1aae:	88 23       	and	r24, r24
    1ab0:	39 f4       	brne	.+14     	; 0x1ac0 <OS_EventTO+0x3a>
        pevent->OSEventGrp &= ~OSTCBCur->OSTCBBitY;
    1ab2:	52 96       	adiw	r26, 0x12	; 18
    1ab4:	9c 91       	ld	r25, X
    1ab6:	52 97       	sbiw	r26, 0x12	; 18
    1ab8:	90 95       	com	r25
    1aba:	89 81       	ldd	r24, Y+1	; 0x01
    1abc:	89 23       	and	r24, r25
    1abe:	89 83       	std	Y+1, r24	; 0x01
    }
    OSTCBCur->OSTCBStat     = OS_STAT_RDY;       /* Set status to ready                                */
    1ac0:	1d 96       	adiw	r26, 0x0d	; 13
    1ac2:	1c 92       	st	X, r1
    1ac4:	1d 97       	sbiw	r26, 0x0d	; 13
    OSTCBCur->OSTCBEventPtr = (OS_EVENT *)0;     /* No longer waiting for event                        */
    1ac6:	17 96       	adiw	r26, 0x07	; 7
    1ac8:	1c 92       	st	X, r1
    1aca:	1e 92       	st	-X, r1
    1acc:	16 97       	sbiw	r26, 0x06	; 6
}
    1ace:	df 91       	pop	r29
    1ad0:	cf 91       	pop	r28
    1ad2:	08 95       	ret

00001ad4 <OS_EventWaitListInit>:
* Note       : This function is INTERNAL to uC/OS-II and your application should not call it.
*********************************************************************************************************
*/
#if OS_EVENT_EN > 0
void  OS_EventWaitListInit (OS_EVENT *pevent)
{
    1ad4:	fc 01       	movw	r30, r24
    INT8U  *ptbl;


    pevent->OSEventGrp = 0x00;                   /* No task waiting on event                           */
    1ad6:	11 82       	std	Z+1, r1	; 0x01
    ptbl               = &pevent->OSEventTbl[0];

#if OS_EVENT_TBL_SIZE > 0
    *ptbl++            = 0x00;
    1ad8:	16 82       	std	Z+6, r1	; 0x06
#endif

#if OS_EVENT_TBL_SIZE > 1
    *ptbl++            = 0x00;
    1ada:	17 82       	std	Z+7, r1	; 0x07
#endif

#if OS_EVENT_TBL_SIZE > 7
    *ptbl              = 0x00;
#endif
}
    1adc:	08 95       	ret

00001ade <OSFlagAccept>:
*********************************************************************************************************
*/

#if OS_FLAG_ACCEPT_EN > 0
OS_FLAGS  OSFlagAccept (OS_FLAG_GRP *pgrp, OS_FLAGS flags, INT8U wait_type, INT8U *err)
{
    1ade:	fc 01       	movw	r30, r24
    1ae0:	d9 01       	movw	r26, r18
    if (pgrp == (OS_FLAG_GRP *)0) {                        /* Validate 'pgrp'                          */
        *err = OS_FLAG_INVALID_PGRP;
        return ((OS_FLAGS)0);
    }
#endif
    if (pgrp->OSFlagType != OS_EVENT_TYPE_FLAG) {          /* Validate event block type                */
    1ae2:	80 81       	ld	r24, Z
    1ae4:	85 30       	cpi	r24, 0x05	; 5
    1ae6:	21 f0       	breq	.+8      	; 0x1af0 <OSFlagAccept+0x12>
        *err = OS_ERR_EVENT_TYPE;
    1ae8:	81 e0       	ldi	r24, 0x01	; 1
    1aea:	8c 93       	st	X, r24
    1aec:	80 e0       	ldi	r24, 0x00	; 0
    1aee:	08 95       	ret
        return ((OS_FLAGS)0);
    }
    if (wait_type & OS_FLAG_CONSUME) {                     /* See if we need to consume the flags      */
    1af0:	47 fd       	sbrc	r20, 7
    1af2:	02 c0       	rjmp	.+4      	; 0x1af8 <OSFlagAccept+0x1a>
    1af4:	20 e0       	ldi	r18, 0x00	; 0
    1af6:	02 c0       	rjmp	.+4      	; 0x1afc <OSFlagAccept+0x1e>
        wait_type &= ~OS_FLAG_CONSUME;
    1af8:	4f 77       	andi	r20, 0x7F	; 127
    1afa:	21 e0       	ldi	r18, 0x01	; 1
        consume    = TRUE;
    } else {
        consume    = FALSE;
    }
/*$PAGE*/
    *err = OS_NO_ERR;                                      /* Assume NO error until proven otherwise.  */
    1afc:	1c 92       	st	X, r1
    OS_ENTER_CRITICAL();
    1afe:	0f 93       	push	r16
    1b00:	0f b7       	in	r16, 0x3f	; 63
    1b02:	0f 93       	push	r16
    1b04:	f8 94       	cli
    switch (wait_type) {
    1b06:	41 30       	cpi	r20, 0x01	; 1
    1b08:	09 f4       	brne	.+2      	; 0x1b0c <OSFlagAccept+0x2e>
    1b0a:	3c c0       	rjmp	.+120    	; 0x1b84 <OSFlagAccept+0xa6>
    1b0c:	41 30       	cpi	r20, 0x01	; 1
    1b0e:	40 f1       	brcs	.+80     	; 0x1b60 <OSFlagAccept+0x82>
    1b10:	42 30       	cpi	r20, 0x02	; 2
    1b12:	21 f0       	breq	.+8      	; 0x1b1c <OSFlagAccept+0x3e>
    1b14:	43 30       	cpi	r20, 0x03	; 3
    1b16:	09 f0       	breq	.+2      	; 0x1b1a <OSFlagAccept+0x3c>
    1b18:	46 c0       	rjmp	.+140    	; 0x1ba6 <OSFlagAccept+0xc8>
    1b1a:	12 c0       	rjmp	.+36     	; 0x1b40 <OSFlagAccept+0x62>
        case OS_FLAG_WAIT_SET_ALL:                         /* See if all required flags are set        */
             flags_rdy = pgrp->OSFlagFlags & flags;        /* Extract only the bits we want            */
    1b1c:	93 81       	ldd	r25, Z+3	; 0x03
    1b1e:	86 2f       	mov	r24, r22
    1b20:	89 23       	and	r24, r25
             if (flags_rdy == flags) {                     /* Must match ALL the bits that we want     */
    1b22:	86 17       	cp	r24, r22
    1b24:	31 f4       	brne	.+12     	; 0x1b32 <OSFlagAccept+0x54>
                 if (consume == TRUE) {                    /* See if we need to consume the flags      */
    1b26:	21 30       	cpi	r18, 0x01	; 1
    1b28:	31 f4       	brne	.+12     	; 0x1b36 <OSFlagAccept+0x58>
                     pgrp->OSFlagFlags &= ~flags_rdy;      /* Clear ONLY the flags that we wanted      */
    1b2a:	60 95       	com	r22
    1b2c:	96 23       	and	r25, r22
    1b2e:	93 83       	std	Z+3, r25	; 0x03
    1b30:	02 c0       	rjmp	.+4      	; 0x1b36 <OSFlagAccept+0x58>
                 }
             } else {
                 *err  = OS_FLAG_ERR_NOT_RDY;
    1b32:	88 e9       	ldi	r24, 0x98	; 152
    1b34:	8c 93       	st	X, r24
             }
             flags_cur = pgrp->OSFlagFlags;                /* Will return the state of the group       */
    1b36:	83 81       	ldd	r24, Z+3	; 0x03
             OS_EXIT_CRITICAL();
    1b38:	0f 91       	pop	r16
    1b3a:	0f bf       	out	0x3f, r16	; 63
    1b3c:	0f 91       	pop	r16
    1b3e:	08 95       	ret
             break;

        case OS_FLAG_WAIT_SET_ANY:
             flags_rdy = pgrp->OSFlagFlags & flags;        /* Extract only the bits we want            */
    1b40:	83 81       	ldd	r24, Z+3	; 0x03
    1b42:	68 23       	and	r22, r24
             if (flags_rdy != (OS_FLAGS)0) {               /* See if any flag set                      */
    1b44:	31 f0       	breq	.+12     	; 0x1b52 <OSFlagAccept+0x74>
                 if (consume == TRUE) {                    /* See if we need to consume the flags      */
    1b46:	21 30       	cpi	r18, 0x01	; 1
    1b48:	31 f4       	brne	.+12     	; 0x1b56 <OSFlagAccept+0x78>
                     pgrp->OSFlagFlags &= ~flags_rdy;      /* Clear ONLY the flags that we got         */
    1b4a:	60 95       	com	r22
    1b4c:	68 23       	and	r22, r24
    1b4e:	63 83       	std	Z+3, r22	; 0x03
    1b50:	02 c0       	rjmp	.+4      	; 0x1b56 <OSFlagAccept+0x78>
                 }
             } else {
                 *err  = OS_FLAG_ERR_NOT_RDY;
    1b52:	88 e9       	ldi	r24, 0x98	; 152
    1b54:	8c 93       	st	X, r24
             }
             flags_cur = pgrp->OSFlagFlags;                /* Will return the state of the group       */
    1b56:	83 81       	ldd	r24, Z+3	; 0x03
             OS_EXIT_CRITICAL();
    1b58:	0f 91       	pop	r16
    1b5a:	0f bf       	out	0x3f, r16	; 63
    1b5c:	0f 91       	pop	r16
    1b5e:	08 95       	ret
             break;

#if OS_FLAG_WAIT_CLR_EN > 0
        case OS_FLAG_WAIT_CLR_ALL:                         /* See if all required flags are cleared    */
             flags_rdy = ~pgrp->OSFlagFlags & flags;       /* Extract only the bits we want            */
    1b60:	93 81       	ldd	r25, Z+3	; 0x03
    1b62:	89 2f       	mov	r24, r25
    1b64:	80 95       	com	r24
    1b66:	86 23       	and	r24, r22
             if (flags_rdy == flags) {                     /* Must match ALL the bits that we want     */
    1b68:	86 17       	cp	r24, r22
    1b6a:	29 f4       	brne	.+10     	; 0x1b76 <OSFlagAccept+0x98>
                 if (consume == TRUE) {                    /* See if we need to consume the flags      */
    1b6c:	21 30       	cpi	r18, 0x01	; 1
    1b6e:	29 f4       	brne	.+10     	; 0x1b7a <OSFlagAccept+0x9c>
                     pgrp->OSFlagFlags |= flags_rdy;       /* Set ONLY the flags that we wanted        */
    1b70:	96 2b       	or	r25, r22
    1b72:	93 83       	std	Z+3, r25	; 0x03
    1b74:	02 c0       	rjmp	.+4      	; 0x1b7a <OSFlagAccept+0x9c>
                 }
             } else {
                 *err  = OS_FLAG_ERR_NOT_RDY;
    1b76:	88 e9       	ldi	r24, 0x98	; 152
    1b78:	8c 93       	st	X, r24
             }
             flags_cur = pgrp->OSFlagFlags;                /* Will return the state of the group       */
    1b7a:	83 81       	ldd	r24, Z+3	; 0x03
             OS_EXIT_CRITICAL();
    1b7c:	0f 91       	pop	r16
    1b7e:	0f bf       	out	0x3f, r16	; 63
    1b80:	0f 91       	pop	r16
    1b82:	08 95       	ret
             break;

        case OS_FLAG_WAIT_CLR_ANY:
             flags_rdy = ~pgrp->OSFlagFlags & flags;       /* Extract only the bits we want            */
    1b84:	93 81       	ldd	r25, Z+3	; 0x03
    1b86:	89 2f       	mov	r24, r25
    1b88:	80 95       	com	r24
    1b8a:	86 23       	and	r24, r22
             if (flags_rdy != (OS_FLAGS)0) {               /* See if any flag cleared                  */
    1b8c:	29 f0       	breq	.+10     	; 0x1b98 <OSFlagAccept+0xba>
                 if (consume == TRUE) {                    /* See if we need to consume the flags      */
    1b8e:	21 30       	cpi	r18, 0x01	; 1
    1b90:	29 f4       	brne	.+10     	; 0x1b9c <OSFlagAccept+0xbe>
                     pgrp->OSFlagFlags |= flags_rdy;       /* Set ONLY the flags that we got           */
    1b92:	89 2b       	or	r24, r25
    1b94:	83 83       	std	Z+3, r24	; 0x03
    1b96:	02 c0       	rjmp	.+4      	; 0x1b9c <OSFlagAccept+0xbe>
                 }
             } else {
                 *err  = OS_FLAG_ERR_NOT_RDY;
    1b98:	88 e9       	ldi	r24, 0x98	; 152
    1b9a:	8c 93       	st	X, r24
             }
             flags_cur = pgrp->OSFlagFlags;                /* Will return the state of the group       */
    1b9c:	83 81       	ldd	r24, Z+3	; 0x03
             OS_EXIT_CRITICAL();
    1b9e:	0f 91       	pop	r16
    1ba0:	0f bf       	out	0x3f, r16	; 63
    1ba2:	0f 91       	pop	r16
    1ba4:	08 95       	ret
             break;
#endif

        default:
             OS_EXIT_CRITICAL();
    1ba6:	0f 91       	pop	r16
    1ba8:	0f bf       	out	0x3f, r16	; 63
    1baa:	0f 91       	pop	r16
             flags_cur = (OS_FLAGS)0;
             *err      = OS_FLAG_ERR_WAIT_TYPE;
    1bac:	87 e9       	ldi	r24, 0x97	; 151
    1bae:	8c 93       	st	X, r24
    1bb0:	80 e0       	ldi	r24, 0x00	; 0
             break;
    }
    return (flags_cur);
}
    1bb2:	08 95       	ret

00001bb4 <OSFlagCreate>:
* Called from: Task ONLY
*********************************************************************************************************
*/

OS_FLAG_GRP  *OSFlagCreate (OS_FLAGS flags, INT8U *err)
{
    1bb4:	28 2f       	mov	r18, r24
    1bb6:	db 01       	movw	r26, r22
    OS_CPU_SR    cpu_sr;
#endif
    OS_FLAG_GRP *pgrp;


    if (OSIntNesting > 0) {                         /* See if called from ISR ...                      */
    1bb8:	80 91 3b 04 	lds	r24, 0x043B
    1bbc:	88 23       	and	r24, r24
    1bbe:	29 f0       	breq	.+10     	; 0x1bca <OSFlagCreate+0x16>
        *err = OS_ERR_CREATE_ISR;                   /* ... can't CREATE from an ISR                    */
    1bc0:	8d e8       	ldi	r24, 0x8D	; 141
    1bc2:	8c 93       	st	X, r24
    1bc4:	e0 e0       	ldi	r30, 0x00	; 0
    1bc6:	f0 e0       	ldi	r31, 0x00	; 0
    1bc8:	1f c0       	rjmp	.+62     	; 0x1c08 <OSFlagCreate+0x54>
        return ((OS_FLAG_GRP *)0);
    }
    OS_ENTER_CRITICAL();
    1bca:	0f 93       	push	r16
    1bcc:	0f b7       	in	r16, 0x3f	; 63
    1bce:	0f 93       	push	r16
    1bd0:	f8 94       	cli
    pgrp = OSFlagFreeList;                          /* Get next free event flag                        */
    1bd2:	e0 91 00 06 	lds	r30, 0x0600
    1bd6:	f0 91 01 06 	lds	r31, 0x0601
    if (pgrp != (OS_FLAG_GRP *)0) {                 /* See if we have event flag groups available      */
    1bda:	30 97       	sbiw	r30, 0x00	; 0
    1bdc:	81 f0       	breq	.+32     	; 0x1bfe <OSFlagCreate+0x4a>
                                                    /* Adjust free list                                */
        OSFlagFreeList       = (OS_FLAG_GRP *)OSFlagFreeList->OSFlagWaitList;
    1bde:	81 81       	ldd	r24, Z+1	; 0x01
    1be0:	92 81       	ldd	r25, Z+2	; 0x02
    1be2:	90 93 01 06 	sts	0x0601, r25
    1be6:	80 93 00 06 	sts	0x0600, r24
        pgrp->OSFlagType     = OS_EVENT_TYPE_FLAG;  /* Set to event flag group type                    */
    1bea:	85 e0       	ldi	r24, 0x05	; 5
    1bec:	80 83       	st	Z, r24
        pgrp->OSFlagFlags    = flags;               /* Set to desired initial value                    */
    1bee:	23 83       	std	Z+3, r18	; 0x03
        pgrp->OSFlagWaitList = (void *)0;           /* Clear list of tasks waiting on flags            */
    1bf0:	12 82       	std	Z+2, r1	; 0x02
    1bf2:	11 82       	std	Z+1, r1	; 0x01
#if OS_FLAG_NAME_SIZE > 0
        (void)strcpy(pgrp->OSFlagName, "?");
#endif
        OS_EXIT_CRITICAL();
    1bf4:	0f 91       	pop	r16
    1bf6:	0f bf       	out	0x3f, r16	; 63
    1bf8:	0f 91       	pop	r16
        *err                 = OS_NO_ERR;
    1bfa:	1c 92       	st	X, r1
    1bfc:	05 c0       	rjmp	.+10     	; 0x1c08 <OSFlagCreate+0x54>
    } else {
        OS_EXIT_CRITICAL();
    1bfe:	0f 91       	pop	r16
    1c00:	0f bf       	out	0x3f, r16	; 63
    1c02:	0f 91       	pop	r16
        *err                 = OS_FLAG_GRP_DEPLETED;
    1c04:	8a e9       	ldi	r24, 0x9A	; 154
    1c06:	8c 93       	st	X, r24
    }
    return (pgrp);                                  /* Return pointer to event flag group              */
}
    1c08:	cf 01       	movw	r24, r30
    1c0a:	08 95       	ret

00001c0c <OSFlagPendGetFlagsRdy>:
    OS_CPU_SR     cpu_sr;
#endif
    OS_FLAGS      flags;


    OS_ENTER_CRITICAL();
    1c0c:	0f 93       	push	r16
    1c0e:	0f b7       	in	r16, 0x3f	; 63
    1c10:	0f 93       	push	r16
    1c12:	f8 94       	cli
    flags = OSTCBCur->OSTCBFlagsRdy;
    OS_ENTER_CRITICAL();
    1c14:	0f 93       	push	r16
    1c16:	0f b7       	in	r16, 0x3f	; 63
    1c18:	0f 93       	push	r16
    1c1a:	f8 94       	cli
    1c1c:	e0 91 3c 04 	lds	r30, 0x043C
    1c20:	f0 91 3d 04 	lds	r31, 0x043D
    return (flags);
}
    1c24:	82 85       	ldd	r24, Z+10	; 0x0a
    1c26:	08 95       	ret

00001c28 <OSFlagQuery>:
*********************************************************************************************************
*/

#if OS_FLAG_QUERY_EN > 0
OS_FLAGS  OSFlagQuery (OS_FLAG_GRP *pgrp, INT8U *err)
{
    1c28:	fc 01       	movw	r30, r24
    1c2a:	db 01       	movw	r26, r22
    if (pgrp == (OS_FLAG_GRP *)0) {               /* Validate 'pgrp'                                   */
        *err = OS_FLAG_INVALID_PGRP;
        return ((OS_FLAGS)0);
    }
#endif
    if (pgrp->OSFlagType != OS_EVENT_TYPE_FLAG) { /* Validate event block type                         */
    1c2c:	80 81       	ld	r24, Z
    1c2e:	85 30       	cpi	r24, 0x05	; 5
    1c30:	21 f0       	breq	.+8      	; 0x1c3a <OSFlagQuery+0x12>
        *err = OS_ERR_EVENT_TYPE;
    1c32:	81 e0       	ldi	r24, 0x01	; 1
    1c34:	8c 93       	st	X, r24
    1c36:	80 e0       	ldi	r24, 0x00	; 0
    1c38:	08 95       	ret
        return ((OS_FLAGS)0);
    }
    OS_ENTER_CRITICAL();
    1c3a:	0f 93       	push	r16
    1c3c:	0f b7       	in	r16, 0x3f	; 63
    1c3e:	0f 93       	push	r16
    1c40:	f8 94       	cli
    flags = pgrp->OSFlagFlags;
    1c42:	83 81       	ldd	r24, Z+3	; 0x03
    OS_EXIT_CRITICAL();
    1c44:	0f 91       	pop	r16
    1c46:	0f bf       	out	0x3f, r16	; 63
    1c48:	0f 91       	pop	r16
    *err = OS_NO_ERR;
    1c4a:	1c 92       	st	X, r1
    return (flags);                               /* Return the current value of the event flags       */
}
    1c4c:	08 95       	ret

00001c4e <OS_FlagTaskRdy>:
*              2) This function is INTERNAL to uC/OS-II and your application should not call it.
*********************************************************************************************************
*/

static  BOOLEAN  OS_FlagTaskRdy (OS_FLAG_NODE *pnode, OS_FLAGS flags_rdy)
{
    1c4e:	cf 93       	push	r28
    1c50:	df 93       	push	r29
    1c52:	ec 01       	movw	r28, r24
    OS_TCB   *ptcb;
    BOOLEAN   sched;


    ptcb                = (OS_TCB *)pnode->OSFlagNodeTCB;  /* Point to TCB of waiting task             */
    1c54:	ac 81       	ldd	r26, Y+4	; 0x04
    1c56:	bd 81       	ldd	r27, Y+5	; 0x05
    ptcb->OSTCBDly      = 0;
    1c58:	1c 96       	adiw	r26, 0x0c	; 12
    1c5a:	1c 92       	st	X, r1
    1c5c:	1e 92       	st	-X, r1
    1c5e:	1b 97       	sbiw	r26, 0x0b	; 11
    ptcb->OSTCBFlagsRdy = flags_rdy;
    1c60:	1a 96       	adiw	r26, 0x0a	; 10
    1c62:	6c 93       	st	X, r22
    1c64:	1a 97       	sbiw	r26, 0x0a	; 10
    ptcb->OSTCBStat    &= ~OS_STAT_FLAG;
    1c66:	1d 96       	adiw	r26, 0x0d	; 13
    1c68:	8c 91       	ld	r24, X
    1c6a:	1d 97       	sbiw	r26, 0x0d	; 13
    1c6c:	8f 7d       	andi	r24, 0xDF	; 223
    1c6e:	1d 96       	adiw	r26, 0x0d	; 13
    1c70:	8c 93       	st	X, r24
    1c72:	1d 97       	sbiw	r26, 0x0d	; 13
    if (ptcb->OSTCBStat == OS_STAT_RDY) {                  /* Put task into ready list                 */
    1c74:	88 23       	and	r24, r24
    1c76:	11 f0       	breq	.+4      	; 0x1c7c <OS_FlagTaskRdy+0x2e>
    1c78:	80 e0       	ldi	r24, 0x00	; 0
    1c7a:	14 c0       	rjmp	.+40     	; 0x1ca4 <OS_FlagTaskRdy+0x56>
        OSRdyGrp               |= ptcb->OSTCBBitY;
    1c7c:	80 91 35 04 	lds	r24, 0x0435
    1c80:	52 96       	adiw	r26, 0x12	; 18
    1c82:	9c 91       	ld	r25, X
    1c84:	52 97       	sbiw	r26, 0x12	; 18
    1c86:	89 2b       	or	r24, r25
    1c88:	80 93 35 04 	sts	0x0435, r24
        OSRdyTbl[ptcb->OSTCBY] |= ptcb->OSTCBBitX;
    1c8c:	50 96       	adiw	r26, 0x10	; 16
    1c8e:	ec 91       	ld	r30, X
    1c90:	50 97       	sbiw	r26, 0x10	; 16
    1c92:	f0 e0       	ldi	r31, 0x00	; 0
    1c94:	ea 5c       	subi	r30, 0xCA	; 202
    1c96:	fb 4f       	sbci	r31, 0xFB	; 251
    1c98:	80 81       	ld	r24, Z
    1c9a:	51 96       	adiw	r26, 0x11	; 17
    1c9c:	9c 91       	ld	r25, X
    1c9e:	89 2b       	or	r24, r25
    1ca0:	80 83       	st	Z, r24
    1ca2:	81 e0       	ldi	r24, 0x01	; 1
    OS_FLAG_GRP  *pgrp;
    OS_FLAG_NODE *pnode_prev;
    OS_FLAG_NODE *pnode_next;


    pnode_prev = (OS_FLAG_NODE *)pnode->OSFlagNodePrev;
    1ca4:	ea 81       	ldd	r30, Y+2	; 0x02
    1ca6:	fb 81       	ldd	r31, Y+3	; 0x03
    pnode_next = (OS_FLAG_NODE *)pnode->OSFlagNodeNext;
    1ca8:	a8 81       	ld	r26, Y
    1caa:	b9 81       	ldd	r27, Y+1	; 0x01
    if (pnode_prev == (OS_FLAG_NODE *)0) {                      /* Is it first node in wait list?      */
    1cac:	30 97       	sbiw	r30, 0x00	; 0
    1cae:	59 f4       	brne	.+22     	; 0x1cc6 <OS_FlagTaskRdy+0x78>
        pgrp                 = (OS_FLAG_GRP *)pnode->OSFlagNodeFlagGrp;
        pgrp->OSFlagWaitList = (void *)pnode_next;              /*      Update list for new 1st node   */
    1cb0:	ee 81       	ldd	r30, Y+6	; 0x06
    1cb2:	ff 81       	ldd	r31, Y+7	; 0x07
    1cb4:	b2 83       	std	Z+2, r27	; 0x02
    1cb6:	a1 83       	std	Z+1, r26	; 0x01
        if (pnode_next != (OS_FLAG_NODE *)0) {
    1cb8:	10 97       	sbiw	r26, 0x00	; 0
    1cba:	69 f0       	breq	.+26     	; 0x1cd6 <OS_FlagTaskRdy+0x88>
            pnode_next->OSFlagNodePrev = (OS_FLAG_NODE *)0;     /*      Link new 1st node PREV to NULL */
    1cbc:	13 96       	adiw	r26, 0x03	; 3
    1cbe:	1c 92       	st	X, r1
    1cc0:	1e 92       	st	-X, r1
    1cc2:	12 97       	sbiw	r26, 0x02	; 2
    1cc4:	08 c0       	rjmp	.+16     	; 0x1cd6 <OS_FlagTaskRdy+0x88>
        }
    } else {                                                    /* No,  A node somewhere in the list   */
        pnode_prev->OSFlagNodeNext = pnode_next;                /*      Link around the node to unlink */
    1cc6:	b1 83       	std	Z+1, r27	; 0x01
    1cc8:	a0 83       	st	Z, r26
        if (pnode_next != (OS_FLAG_NODE *)0) {                  /*      Was this the LAST node?        */
    1cca:	10 97       	sbiw	r26, 0x00	; 0
    1ccc:	21 f0       	breq	.+8      	; 0x1cd6 <OS_FlagTaskRdy+0x88>
            pnode_next->OSFlagNodePrev = pnode_prev;            /*      No, Link around current node   */
    1cce:	13 96       	adiw	r26, 0x03	; 3
    1cd0:	fc 93       	st	X, r31
    1cd2:	ee 93       	st	-X, r30
    1cd4:	12 97       	sbiw	r26, 0x02	; 2
    } else {
        sched                   = FALSE;
    }
    OS_FlagUnlink(pnode);
    return (sched);
}
    1cd6:	df 91       	pop	r29
    1cd8:	cf 91       	pop	r28
    1cda:	08 95       	ret

00001cdc <OS_FlagUnlink>:
*              2) This function is INTERNAL to uC/OS-II and your application should not call it.
*********************************************************************************************************
*/

void  OS_FlagUnlink (OS_FLAG_NODE *pnode)
{
    1cdc:	cf 93       	push	r28
    1cde:	df 93       	push	r29
    1ce0:	fc 01       	movw	r30, r24
    OS_FLAG_GRP  *pgrp;
    OS_FLAG_NODE *pnode_prev;
    OS_FLAG_NODE *pnode_next;


    pnode_prev = (OS_FLAG_NODE *)pnode->OSFlagNodePrev;
    1ce2:	c2 81       	ldd	r28, Z+2	; 0x02
    1ce4:	d3 81       	ldd	r29, Z+3	; 0x03
    pnode_next = (OS_FLAG_NODE *)pnode->OSFlagNodeNext;
    1ce6:	a0 81       	ld	r26, Z
    1ce8:	b1 81       	ldd	r27, Z+1	; 0x01
    if (pnode_prev == (OS_FLAG_NODE *)0) {                      /* Is it first node in wait list?      */
    1cea:	20 97       	sbiw	r28, 0x00	; 0
    1cec:	61 f4       	brne	.+24     	; 0x1d06 <OS_FlagUnlink+0x2a>
        pgrp                 = (OS_FLAG_GRP *)pnode->OSFlagNodeFlagGrp;
        pgrp->OSFlagWaitList = (void *)pnode_next;              /*      Update list for new 1st node   */
    1cee:	06 80       	ldd	r0, Z+6	; 0x06
    1cf0:	f7 81       	ldd	r31, Z+7	; 0x07
    1cf2:	e0 2d       	mov	r30, r0
    1cf4:	b2 83       	std	Z+2, r27	; 0x02
    1cf6:	a1 83       	std	Z+1, r26	; 0x01
        if (pnode_next != (OS_FLAG_NODE *)0) {
    1cf8:	10 97       	sbiw	r26, 0x00	; 0
    1cfa:	69 f0       	breq	.+26     	; 0x1d16 <OS_FlagUnlink+0x3a>
            pnode_next->OSFlagNodePrev = (OS_FLAG_NODE *)0;     /*      Link new 1st node PREV to NULL */
    1cfc:	13 96       	adiw	r26, 0x03	; 3
    1cfe:	1c 92       	st	X, r1
    1d00:	1e 92       	st	-X, r1
    1d02:	12 97       	sbiw	r26, 0x02	; 2
    1d04:	08 c0       	rjmp	.+16     	; 0x1d16 <OS_FlagUnlink+0x3a>
        }
    } else {                                                    /* No,  A node somewhere in the list   */
        pnode_prev->OSFlagNodeNext = pnode_next;                /*      Link around the node to unlink */
    1d06:	b9 83       	std	Y+1, r27	; 0x01
    1d08:	a8 83       	st	Y, r26
        if (pnode_next != (OS_FLAG_NODE *)0) {                  /*      Was this the LAST node?        */
    1d0a:	10 97       	sbiw	r26, 0x00	; 0
    1d0c:	21 f0       	breq	.+8      	; 0x1d16 <OS_FlagUnlink+0x3a>
            pnode_next->OSFlagNodePrev = pnode_prev;            /*      No, Link around current node   */
    1d0e:	13 96       	adiw	r26, 0x03	; 3
    1d10:	dc 93       	st	X, r29
    1d12:	ce 93       	st	-X, r28
    1d14:	12 97       	sbiw	r26, 0x02	; 2
    }
#if OS_TASK_DEL_EN > 0
    ptcb                = (OS_TCB *)pnode->OSFlagNodeTCB;
    ptcb->OSTCBFlagNode = (OS_FLAG_NODE *)0;
#endif
}
    1d16:	df 91       	pop	r29
    1d18:	cf 91       	pop	r28
    1d1a:	08 95       	ret

00001d1c <OSMboxAccept>:
*********************************************************************************************************
*/

#if OS_MBOX_ACCEPT_EN > 0
void  *OSMboxAccept (OS_EVENT *pevent)
{
    1d1c:	fc 01       	movw	r30, r24
#if OS_ARG_CHK_EN > 0
    if (pevent == (OS_EVENT *)0) {                        /* Validate 'pevent'                         */
        return ((void *)0);
    }
#endif
    if (pevent->OSEventType != OS_EVENT_TYPE_MBOX) {      /* Validate event block type                 */
    1d1e:	80 81       	ld	r24, Z
    1d20:	81 30       	cpi	r24, 0x01	; 1
    1d22:	19 f0       	breq	.+6      	; 0x1d2a <OSMboxAccept+0xe>
    1d24:	20 e0       	ldi	r18, 0x00	; 0
    1d26:	30 e0       	ldi	r19, 0x00	; 0
    1d28:	0b c0       	rjmp	.+22     	; 0x1d40 <OSMboxAccept+0x24>
        return ((void *)0);
    }
    OS_ENTER_CRITICAL();
    1d2a:	0f 93       	push	r16
    1d2c:	0f b7       	in	r16, 0x3f	; 63
    1d2e:	0f 93       	push	r16
    1d30:	f8 94       	cli
    msg                = pevent->OSEventPtr;
    1d32:	24 81       	ldd	r18, Z+4	; 0x04
    1d34:	35 81       	ldd	r19, Z+5	; 0x05
    pevent->OSEventPtr = (void *)0;                       /* Clear the mailbox                         */
    1d36:	15 82       	std	Z+5, r1	; 0x05
    1d38:	14 82       	std	Z+4, r1	; 0x04
    OS_EXIT_CRITICAL();
    1d3a:	0f 91       	pop	r16
    1d3c:	0f bf       	out	0x3f, r16	; 63
    1d3e:	0f 91       	pop	r16
    return (msg);                                         /* Return the message received (or NULL)     */
}
    1d40:	c9 01       	movw	r24, r18
    1d42:	08 95       	ret

00001d44 <OSMboxCreate>:
*              == (OS_EVENT *)0  if no event control blocks were available
*********************************************************************************************************
*/

OS_EVENT  *OSMboxCreate (void *msg)
{
    1d44:	9c 01       	movw	r18, r24
    OS_CPU_SR  cpu_sr;
#endif    
    OS_EVENT  *pevent;


    if (OSIntNesting > 0) {                      /* See if called from ISR ...                         */
    1d46:	80 91 3b 04 	lds	r24, 0x043B
    1d4a:	88 23       	and	r24, r24
    1d4c:	19 f0       	breq	.+6      	; 0x1d54 <OSMboxCreate+0x10>
    1d4e:	e0 e0       	ldi	r30, 0x00	; 0
    1d50:	f0 e0       	ldi	r31, 0x00	; 0
    1d52:	1e c0       	rjmp	.+60     	; 0x1d90 <OSMboxCreate+0x4c>
        return ((OS_EVENT *)0);                  /* ... can't CREATE from an ISR                       */
    }
    OS_ENTER_CRITICAL();
    1d54:	0f 93       	push	r16
    1d56:	0f b7       	in	r16, 0x3f	; 63
    1d58:	0f 93       	push	r16
    1d5a:	f8 94       	cli
    pevent = OSEventFreeList;                    /* Get next free event control block                  */
    1d5c:	e0 91 38 04 	lds	r30, 0x0438
    1d60:	f0 91 39 04 	lds	r31, 0x0439
    if (OSEventFreeList != (OS_EVENT *)0) {      /* See if pool of free ECB pool was empty             */
    1d64:	30 97       	sbiw	r30, 0x00	; 0
    1d66:	31 f0       	breq	.+12     	; 0x1d74 <OSMboxCreate+0x30>
        OSEventFreeList = (OS_EVENT *)OSEventFreeList->OSEventPtr;
    1d68:	84 81       	ldd	r24, Z+4	; 0x04
    1d6a:	95 81       	ldd	r25, Z+5	; 0x05
    1d6c:	90 93 39 04 	sts	0x0439, r25
    1d70:	80 93 38 04 	sts	0x0438, r24
    }
    OS_EXIT_CRITICAL();
    1d74:	0f 91       	pop	r16
    1d76:	0f bf       	out	0x3f, r16	; 63
    1d78:	0f 91       	pop	r16
    if (pevent != (OS_EVENT *)0) {
    1d7a:	30 97       	sbiw	r30, 0x00	; 0
    1d7c:	49 f0       	breq	.+18     	; 0x1d90 <OSMboxCreate+0x4c>
        pevent->OSEventType = OS_EVENT_TYPE_MBOX;
    1d7e:	81 e0       	ldi	r24, 0x01	; 1
    1d80:	80 83       	st	Z, r24
        pevent->OSEventCnt  = 0;
    1d82:	13 82       	std	Z+3, r1	; 0x03
    1d84:	12 82       	std	Z+2, r1	; 0x02
        pevent->OSEventPtr  = msg;               /* Deposit message in event control block             */
    1d86:	35 83       	std	Z+5, r19	; 0x05
    1d88:	24 83       	std	Z+4, r18	; 0x04
void  OS_EventWaitListInit (OS_EVENT *pevent)
{
    INT8U  *ptbl;


    pevent->OSEventGrp = 0x00;                   /* No task waiting on event                           */
    1d8a:	11 82       	std	Z+1, r1	; 0x01
    ptbl               = &pevent->OSEventTbl[0];

#if OS_EVENT_TBL_SIZE > 0
    *ptbl++            = 0x00;
    1d8c:	16 82       	std	Z+6, r1	; 0x06
#endif

#if OS_EVENT_TBL_SIZE > 1
    *ptbl++            = 0x00;
    1d8e:	17 82       	std	Z+7, r1	; 0x07
        (void)strcpy(pevent->OSEventName, "?");
#endif
        OS_EventWaitListInit(pevent);
    }
    return (pevent);                             /* Return pointer to event control block              */
}
    1d90:	cf 01       	movw	r24, r30
    1d92:	08 95       	ret

00001d94 <OSMboxQuery>:
*********************************************************************************************************
*/

#if OS_MBOX_QUERY_EN > 0
INT8U  OSMboxQuery (OS_EVENT *pevent, OS_MBOX_DATA *pdata)
{
    1d94:	fc 01       	movw	r30, r24
    1d96:	db 01       	movw	r26, r22
#if OS_ARG_CHK_EN > 0
    if (pevent == (OS_EVENT *)0) {                         /* Validate 'pevent'                        */
        return (OS_ERR_PEVENT_NULL);
    }
#endif
    if (pevent->OSEventType != OS_EVENT_TYPE_MBOX) {       /* Validate event block type                */
    1d98:	80 81       	ld	r24, Z
    1d9a:	81 30       	cpi	r24, 0x01	; 1
    1d9c:	11 f0       	breq	.+4      	; 0x1da2 <OSMboxQuery+0xe>
    1d9e:	81 e0       	ldi	r24, 0x01	; 1
    1da0:	08 95       	ret
        return (OS_ERR_EVENT_TYPE);
    }
    OS_ENTER_CRITICAL();
    1da2:	0f 93       	push	r16
    1da4:	0f b7       	in	r16, 0x3f	; 63
    1da6:	0f 93       	push	r16
    1da8:	f8 94       	cli
    pdata->OSEventGrp = pevent->OSEventGrp;                /* Copy message mailbox wait list           */
    1daa:	81 81       	ldd	r24, Z+1	; 0x01
    1dac:	14 96       	adiw	r26, 0x04	; 4
    1dae:	8c 93       	st	X, r24
    1db0:	14 97       	sbiw	r26, 0x04	; 4
    psrc              = &pevent->OSEventTbl[0];
    pdest             = &pdata->OSEventTbl[0];

#if OS_EVENT_TBL_SIZE > 0
    *pdest++          = *psrc++;
    1db2:	86 81       	ldd	r24, Z+6	; 0x06
    1db4:	12 96       	adiw	r26, 0x02	; 2
    1db6:	8c 93       	st	X, r24
    1db8:	12 97       	sbiw	r26, 0x02	; 2
#endif

#if OS_EVENT_TBL_SIZE > 1
    *pdest++          = *psrc++;
    1dba:	87 81       	ldd	r24, Z+7	; 0x07
    1dbc:	13 96       	adiw	r26, 0x03	; 3
    1dbe:	8c 93       	st	X, r24
    1dc0:	13 97       	sbiw	r26, 0x03	; 3
#endif

#if OS_EVENT_TBL_SIZE > 7
    *pdest            = *psrc;
#endif
    pdata->OSMsg = pevent->OSEventPtr;                     /* Get message from mailbox                 */
    1dc2:	84 81       	ldd	r24, Z+4	; 0x04
    1dc4:	95 81       	ldd	r25, Z+5	; 0x05
    1dc6:	8d 93       	st	X+, r24
    1dc8:	9c 93       	st	X, r25
    OS_EXIT_CRITICAL();
    1dca:	0f 91       	pop	r16
    1dcc:	0f bf       	out	0x3f, r16	; 63
    1dce:	0f 91       	pop	r16
    1dd0:	80 e0       	ldi	r24, 0x00	; 0
    return (OS_NO_ERR);
}
    1dd2:	08 95       	ret

00001dd4 <OSMutexAccept>:
*********************************************************************************************************
*/

#if OS_MUTEX_ACCEPT_EN > 0
INT8U  OSMutexAccept (OS_EVENT *pevent, INT8U *err)
{
    1dd4:	cf 93       	push	r28
    1dd6:	df 93       	push	r29
    1dd8:	dc 01       	movw	r26, r24
    1dda:	eb 01       	movw	r28, r22
#if OS_CRITICAL_METHOD == 3                            /* Allocate storage for CPU status register     */
    OS_CPU_SR  cpu_sr;
#endif    
    
    
    if (OSIntNesting > 0) {                            /* Make sure it's not called from an ISR        */
    1ddc:	80 91 3b 04 	lds	r24, 0x043B
    1de0:	88 23       	and	r24, r24
    1de2:	11 f0       	breq	.+4      	; 0x1de8 <OSMutexAccept+0x14>
        *err = OS_ERR_PEND_ISR;
    1de4:	82 e0       	ldi	r24, 0x02	; 2
    1de6:	04 c0       	rjmp	.+8      	; 0x1df0 <OSMutexAccept+0x1c>
    if (pevent == (OS_EVENT *)0) {                     /* Validate 'pevent'                            */
        *err = OS_ERR_PEVENT_NULL;
        return (0);
    }
#endif                                                     
    if (pevent->OSEventType != OS_EVENT_TYPE_MUTEX) {  /* Validate event block type                    */
    1de8:	8c 91       	ld	r24, X
    1dea:	84 30       	cpi	r24, 0x04	; 4
    1dec:	19 f0       	breq	.+6      	; 0x1df4 <OSMutexAccept+0x20>
        *err = OS_ERR_EVENT_TYPE;
    1dee:	81 e0       	ldi	r24, 0x01	; 1
    1df0:	88 83       	st	Y, r24
    1df2:	25 c0       	rjmp	.+74     	; 0x1e3e <OSMutexAccept+0x6a>
        return (0);
    }
    OS_ENTER_CRITICAL();							   /* Get value (0 or 1) of Mutex                  */
    1df4:	0f 93       	push	r16
    1df6:	0f b7       	in	r16, 0x3f	; 63
    1df8:	0f 93       	push	r16
    1dfa:	f8 94       	cli
    if ((pevent->OSEventCnt & OS_MUTEX_KEEP_LOWER_8) == OS_MUTEX_AVAILABLE) {     
    1dfc:	12 96       	adiw	r26, 0x02	; 2
    1dfe:	2d 91       	ld	r18, X+
    1e00:	3c 91       	ld	r19, X
    1e02:	13 97       	sbiw	r26, 0x03	; 3
    1e04:	2f 3f       	cpi	r18, 0xFF	; 255
    1e06:	b9 f4       	brne	.+46     	; 0x1e36 <OSMutexAccept+0x62>
        pevent->OSEventCnt &= OS_MUTEX_KEEP_UPPER_8;   /*      Mask off LSByte (Acquire Mutex)         */
        pevent->OSEventCnt |= OSTCBCur->OSTCBPrio;     /*      Save current task priority in LSByte    */
    1e08:	e0 91 3c 04 	lds	r30, 0x043C
    1e0c:	f0 91 3d 04 	lds	r31, 0x043D
    1e10:	86 85       	ldd	r24, Z+14	; 0x0e
    1e12:	90 e0       	ldi	r25, 0x00	; 0
    1e14:	20 70       	andi	r18, 0x00	; 0
    1e16:	82 2b       	or	r24, r18
    1e18:	93 2b       	or	r25, r19
    1e1a:	13 96       	adiw	r26, 0x03	; 3
    1e1c:	9c 93       	st	X, r25
    1e1e:	8e 93       	st	-X, r24
    1e20:	12 97       	sbiw	r26, 0x02	; 2
        pevent->OSEventPtr  = (void *)OSTCBCur;        /*      Link TCB of task owning Mutex           */
    1e22:	15 96       	adiw	r26, 0x05	; 5
    1e24:	fc 93       	st	X, r31
    1e26:	ee 93       	st	-X, r30
    1e28:	14 97       	sbiw	r26, 0x04	; 4
        OS_EXIT_CRITICAL();
    1e2a:	0f 91       	pop	r16
    1e2c:	0f bf       	out	0x3f, r16	; 63
    1e2e:	0f 91       	pop	r16
        *err = OS_NO_ERR;
    1e30:	18 82       	st	Y, r1
    1e32:	81 e0       	ldi	r24, 0x01	; 1
    1e34:	05 c0       	rjmp	.+10     	; 0x1e40 <OSMutexAccept+0x6c>
        return (1);
    }
    OS_EXIT_CRITICAL();
    1e36:	0f 91       	pop	r16
    1e38:	0f bf       	out	0x3f, r16	; 63
    1e3a:	0f 91       	pop	r16
    *err = OS_NO_ERR;
    1e3c:	18 82       	st	Y, r1
    1e3e:	80 e0       	ldi	r24, 0x00	; 0
    return (0);
}
    1e40:	df 91       	pop	r29
    1e42:	cf 91       	pop	r28
    1e44:	08 95       	ret

00001e46 <OSMutexCreate>:
*                 to use to reduce priority inversion.
*********************************************************************************************************
*/

OS_EVENT  *OSMutexCreate (INT8U prio, INT8U *err)
{
    1e46:	cf 93       	push	r28
    1e48:	df 93       	push	r29
    1e4a:	28 2f       	mov	r18, r24
    1e4c:	eb 01       	movw	r28, r22
    OS_CPU_SR  cpu_sr;
#endif    
    OS_EVENT  *pevent;


    if (OSIntNesting > 0) {                                /* See if called from ISR ...               */
    1e4e:	80 91 3b 04 	lds	r24, 0x043B
    1e52:	88 23       	and	r24, r24
    1e54:	11 f0       	breq	.+4      	; 0x1e5a <OSMutexCreate+0x14>
        *err = OS_ERR_CREATE_ISR;                          /* ... can't CREATE mutex from an ISR       */
    1e56:	8d e8       	ldi	r24, 0x8D	; 141
    1e58:	12 c0       	rjmp	.+36     	; 0x1e7e <OSMutexCreate+0x38>
    if (prio >= OS_LOWEST_PRIO) {                          /* Validate PIP                             */
        *err = OS_PRIO_INVALID;
        return ((OS_EVENT *)0);
    }
#endif
    OS_ENTER_CRITICAL();
    1e5a:	0f 93       	push	r16
    1e5c:	0f b7       	in	r16, 0x3f	; 63
    1e5e:	0f 93       	push	r16
    1e60:	f8 94       	cli
    if (OSTCBPrioTbl[prio] != (OS_TCB *)0) {               /* Mutex priority must not already exist    */
    1e62:	e2 2f       	mov	r30, r18
    1e64:	f0 e0       	ldi	r31, 0x00	; 0
    1e66:	ee 0f       	add	r30, r30
    1e68:	ff 1f       	adc	r31, r31
    1e6a:	ee 5f       	subi	r30, 0xFE	; 254
    1e6c:	f9 4f       	sbci	r31, 0xF9	; 249
    1e6e:	80 81       	ld	r24, Z
    1e70:	91 81       	ldd	r25, Z+1	; 0x01
    1e72:	89 2b       	or	r24, r25
    1e74:	41 f0       	breq	.+16     	; 0x1e86 <OSMutexCreate+0x40>
        OS_EXIT_CRITICAL();                                /* Task already exist at priority ...       */
    1e76:	0f 91       	pop	r16
    1e78:	0f bf       	out	0x3f, r16	; 63
    1e7a:	0f 91       	pop	r16
        *err = OS_PRIO_EXIST;                              /* ... inheritance priority                 */
    1e7c:	88 e2       	ldi	r24, 0x28	; 40
    1e7e:	88 83       	st	Y, r24
    1e80:	a0 e0       	ldi	r26, 0x00	; 0
    1e82:	b0 e0       	ldi	r27, 0x00	; 0
    1e84:	34 c0       	rjmp	.+104    	; 0x1eee <OSMutexCreate+0xa8>
        return ((OS_EVENT *)0);                            
    }
    OSTCBPrioTbl[prio] = (OS_TCB *)1;                      /* Reserve the table entry                  */
    1e86:	81 e0       	ldi	r24, 0x01	; 1
    1e88:	90 e0       	ldi	r25, 0x00	; 0
    1e8a:	91 83       	std	Z+1, r25	; 0x01
    1e8c:	80 83       	st	Z, r24
    pevent             = OSEventFreeList;                  /* Get next free event control block        */
    1e8e:	a0 91 38 04 	lds	r26, 0x0438
    1e92:	b0 91 39 04 	lds	r27, 0x0439
    if (pevent == (OS_EVENT *)0) {                         /* See if an ECB was available              */
    1e96:	10 97       	sbiw	r26, 0x00	; 0
    1e98:	41 f4       	brne	.+16     	; 0x1eaa <OSMutexCreate+0x64>
        OSTCBPrioTbl[prio] = (OS_TCB *)0;                  /* No, Release the table entry              */
    1e9a:	11 82       	std	Z+1, r1	; 0x01
    1e9c:	10 82       	st	Z, r1
        OS_EXIT_CRITICAL();
    1e9e:	0f 91       	pop	r16
    1ea0:	0f bf       	out	0x3f, r16	; 63
    1ea2:	0f 91       	pop	r16
        *err               = OS_ERR_PEVENT_NULL;           /* No more event control blocks             */
    1ea4:	84 e0       	ldi	r24, 0x04	; 4
    1ea6:	88 83       	st	Y, r24
    1ea8:	22 c0       	rjmp	.+68     	; 0x1eee <OSMutexCreate+0xa8>
        return (pevent);
    }
    OSEventFreeList     = (OS_EVENT *)OSEventFreeList->OSEventPtr;   /* Adjust the free list           */
    1eaa:	14 96       	adiw	r26, 0x04	; 4
    1eac:	8d 91       	ld	r24, X+
    1eae:	9c 91       	ld	r25, X
    1eb0:	15 97       	sbiw	r26, 0x05	; 5
    1eb2:	90 93 39 04 	sts	0x0439, r25
    1eb6:	80 93 38 04 	sts	0x0438, r24
    OS_EXIT_CRITICAL();
    1eba:	0f 91       	pop	r16
    1ebc:	0f bf       	out	0x3f, r16	; 63
    1ebe:	0f 91       	pop	r16
    pevent->OSEventType = OS_EVENT_TYPE_MUTEX;
    1ec0:	84 e0       	ldi	r24, 0x04	; 4
    1ec2:	8c 93       	st	X, r24
    pevent->OSEventCnt  = ((INT16U)prio << 8) | OS_MUTEX_AVAILABLE;  /* Resource is available          */
    1ec4:	92 2f       	mov	r25, r18
    1ec6:	80 e0       	ldi	r24, 0x00	; 0
    1ec8:	8f 6f       	ori	r24, 0xFF	; 255
    1eca:	13 96       	adiw	r26, 0x03	; 3
    1ecc:	9c 93       	st	X, r25
    1ece:	8e 93       	st	-X, r24
    1ed0:	12 97       	sbiw	r26, 0x02	; 2
    pevent->OSEventPtr  = (void *)0;                                 /* No task owning the mutex       */
    1ed2:	15 96       	adiw	r26, 0x05	; 5
    1ed4:	1c 92       	st	X, r1
    1ed6:	1e 92       	st	-X, r1
    1ed8:	14 97       	sbiw	r26, 0x04	; 4
void  OS_EventWaitListInit (OS_EVENT *pevent)
{
    INT8U  *ptbl;


    pevent->OSEventGrp = 0x00;                   /* No task waiting on event                           */
    1eda:	11 96       	adiw	r26, 0x01	; 1
    1edc:	1c 92       	st	X, r1
    1ede:	11 97       	sbiw	r26, 0x01	; 1
    ptbl               = &pevent->OSEventTbl[0];

#if OS_EVENT_TBL_SIZE > 0
    *ptbl++            = 0x00;
    1ee0:	16 96       	adiw	r26, 0x06	; 6
    1ee2:	1c 92       	st	X, r1
    1ee4:	16 97       	sbiw	r26, 0x06	; 6
#endif

#if OS_EVENT_TBL_SIZE > 1
    *ptbl++            = 0x00;
    1ee6:	17 96       	adiw	r26, 0x07	; 7
    1ee8:	1c 92       	st	X, r1
    1eea:	17 97       	sbiw	r26, 0x07	; 7
#if OS_EVENT_NAME_SIZE > 0
    (void)strcpy(pevent->OSEventName, "?");
#endif
    OS_EventWaitListInit(pevent);
    *err                = OS_NO_ERR;
    1eec:	18 82       	st	Y, r1
    return (pevent);
}
    1eee:	cd 01       	movw	r24, r26
    1ef0:	df 91       	pop	r29
    1ef2:	cf 91       	pop	r28
    1ef4:	08 95       	ret

00001ef6 <OSMutexQuery>:
*********************************************************************************************************
*/

#if OS_MUTEX_QUERY_EN > 0
INT8U  OSMutexQuery (OS_EVENT *pevent, OS_MUTEX_DATA *pdata)
{
    1ef6:	dc 01       	movw	r26, r24
    1ef8:	fb 01       	movw	r30, r22
#endif    
    INT8U     *psrc;
    INT8U     *pdest;


    if (OSIntNesting > 0) {                                /* See if called from ISR ...               */
    1efa:	80 91 3b 04 	lds	r24, 0x043B
    1efe:	88 23       	and	r24, r24
    1f00:	11 f0       	breq	.+4      	; 0x1f06 <OSMutexQuery+0x10>
    1f02:	86 e0       	ldi	r24, 0x06	; 6
    1f04:	08 95       	ret
#if OS_ARG_CHK_EN > 0
    if (pevent == (OS_EVENT *)0) {                         /* Validate 'pevent'                        */
        return (OS_ERR_PEVENT_NULL);
    }
#endif
    if (pevent->OSEventType != OS_EVENT_TYPE_MUTEX) {      /* Validate event block type                */
    1f06:	8c 91       	ld	r24, X
    1f08:	84 30       	cpi	r24, 0x04	; 4
    1f0a:	11 f0       	breq	.+4      	; 0x1f10 <OSMutexQuery+0x1a>
    1f0c:	81 e0       	ldi	r24, 0x01	; 1
    1f0e:	08 95       	ret
        return (OS_ERR_EVENT_TYPE);
    }
    OS_ENTER_CRITICAL();
    1f10:	0f 93       	push	r16
    1f12:	0f b7       	in	r16, 0x3f	; 63
    1f14:	0f 93       	push	r16
    1f16:	f8 94       	cli
    pdata->OSMutexPIP  = (INT8U)(pevent->OSEventCnt >> 8);
    1f18:	12 96       	adiw	r26, 0x02	; 2
    1f1a:	9c 91       	ld	r25, X
    1f1c:	12 97       	sbiw	r26, 0x02	; 2
    1f1e:	13 96       	adiw	r26, 0x03	; 3
    1f20:	8c 91       	ld	r24, X
    1f22:	13 97       	sbiw	r26, 0x03	; 3
    1f24:	85 83       	std	Z+5, r24	; 0x05
    pdata->OSOwnerPrio = (INT8U)(pevent->OSEventCnt & OS_MUTEX_KEEP_LOWER_8);
    1f26:	94 83       	std	Z+4, r25	; 0x04
    if (pdata->OSOwnerPrio == 0xFF) {
    1f28:	9f 3f       	cpi	r25, 0xFF	; 255
    1f2a:	19 f4       	brne	.+6      	; 0x1f32 <OSMutexQuery+0x3c>
        pdata->OSValue = 1;
    1f2c:	81 e0       	ldi	r24, 0x01	; 1
    1f2e:	83 83       	std	Z+3, r24	; 0x03
    1f30:	01 c0       	rjmp	.+2      	; 0x1f34 <OSMutexQuery+0x3e>
    } else {
        pdata->OSValue = 0;
    1f32:	13 82       	std	Z+3, r1	; 0x03
    }
    pdata->OSEventGrp  = pevent->OSEventGrp;               /* Copy wait list                           */
    1f34:	11 96       	adiw	r26, 0x01	; 1
    1f36:	8c 91       	ld	r24, X
    1f38:	11 97       	sbiw	r26, 0x01	; 1
    1f3a:	82 83       	std	Z+2, r24	; 0x02
    psrc               = &pevent->OSEventTbl[0];
    pdest              = &pdata->OSEventTbl[0];
#if OS_EVENT_TBL_SIZE > 0
    *pdest++           = *psrc++;
    1f3c:	16 96       	adiw	r26, 0x06	; 6
    1f3e:	8c 91       	ld	r24, X
    1f40:	16 97       	sbiw	r26, 0x06	; 6
    1f42:	80 83       	st	Z, r24
#endif

#if OS_EVENT_TBL_SIZE > 1
    *pdest++           = *psrc++;
    1f44:	17 96       	adiw	r26, 0x07	; 7
    1f46:	8c 91       	ld	r24, X
    1f48:	81 83       	std	Z+1, r24	; 0x01
#endif

#if OS_EVENT_TBL_SIZE > 7
    *pdest             = *psrc;
#endif
    OS_EXIT_CRITICAL();
    1f4a:	0f 91       	pop	r16
    1f4c:	0f bf       	out	0x3f, r16	; 63
    1f4e:	0f 91       	pop	r16
    1f50:	80 e0       	ldi	r24, 0x00	; 0
    return (OS_NO_ERR);
}
    1f52:	08 95       	ret

00001f54 <OSQAccept>:
*********************************************************************************************************
*/

#if OS_Q_ACCEPT_EN > 0
void  *OSQAccept (OS_EVENT *pevent, INT8U *err)
{
    1f54:	cf 93       	push	r28
    1f56:	df 93       	push	r29
    1f58:	fc 01       	movw	r30, r24
    1f5a:	eb 01       	movw	r28, r22
    if (pevent == (OS_EVENT *)0) {               /* Validate 'pevent'                                  */
        *err = OS_ERR_PEVENT_NULL;
        return ((void *)0);
    }
#endif
    if (pevent->OSEventType != OS_EVENT_TYPE_Q) {/* Validate event block type                          */
    1f5c:	80 81       	ld	r24, Z
    1f5e:	82 30       	cpi	r24, 0x02	; 2
    1f60:	29 f0       	breq	.+10     	; 0x1f6c <OSQAccept+0x18>
        *err = OS_ERR_EVENT_TYPE;
    1f62:	81 e0       	ldi	r24, 0x01	; 1
    1f64:	88 83       	st	Y, r24
    1f66:	20 e0       	ldi	r18, 0x00	; 0
    1f68:	30 e0       	ldi	r19, 0x00	; 0
    1f6a:	33 c0       	rjmp	.+102    	; 0x1fd2 <OSQAccept+0x7e>
        return ((void *)0);
    }
    OS_ENTER_CRITICAL();
    1f6c:	0f 93       	push	r16
    1f6e:	0f b7       	in	r16, 0x3f	; 63
    1f70:	0f 93       	push	r16
    1f72:	f8 94       	cli
    pq = (OS_Q *)pevent->OSEventPtr;             /* Point at queue control block                       */
    1f74:	a4 81       	ldd	r26, Z+4	; 0x04
    1f76:	b5 81       	ldd	r27, Z+5	; 0x05
    if (pq->OSQEntries > 0) {                    /* See if any messages in the queue                   */
    1f78:	1c 96       	adiw	r26, 0x0c	; 12
    1f7a:	8d 91       	ld	r24, X+
    1f7c:	9c 91       	ld	r25, X
    1f7e:	1d 97       	sbiw	r26, 0x0d	; 13
    1f80:	00 97       	sbiw	r24, 0x00	; 0
    1f82:	01 f1       	breq	.+64     	; 0x1fc4 <OSQAccept+0x70>
        msg = *pq->OSQOut++;                     /* Yes, extract oldest message from the queue         */
    1f84:	18 96       	adiw	r26, 0x08	; 8
    1f86:	ed 91       	ld	r30, X+
    1f88:	fc 91       	ld	r31, X
    1f8a:	19 97       	sbiw	r26, 0x09	; 9
    1f8c:	21 91       	ld	r18, Z+
    1f8e:	31 91       	ld	r19, Z+
    1f90:	19 96       	adiw	r26, 0x09	; 9
    1f92:	fc 93       	st	X, r31
    1f94:	ee 93       	st	-X, r30
    1f96:	18 97       	sbiw	r26, 0x08	; 8
        pq->OSQEntries--;                        /* Update the number of entries in the queue          */
    1f98:	01 97       	sbiw	r24, 0x01	; 1
    1f9a:	1d 96       	adiw	r26, 0x0d	; 13
    1f9c:	9c 93       	st	X, r25
    1f9e:	8e 93       	st	-X, r24
    1fa0:	1c 97       	sbiw	r26, 0x0c	; 12
        if (pq->OSQOut == pq->OSQEnd) {          /* Wrap OUT pointer if we are at the end of the queue */
    1fa2:	14 96       	adiw	r26, 0x04	; 4
    1fa4:	8d 91       	ld	r24, X+
    1fa6:	9c 91       	ld	r25, X
    1fa8:	15 97       	sbiw	r26, 0x05	; 5
    1faa:	e8 17       	cp	r30, r24
    1fac:	f9 07       	cpc	r31, r25
    1fae:	41 f4       	brne	.+16     	; 0x1fc0 <OSQAccept+0x6c>
            pq->OSQOut = pq->OSQStart;
    1fb0:	12 96       	adiw	r26, 0x02	; 2
    1fb2:	8d 91       	ld	r24, X+
    1fb4:	9c 91       	ld	r25, X
    1fb6:	13 97       	sbiw	r26, 0x03	; 3
    1fb8:	19 96       	adiw	r26, 0x09	; 9
    1fba:	9c 93       	st	X, r25
    1fbc:	8e 93       	st	-X, r24
    1fbe:	18 97       	sbiw	r26, 0x08	; 8
        }
        *err = OS_NO_ERR;
    1fc0:	18 82       	st	Y, r1
    1fc2:	04 c0       	rjmp	.+8      	; 0x1fcc <OSQAccept+0x78>
    } else {
        *err = OS_Q_EMPTY;
    1fc4:	8f e1       	ldi	r24, 0x1F	; 31
    1fc6:	88 83       	st	Y, r24
    1fc8:	20 e0       	ldi	r18, 0x00	; 0
    1fca:	30 e0       	ldi	r19, 0x00	; 0
        msg  = (void *)0;                        /* Queue is empty                                     */
    }
    OS_EXIT_CRITICAL();
    1fcc:	0f 91       	pop	r16
    1fce:	0f bf       	out	0x3f, r16	; 63
    1fd0:	0f 91       	pop	r16
    return (msg);                                /* Return message received (or NULL)                  */
}
    1fd2:	c9 01       	movw	r24, r18
    1fd4:	df 91       	pop	r29
    1fd6:	cf 91       	pop	r28
    1fd8:	08 95       	ret

00001fda <OSQCreate>:
*              == (OS_EVENT *)0  if no event control blocks were available or an error was detected
*********************************************************************************************************
*/

OS_EVENT  *OSQCreate (void **start, INT16U size)
{
    1fda:	9c 01       	movw	r18, r24
#endif
    OS_EVENT  *pevent;
    OS_Q      *pq;


    if (OSIntNesting > 0) {                      /* See if called from ISR ...                         */
    1fdc:	80 91 3b 04 	lds	r24, 0x043B
    1fe0:	88 23       	and	r24, r24
    1fe2:	09 f0       	breq	.+2      	; 0x1fe6 <OSQCreate+0xc>
    1fe4:	5f c0       	rjmp	.+190    	; 0x20a4 <OSQCreate+0xca>
        return ((OS_EVENT *)0);                  /* ... can't CREATE from an ISR                       */
    }
    OS_ENTER_CRITICAL();
    1fe6:	0f 93       	push	r16
    1fe8:	0f b7       	in	r16, 0x3f	; 63
    1fea:	0f 93       	push	r16
    1fec:	f8 94       	cli
    pevent = OSEventFreeList;                    /* Get next free event control block                  */
    1fee:	a0 91 38 04 	lds	r26, 0x0438
    1ff2:	b0 91 39 04 	lds	r27, 0x0439
    if (OSEventFreeList != (OS_EVENT *)0) {      /* See if pool of free ECB pool was empty             */
    1ff6:	10 97       	sbiw	r26, 0x00	; 0
    1ff8:	41 f0       	breq	.+16     	; 0x200a <OSQCreate+0x30>
        OSEventFreeList = (OS_EVENT *)OSEventFreeList->OSEventPtr;
    1ffa:	14 96       	adiw	r26, 0x04	; 4
    1ffc:	8d 91       	ld	r24, X+
    1ffe:	9c 91       	ld	r25, X
    2000:	15 97       	sbiw	r26, 0x05	; 5
    2002:	90 93 39 04 	sts	0x0439, r25
    2006:	80 93 38 04 	sts	0x0438, r24
    }
    OS_EXIT_CRITICAL();
    200a:	0f 91       	pop	r16
    200c:	0f bf       	out	0x3f, r16	; 63
    200e:	0f 91       	pop	r16
    if (pevent != (OS_EVENT *)0) {               /* See if we have an event control block              */
    2010:	10 97       	sbiw	r26, 0x00	; 0
    2012:	09 f4       	brne	.+2      	; 0x2016 <OSQCreate+0x3c>
    2014:	49 c0       	rjmp	.+146    	; 0x20a8 <OSQCreate+0xce>
        OS_ENTER_CRITICAL();
    2016:	0f 93       	push	r16
    2018:	0f b7       	in	r16, 0x3f	; 63
    201a:	0f 93       	push	r16
    201c:	f8 94       	cli
        pq = OSQFreeList;                        /* Get a free queue control block                     */
    201e:	e0 91 33 04 	lds	r30, 0x0433
    2022:	f0 91 34 04 	lds	r31, 0x0434
        if (pq != (OS_Q *)0) {                   /* Were we able to get a queue control block ?        */
    2026:	30 97       	sbiw	r30, 0x00	; 0
    2028:	71 f1       	breq	.+92     	; 0x2086 <OSQCreate+0xac>
            OSQFreeList         = OSQFreeList->OSQPtr;    /* Yes, Adjust free list pointer to next free*/
    202a:	80 81       	ld	r24, Z
    202c:	91 81       	ldd	r25, Z+1	; 0x01
    202e:	90 93 34 04 	sts	0x0434, r25
    2032:	80 93 33 04 	sts	0x0433, r24
            OS_EXIT_CRITICAL();
    2036:	0f 91       	pop	r16
    2038:	0f bf       	out	0x3f, r16	; 63
    203a:	0f 91       	pop	r16
            pq->OSQStart        = start;                  /*      Initialize the queue                 */
    203c:	33 83       	std	Z+3, r19	; 0x03
    203e:	22 83       	std	Z+2, r18	; 0x02
            pq->OSQEnd          = &start[size];
    2040:	cb 01       	movw	r24, r22
    2042:	88 0f       	add	r24, r24
    2044:	99 1f       	adc	r25, r25
    2046:	82 0f       	add	r24, r18
    2048:	93 1f       	adc	r25, r19
    204a:	95 83       	std	Z+5, r25	; 0x05
    204c:	84 83       	std	Z+4, r24	; 0x04
            pq->OSQIn           = start;
    204e:	37 83       	std	Z+7, r19	; 0x07
    2050:	26 83       	std	Z+6, r18	; 0x06
            pq->OSQOut          = start;
    2052:	31 87       	std	Z+9, r19	; 0x09
    2054:	20 87       	std	Z+8, r18	; 0x08
            pq->OSQSize         = size;
    2056:	73 87       	std	Z+11, r23	; 0x0b
    2058:	62 87       	std	Z+10, r22	; 0x0a
            pq->OSQEntries      = 0;
    205a:	15 86       	std	Z+13, r1	; 0x0d
    205c:	14 86       	std	Z+12, r1	; 0x0c
            pevent->OSEventType = OS_EVENT_TYPE_Q;
    205e:	82 e0       	ldi	r24, 0x02	; 2
    2060:	8c 93       	st	X, r24
            pevent->OSEventCnt  = 0;
    2062:	13 96       	adiw	r26, 0x03	; 3
    2064:	1c 92       	st	X, r1
    2066:	1e 92       	st	-X, r1
    2068:	12 97       	sbiw	r26, 0x02	; 2
            pevent->OSEventPtr  = pq;
    206a:	15 96       	adiw	r26, 0x05	; 5
    206c:	fc 93       	st	X, r31
    206e:	ee 93       	st	-X, r30
    2070:	14 97       	sbiw	r26, 0x04	; 4
void  OS_EventWaitListInit (OS_EVENT *pevent)
{
    INT8U  *ptbl;


    pevent->OSEventGrp = 0x00;                   /* No task waiting on event                           */
    2072:	11 96       	adiw	r26, 0x01	; 1
    2074:	1c 92       	st	X, r1
    2076:	11 97       	sbiw	r26, 0x01	; 1
    ptbl               = &pevent->OSEventTbl[0];

#if OS_EVENT_TBL_SIZE > 0
    *ptbl++            = 0x00;
    2078:	16 96       	adiw	r26, 0x06	; 6
    207a:	1c 92       	st	X, r1
    207c:	16 97       	sbiw	r26, 0x06	; 6
#endif

#if OS_EVENT_TBL_SIZE > 1
    *ptbl++            = 0x00;
    207e:	17 96       	adiw	r26, 0x07	; 7
    2080:	1c 92       	st	X, r1
    2082:	17 97       	sbiw	r26, 0x07	; 7
    2084:	11 c0       	rjmp	.+34     	; 0x20a8 <OSQCreate+0xce>
#if OS_EVENT_NAME_SIZE > 0
            (void)strcpy(pevent->OSEventName, "?");
#endif
            OS_EventWaitListInit(pevent);                 /*      Initalize the wait list              */
        } else {
            pevent->OSEventPtr = (void *)OSEventFreeList; /* No,  Return event control block on error  */
    2086:	80 91 38 04 	lds	r24, 0x0438
    208a:	90 91 39 04 	lds	r25, 0x0439
    208e:	15 96       	adiw	r26, 0x05	; 5
    2090:	9c 93       	st	X, r25
    2092:	8e 93       	st	-X, r24
    2094:	14 97       	sbiw	r26, 0x04	; 4
            OSEventFreeList    = pevent;
    2096:	b0 93 39 04 	sts	0x0439, r27
    209a:	a0 93 38 04 	sts	0x0438, r26
            OS_EXIT_CRITICAL();
    209e:	0f 91       	pop	r16
    20a0:	0f bf       	out	0x3f, r16	; 63
    20a2:	0f 91       	pop	r16
    20a4:	a0 e0       	ldi	r26, 0x00	; 0
    20a6:	b0 e0       	ldi	r27, 0x00	; 0
            pevent = (OS_EVENT *)0;
        }
    }
    return (pevent);
}
    20a8:	cd 01       	movw	r24, r26
    20aa:	08 95       	ret

000020ac <OSQFlush>:
*********************************************************************************************************
*/

#if OS_Q_FLUSH_EN > 0
INT8U  OSQFlush (OS_EVENT *pevent)
{
    20ac:	fc 01       	movw	r30, r24
    }
    if (pevent->OSEventType != OS_EVENT_TYPE_Q) {     /* Validate event block type                     */
        return (OS_ERR_EVENT_TYPE);
    }
#endif
    OS_ENTER_CRITICAL();
    20ae:	0f 93       	push	r16
    20b0:	0f b7       	in	r16, 0x3f	; 63
    20b2:	0f 93       	push	r16
    20b4:	f8 94       	cli
    pq             = (OS_Q *)pevent->OSEventPtr;      /* Point to queue storage structure              */
    20b6:	04 80       	ldd	r0, Z+4	; 0x04
    20b8:	f5 81       	ldd	r31, Z+5	; 0x05
    20ba:	e0 2d       	mov	r30, r0
    pq->OSQIn      = pq->OSQStart;
    20bc:	82 81       	ldd	r24, Z+2	; 0x02
    20be:	93 81       	ldd	r25, Z+3	; 0x03
    20c0:	97 83       	std	Z+7, r25	; 0x07
    20c2:	86 83       	std	Z+6, r24	; 0x06
    pq->OSQOut     = pq->OSQStart;
    20c4:	91 87       	std	Z+9, r25	; 0x09
    20c6:	80 87       	std	Z+8, r24	; 0x08
    pq->OSQEntries = 0;
    20c8:	15 86       	std	Z+13, r1	; 0x0d
    20ca:	14 86       	std	Z+12, r1	; 0x0c
    OS_EXIT_CRITICAL();
    20cc:	0f 91       	pop	r16
    20ce:	0f bf       	out	0x3f, r16	; 63
    20d0:	0f 91       	pop	r16
    return (OS_NO_ERR);
}
    20d2:	80 e0       	ldi	r24, 0x00	; 0
    20d4:	08 95       	ret

000020d6 <OSQQuery>:
*********************************************************************************************************
*/

#if OS_Q_QUERY_EN > 0
INT8U  OSQQuery (OS_EVENT *pevent, OS_Q_DATA *pdata)
{
    20d6:	cf 93       	push	r28
    20d8:	df 93       	push	r29
    20da:	fc 01       	movw	r30, r24
    20dc:	db 01       	movw	r26, r22
#if OS_ARG_CHK_EN > 0
    if (pevent == (OS_EVENT *)0) {                         /* Validate 'pevent'                        */
        return (OS_ERR_PEVENT_NULL);
    }
#endif
    if (pevent->OSEventType != OS_EVENT_TYPE_Q) {          /* Validate event block type                */
    20de:	80 81       	ld	r24, Z
    20e0:	82 30       	cpi	r24, 0x02	; 2
    20e2:	11 f0       	breq	.+4      	; 0x20e8 <OSQQuery+0x12>
    20e4:	81 e0       	ldi	r24, 0x01	; 1
    20e6:	31 c0       	rjmp	.+98     	; 0x214a <OSQQuery+0x74>
        return (OS_ERR_EVENT_TYPE);
    }
    OS_ENTER_CRITICAL();
    20e8:	0f 93       	push	r16
    20ea:	0f b7       	in	r16, 0x3f	; 63
    20ec:	0f 93       	push	r16
    20ee:	f8 94       	cli
    pdata->OSEventGrp = pevent->OSEventGrp;                /* Copy message queue wait list           */
    20f0:	81 81       	ldd	r24, Z+1	; 0x01
    20f2:	18 96       	adiw	r26, 0x08	; 8
    20f4:	8c 93       	st	X, r24
    20f6:	18 97       	sbiw	r26, 0x08	; 8
    psrc              = &pevent->OSEventTbl[0];
    pdest             = &pdata->OSEventTbl[0];
#if OS_EVENT_TBL_SIZE > 0
    *pdest++          = *psrc++;
    20f8:	86 81       	ldd	r24, Z+6	; 0x06
    20fa:	16 96       	adiw	r26, 0x06	; 6
    20fc:	8c 93       	st	X, r24
    20fe:	16 97       	sbiw	r26, 0x06	; 6
#endif

#if OS_EVENT_TBL_SIZE > 1
    *pdest++          = *psrc++;
    2100:	87 81       	ldd	r24, Z+7	; 0x07
    2102:	17 96       	adiw	r26, 0x07	; 7
    2104:	8c 93       	st	X, r24
    2106:	17 97       	sbiw	r26, 0x07	; 7
#endif

#if OS_EVENT_TBL_SIZE > 7
    *pdest            = *psrc;
#endif
    pq = (OS_Q *)pevent->OSEventPtr;
    2108:	c4 81       	ldd	r28, Z+4	; 0x04
    210a:	d5 81       	ldd	r29, Z+5	; 0x05
    if (pq->OSQEntries > 0) {
    210c:	8c 85       	ldd	r24, Y+12	; 0x0c
    210e:	9d 85       	ldd	r25, Y+13	; 0x0d
    2110:	89 2b       	or	r24, r25
    2112:	41 f0       	breq	.+16     	; 0x2124 <OSQQuery+0x4e>
        pdata->OSMsg = *pq->OSQOut;                        /* Get next message to return if available  */
    2114:	e8 85       	ldd	r30, Y+8	; 0x08
    2116:	f9 85       	ldd	r31, Y+9	; 0x09
    2118:	80 81       	ld	r24, Z
    211a:	91 81       	ldd	r25, Z+1	; 0x01
    211c:	11 96       	adiw	r26, 0x01	; 1
    211e:	9c 93       	st	X, r25
    2120:	8e 93       	st	-X, r24
    2122:	03 c0       	rjmp	.+6      	; 0x212a <OSQQuery+0x54>
    } else {
        pdata->OSMsg = (void *)0;
    2124:	11 96       	adiw	r26, 0x01	; 1
    2126:	1c 92       	st	X, r1
    2128:	1e 92       	st	-X, r1
    }
    pdata->OSNMsgs = pq->OSQEntries;
    212a:	8c 85       	ldd	r24, Y+12	; 0x0c
    212c:	9d 85       	ldd	r25, Y+13	; 0x0d
    212e:	13 96       	adiw	r26, 0x03	; 3
    2130:	9c 93       	st	X, r25
    2132:	8e 93       	st	-X, r24
    2134:	12 97       	sbiw	r26, 0x02	; 2
    pdata->OSQSize = pq->OSQSize;
    2136:	8a 85       	ldd	r24, Y+10	; 0x0a
    2138:	9b 85       	ldd	r25, Y+11	; 0x0b
    213a:	15 96       	adiw	r26, 0x05	; 5
    213c:	9c 93       	st	X, r25
    213e:	8e 93       	st	-X, r24
    2140:	14 97       	sbiw	r26, 0x04	; 4
    OS_EXIT_CRITICAL();
    2142:	0f 91       	pop	r16
    2144:	0f bf       	out	0x3f, r16	; 63
    2146:	0f 91       	pop	r16
    2148:	80 e0       	ldi	r24, 0x00	; 0
    return (OS_NO_ERR);
}
    214a:	df 91       	pop	r29
    214c:	cf 91       	pop	r28
    214e:	08 95       	ret

00002150 <OSSemAccept>:
*********************************************************************************************************
*/

#if OS_SEM_ACCEPT_EN > 0
INT16U  OSSemAccept (OS_EVENT *pevent)
{
    2150:	fc 01       	movw	r30, r24
#if OS_ARG_CHK_EN > 0
    if (pevent == (OS_EVENT *)0) {                    /* Validate 'pevent'                             */
        return (0);
    }
#endif
    if (pevent->OSEventType != OS_EVENT_TYPE_SEM) {   /* Validate event block type                     */
    2152:	80 81       	ld	r24, Z
    2154:	83 30       	cpi	r24, 0x03	; 3
    2156:	19 f0       	breq	.+6      	; 0x215e <OSSemAccept+0xe>
    2158:	20 e0       	ldi	r18, 0x00	; 0
    215a:	30 e0       	ldi	r19, 0x00	; 0
    215c:	12 c0       	rjmp	.+36     	; 0x2182 <OSSemAccept+0x32>
        return (0);
    }
    OS_ENTER_CRITICAL();
    215e:	0f 93       	push	r16
    2160:	0f b7       	in	r16, 0x3f	; 63
    2162:	0f 93       	push	r16
    2164:	f8 94       	cli
    cnt = pevent->OSEventCnt;
    2166:	22 81       	ldd	r18, Z+2	; 0x02
    2168:	33 81       	ldd	r19, Z+3	; 0x03
    if (cnt > 0) {                                    /* See if resource is available                  */
    216a:	21 15       	cp	r18, r1
    216c:	31 05       	cpc	r19, r1
    216e:	31 f0       	breq	.+12     	; 0x217c <OSSemAccept+0x2c>
        pevent->OSEventCnt--;                         /* Yes, decrement semaphore and notify caller    */
    2170:	21 50       	subi	r18, 0x01	; 1
    2172:	30 40       	sbci	r19, 0x00	; 0
    2174:	33 83       	std	Z+3, r19	; 0x03
    2176:	22 83       	std	Z+2, r18	; 0x02
    2178:	2f 5f       	subi	r18, 0xFF	; 255
    217a:	3f 4f       	sbci	r19, 0xFF	; 255
    }
    OS_EXIT_CRITICAL();
    217c:	0f 91       	pop	r16
    217e:	0f bf       	out	0x3f, r16	; 63
    2180:	0f 91       	pop	r16
    return (cnt);                                     /* Return semaphore count                        */
}
    2182:	c9 01       	movw	r24, r18
    2184:	08 95       	ret

00002186 <OSSemCreate>:
*              == (void *)0  if no event control blocks were available
*********************************************************************************************************
*/

OS_EVENT  *OSSemCreate (INT16U cnt)
{
    2186:	9c 01       	movw	r18, r24
    OS_CPU_SR  cpu_sr;
#endif    
    OS_EVENT  *pevent;


    if (OSIntNesting > 0) {                                /* See if called from ISR ...               */
    2188:	80 91 3b 04 	lds	r24, 0x043B
    218c:	88 23       	and	r24, r24
    218e:	19 f0       	breq	.+6      	; 0x2196 <OSSemCreate+0x10>
    2190:	e0 e0       	ldi	r30, 0x00	; 0
    2192:	f0 e0       	ldi	r31, 0x00	; 0
    2194:	1e c0       	rjmp	.+60     	; 0x21d2 <OSSemCreate+0x4c>
        return ((OS_EVENT *)0);                            /* ... can't CREATE from an ISR             */
    }
    OS_ENTER_CRITICAL();
    2196:	0f 93       	push	r16
    2198:	0f b7       	in	r16, 0x3f	; 63
    219a:	0f 93       	push	r16
    219c:	f8 94       	cli
    pevent = OSEventFreeList;                              /* Get next free event control block        */
    219e:	e0 91 38 04 	lds	r30, 0x0438
    21a2:	f0 91 39 04 	lds	r31, 0x0439
    if (OSEventFreeList != (OS_EVENT *)0) {                /* See if pool of free ECB pool was empty   */
    21a6:	30 97       	sbiw	r30, 0x00	; 0
    21a8:	31 f0       	breq	.+12     	; 0x21b6 <OSSemCreate+0x30>
        OSEventFreeList = (OS_EVENT *)OSEventFreeList->OSEventPtr;
    21aa:	84 81       	ldd	r24, Z+4	; 0x04
    21ac:	95 81       	ldd	r25, Z+5	; 0x05
    21ae:	90 93 39 04 	sts	0x0439, r25
    21b2:	80 93 38 04 	sts	0x0438, r24
    }
    OS_EXIT_CRITICAL();
    21b6:	0f 91       	pop	r16
    21b8:	0f bf       	out	0x3f, r16	; 63
    21ba:	0f 91       	pop	r16
    if (pevent != (OS_EVENT *)0) {                         /* Get an event control block               */
    21bc:	30 97       	sbiw	r30, 0x00	; 0
    21be:	49 f0       	breq	.+18     	; 0x21d2 <OSSemCreate+0x4c>
        pevent->OSEventType = OS_EVENT_TYPE_SEM;
    21c0:	83 e0       	ldi	r24, 0x03	; 3
    21c2:	80 83       	st	Z, r24
        pevent->OSEventCnt  = cnt;                         /* Set semaphore value                      */
    21c4:	33 83       	std	Z+3, r19	; 0x03
    21c6:	22 83       	std	Z+2, r18	; 0x02
        pevent->OSEventPtr  = (void *)0;                   /* Unlink from ECB free list                */
    21c8:	15 82       	std	Z+5, r1	; 0x05
    21ca:	14 82       	std	Z+4, r1	; 0x04
void  OS_EventWaitListInit (OS_EVENT *pevent)
{
    INT8U  *ptbl;


    pevent->OSEventGrp = 0x00;                   /* No task waiting on event                           */
    21cc:	11 82       	std	Z+1, r1	; 0x01
    ptbl               = &pevent->OSEventTbl[0];

#if OS_EVENT_TBL_SIZE > 0
    *ptbl++            = 0x00;
    21ce:	16 82       	std	Z+6, r1	; 0x06
#endif

#if OS_EVENT_TBL_SIZE > 1
    *ptbl++            = 0x00;
    21d0:	17 82       	std	Z+7, r1	; 0x07
        (void)strcpy(pevent->OSEventName, "?");
#endif
        OS_EventWaitListInit(pevent);                      /* Initialize to 'nobody waiting' on sem.   */
    }
    return (pevent);
}
    21d2:	cf 01       	movw	r24, r30
    21d4:	08 95       	ret

000021d6 <OSSemQuery>:
*********************************************************************************************************
*/

#if OS_SEM_QUERY_EN > 0
INT8U  OSSemQuery (OS_EVENT *pevent, OS_SEM_DATA *pdata)
{
    21d6:	fc 01       	movw	r30, r24
    21d8:	db 01       	movw	r26, r22
#if OS_ARG_CHK_EN > 0
    if (pevent == (OS_EVENT *)0) {                         /* Validate 'pevent'                        */
        return (OS_ERR_PEVENT_NULL);
    }
#endif
    if (pevent->OSEventType != OS_EVENT_TYPE_SEM) {        /* Validate event block type                */
    21da:	80 81       	ld	r24, Z
    21dc:	83 30       	cpi	r24, 0x03	; 3
    21de:	11 f0       	breq	.+4      	; 0x21e4 <OSSemQuery+0xe>
    21e0:	81 e0       	ldi	r24, 0x01	; 1
    21e2:	08 95       	ret
        return (OS_ERR_EVENT_TYPE);
    }
    OS_ENTER_CRITICAL();
    21e4:	0f 93       	push	r16
    21e6:	0f b7       	in	r16, 0x3f	; 63
    21e8:	0f 93       	push	r16
    21ea:	f8 94       	cli
    pdata->OSEventGrp = pevent->OSEventGrp;                /* Copy message mailbox wait list           */
    21ec:	81 81       	ldd	r24, Z+1	; 0x01
    21ee:	14 96       	adiw	r26, 0x04	; 4
    21f0:	8c 93       	st	X, r24
    21f2:	14 97       	sbiw	r26, 0x04	; 4
    psrc              = &pevent->OSEventTbl[0];
    pdest             = &pdata->OSEventTbl[0];
#if OS_EVENT_TBL_SIZE > 0
    *pdest++          = *psrc++;
    21f4:	86 81       	ldd	r24, Z+6	; 0x06
    21f6:	12 96       	adiw	r26, 0x02	; 2
    21f8:	8c 93       	st	X, r24
    21fa:	12 97       	sbiw	r26, 0x02	; 2
#endif

#if OS_EVENT_TBL_SIZE > 1
    *pdest++          = *psrc++;
    21fc:	87 81       	ldd	r24, Z+7	; 0x07
    21fe:	13 96       	adiw	r26, 0x03	; 3
    2200:	8c 93       	st	X, r24
    2202:	13 97       	sbiw	r26, 0x03	; 3
#endif

#if OS_EVENT_TBL_SIZE > 7
    *pdest            = *psrc;
#endif
    pdata->OSCnt      = pevent->OSEventCnt;                /* Get semaphore count                      */
    2204:	82 81       	ldd	r24, Z+2	; 0x02
    2206:	93 81       	ldd	r25, Z+3	; 0x03
    2208:	8d 93       	st	X+, r24
    220a:	9c 93       	st	X, r25
    OS_EXIT_CRITICAL();
    220c:	0f 91       	pop	r16
    220e:	0f bf       	out	0x3f, r16	; 63
    2210:	0f 91       	pop	r16
    2212:	80 e0       	ldi	r24, 0x00	; 0
    return (OS_NO_ERR);
}
    2214:	08 95       	ret

00002216 <OSTaskQuery>:
        if (prio != OS_PRIO_SELF) {   
            return (OS_PRIO_INVALID);
        }
    }
#endif
    OS_ENTER_CRITICAL();
    2216:	0f 93       	push	r16
    2218:	0f b7       	in	r16, 0x3f	; 63
    221a:	0f 93       	push	r16
    221c:	f8 94       	cli
    if (prio == OS_PRIO_SELF) {                            /* See if suspend SELF                      */
    221e:	8f 3f       	cpi	r24, 0xFF	; 255
    2220:	29 f4       	brne	.+10     	; 0x222c <OSTaskQuery+0x16>
        prio = OSTCBCur->OSTCBPrio;
    2222:	e0 91 3c 04 	lds	r30, 0x043C
    2226:	f0 91 3d 04 	lds	r31, 0x043D
    222a:	86 85       	ldd	r24, Z+14	; 0x0e
    }
    ptcb = OSTCBPrioTbl[prio];
    222c:	e8 2f       	mov	r30, r24
    222e:	f0 e0       	ldi	r31, 0x00	; 0
    2230:	ee 0f       	add	r30, r30
    2232:	ff 1f       	adc	r31, r31
    2234:	ee 5f       	subi	r30, 0xFE	; 254
    2236:	f9 4f       	sbci	r31, 0xF9	; 249
    2238:	01 90       	ld	r0, Z+
    223a:	f0 81       	ld	r31, Z
    223c:	e0 2d       	mov	r30, r0
    if (ptcb == (OS_TCB *)0) {                             /* Task to query must exist                 */
    223e:	30 97       	sbiw	r30, 0x00	; 0
    2240:	29 f4       	brne	.+10     	; 0x224c <OSTaskQuery+0x36>
        OS_EXIT_CRITICAL();
    2242:	0f 91       	pop	r16
    2244:	0f bf       	out	0x3f, r16	; 63
    2246:	0f 91       	pop	r16
    2248:	89 e2       	ldi	r24, 0x29	; 41
    224a:	08 95       	ret
        return (OS_PRIO_ERR);
    }
    memcpy(pdata, ptcb, sizeof(OS_TCB));                   /* Copy TCB into user storage area          */
    224c:	db 01       	movw	r26, r22
    224e:	83 e1       	ldi	r24, 0x13	; 19
    2250:	01 90       	ld	r0, Z+
    2252:	0d 92       	st	X+, r0
    2254:	81 50       	subi	r24, 0x01	; 1
    2256:	e1 f7       	brne	.-8      	; 0x2250 <OSTaskQuery+0x3a>
    OS_EXIT_CRITICAL();
    2258:	0f 91       	pop	r16
    225a:	0f bf       	out	0x3f, r16	; 63
    225c:	0f 91       	pop	r16
    return (OS_NO_ERR);
}
    225e:	08 95       	ret

00002260 <OS_QInit>:
    INT16U  i;
    OS_Q   *pq1;
    OS_Q   *pq2;


    (void)memset(&OSQTbl[0], 0, sizeof(OSQTbl)); /* Clear the queue table                              */
    2260:	e5 e1       	ldi	r30, 0x15	; 21
    2262:	f4 e0       	ldi	r31, 0x04	; 4
    2264:	8c e1       	ldi	r24, 0x1C	; 28
    2266:	df 01       	movw	r26, r30
    2268:	1d 92       	st	X+, r1
    226a:	8a 95       	dec	r24
    226c:	e9 f7       	brne	.-6      	; 0x2268 <OS_QInit+0x8>
    pq1 = &OSQTbl[0];
    pq2 = &OSQTbl[1];
    for (i = 0; i < (OS_MAX_QS - 1); i++) {      /* Init. list of free QUEUE control blocks            */
        pq1->OSQPtr = pq2;
    226e:	3e 96       	adiw	r30, 0x0e	; 14
    2270:	f0 93 16 04 	sts	0x0416, r31
    2274:	e0 93 15 04 	sts	0x0415, r30
    2278:	3e 97       	sbiw	r30, 0x0e	; 14
        pq1++;
        pq2++;
    }
    pq1->OSQPtr = (OS_Q *)0;
    227a:	10 92 24 04 	sts	0x0424, r1
    227e:	10 92 23 04 	sts	0x0423, r1
    OSQFreeList = &OSQTbl[0];
    2282:	f0 93 34 04 	sts	0x0434, r31
    2286:	e0 93 33 04 	sts	0x0433, r30
#endif
}
    228a:	08 95       	ret

0000228c <OS_FlagInit>:
    INT8U        i;
    OS_FLAG_GRP *pgrp1;
    OS_FLAG_GRP *pgrp2;


    (void)memset(&OSFlagTbl[0], 0, sizeof(OSFlagTbl));              /* Clear the flag group table      */
    228c:	e7 ef       	ldi	r30, 0xF7	; 247
    228e:	f3 e0       	ldi	r31, 0x03	; 3
    2290:	84 e1       	ldi	r24, 0x14	; 20
    2292:	df 01       	movw	r26, r30
    2294:	1d 92       	st	X+, r1
    2296:	8a 95       	dec	r24
    2298:	e9 f7       	brne	.-6      	; 0x2294 <OS_FlagInit+0x8>
    229a:	cf 01       	movw	r24, r30
    229c:	04 96       	adiw	r24, 0x04	; 4
    pgrp1 = &OSFlagTbl[0];
    pgrp2 = &OSFlagTbl[1];
    for (i = 0; i < (OS_MAX_FLAGS - 1); i++) {                      /* Init. list of free EVENT FLAGS  */
        pgrp1->OSFlagType     = OS_EVENT_TYPE_UNUSED;
    229e:	10 82       	st	Z, r1
        pgrp1->OSFlagWaitList = (void *)pgrp2;
    22a0:	92 83       	std	Z+2, r25	; 0x02
    22a2:	81 83       	std	Z+1, r24	; 0x01
    22a4:	fc 01       	movw	r30, r24


    (void)memset(&OSFlagTbl[0], 0, sizeof(OSFlagTbl));              /* Clear the flag group table      */
    pgrp1 = &OSFlagTbl[0];
    pgrp2 = &OSFlagTbl[1];
    for (i = 0; i < (OS_MAX_FLAGS - 1); i++) {                      /* Init. list of free EVENT FLAGS  */
    22a6:	b4 e0       	ldi	r27, 0x04	; 4
    22a8:	87 30       	cpi	r24, 0x07	; 7
    22aa:	9b 07       	cpc	r25, r27
    22ac:	b1 f7       	brne	.-20     	; 0x229a <OS_FlagInit+0xe>
        (void)strcpy(pgrp1->OSFlagName, "?");                       /* Unknown name                    */
#endif
        pgrp1++;
        pgrp2++;
    }
    pgrp1->OSFlagType     = OS_EVENT_TYPE_UNUSED;
    22ae:	10 82       	st	Z, r1
    pgrp1->OSFlagWaitList = (void *)0;
    22b0:	12 82       	std	Z+2, r1	; 0x02
    22b2:	11 82       	std	Z+1, r1	; 0x01
#if OS_FLAG_NAME_SIZE > 0
    (void)strcpy(pgrp1->OSFlagName, "?");
#endif
    OSFlagFreeList        = (OS_FLAG_GRP *)&OSFlagTbl[0];
    22b4:	70 97       	sbiw	r30, 0x10	; 16
    22b6:	f0 93 01 06 	sts	0x0601, r31
    22ba:	e0 93 00 06 	sts	0x0600, r30
#endif
}
    22be:	08 95       	ret

000022c0 <OS_TCBInit>:
* Note       : This function is INTERNAL to uC/OS-II and your application should not call it.
*********************************************************************************************************
*/

INT8U  OS_TCBInit (INT8U prio, OS_STK *ptos, OS_STK *pbos, INT16U id, INT32U stk_size, void *pext, INT16U opt)
{
    22c0:	1f 93       	push	r17
    22c2:	cf 93       	push	r28
    22c4:	df 93       	push	r29
    22c6:	18 2f       	mov	r17, r24
    OS_CPU_SR  cpu_sr;
#endif    
    OS_TCB    *ptcb;


    OS_ENTER_CRITICAL();
    22c8:	0f 93       	push	r16
    22ca:	0f b7       	in	r16, 0x3f	; 63
    22cc:	0f 93       	push	r16
    22ce:	f8 94       	cli
    ptcb = OSTCBFreeList;                                  /* Get a free TCB from the free TCB list    */
    22d0:	c0 91 12 04 	lds	r28, 0x0412
    22d4:	d0 91 13 04 	lds	r29, 0x0413
    if (ptcb != (OS_TCB *)0) {
    22d8:	20 97       	sbiw	r28, 0x00	; 0
    22da:	09 f4       	brne	.+2      	; 0x22de <OS_TCBInit+0x1e>
    22dc:	5a c0       	rjmp	.+180    	; 0x2392 <OS_TCBInit+0xd2>
        OSTCBFreeList        = ptcb->OSTCBNext;            /* Update pointer to free TCB list          */
    22de:	8a 81       	ldd	r24, Y+2	; 0x02
    22e0:	9b 81       	ldd	r25, Y+3	; 0x03
    22e2:	90 93 13 04 	sts	0x0413, r25
    22e6:	80 93 12 04 	sts	0x0412, r24
        OS_EXIT_CRITICAL();
    22ea:	0f 91       	pop	r16
    22ec:	0f bf       	out	0x3f, r16	; 63
    22ee:	0f 91       	pop	r16
        ptcb->OSTCBStkPtr    = ptos;                       /* Load Stack pointer in TCB                */
    22f0:	79 83       	std	Y+1, r23	; 0x01
    22f2:	68 83       	st	Y, r22
        ptcb->OSTCBPrio      = (INT8U)prio;                /* Load task priority into TCB              */
    22f4:	1e 87       	std	Y+14, r17	; 0x0e
        ptcb->OSTCBStat      = OS_STAT_RDY;                /* Task is ready to run                     */
    22f6:	1d 86       	std	Y+13, r1	; 0x0d
        ptcb->OSTCBDly       = 0;                          /* Task is not delayed                      */
    22f8:	1c 86       	std	Y+12, r1	; 0x0c
    22fa:	1b 86       	std	Y+11, r1	; 0x0b

#if OS_TASK_DEL_EN > 0
        ptcb->OSTCBDelReq    = OS_NO_ERR;
#endif

        ptcb->OSTCBY         = prio >> 3;                  /* Pre-compute X, Y, BitX and BitY          */
    22fc:	e1 2f       	mov	r30, r17
    22fe:	e6 95       	lsr	r30
    2300:	e6 95       	lsr	r30
    2302:	e6 95       	lsr	r30
    2304:	e8 8b       	std	Y+16, r30	; 0x10
        ptcb->OSTCBBitY      = OSMapTbl[ptcb->OSTCBY];
    2306:	f0 e0       	ldi	r31, 0x00	; 0
    2308:	ee 58       	subi	r30, 0x8E	; 142
    230a:	ff 4f       	sbci	r31, 0xFF	; 255
    230c:	80 81       	ld	r24, Z
    230e:	8a 8b       	std	Y+18, r24	; 0x12
        ptcb->OSTCBX         = prio & 0x07;
    2310:	e1 2f       	mov	r30, r17
    2312:	e7 70       	andi	r30, 0x07	; 7
    2314:	ef 87       	std	Y+15, r30	; 0x0f
        ptcb->OSTCBBitX      = OSMapTbl[ptcb->OSTCBX];
    2316:	f0 e0       	ldi	r31, 0x00	; 0
    2318:	ee 58       	subi	r30, 0x8E	; 142
    231a:	ff 4f       	sbci	r31, 0xFF	; 255
    231c:	80 81       	ld	r24, Z
    231e:	89 8b       	std	Y+17, r24	; 0x11

#if OS_EVENT_EN > 0
        ptcb->OSTCBEventPtr  = (OS_EVENT *)0;              /* Task is not pending on an event          */
    2320:	1f 82       	std	Y+7, r1	; 0x07
    2322:	1e 82       	std	Y+6, r1	; 0x06
#if (OS_VERSION >= 251) && (OS_FLAG_EN > 0) && (OS_MAX_FLAGS > 0) && (OS_TASK_DEL_EN > 0)
        ptcb->OSTCBFlagNode  = (OS_FLAG_NODE *)0;          /* Task is not pending on an event flag     */
#endif

#if (OS_MBOX_EN > 0) || ((OS_Q_EN > 0) && (OS_MAX_QS > 0))
        ptcb->OSTCBMsg       = (void *)0;                  /* No message received                      */
    2324:	19 86       	std	Y+9, r1	; 0x09
    2326:	18 86       	std	Y+8, r1	; 0x08
#if OS_TASK_NAME_SIZE > 0
        (void)strcpy(ptcb->OSTCBTaskName, "?");            /* Unknown name at task creation            */
#endif

#if OS_VERSION >= 204
        OSTCBInitHook(ptcb);
    2328:	ce 01       	movw	r24, r28
    232a:	0e 94 ef 03 	call	0x7de	; 0x7de <OSTCBInitHook>
#endif

        OSTaskCreateHook(ptcb);                            /* Call user defined hook                   */
    232e:	ce 01       	movw	r24, r28
    2330:	0e 94 ea 03 	call	0x7d4	; 0x7d4 <OSTaskCreateHook>
        
        OS_ENTER_CRITICAL();
    2334:	0f 93       	push	r16
    2336:	0f b7       	in	r16, 0x3f	; 63
    2338:	0f 93       	push	r16
    233a:	f8 94       	cli
        OSTCBPrioTbl[prio] = ptcb;
    233c:	e1 2f       	mov	r30, r17
    233e:	f0 e0       	ldi	r31, 0x00	; 0
    2340:	ee 0f       	add	r30, r30
    2342:	ff 1f       	adc	r31, r31
    2344:	ee 5f       	subi	r30, 0xFE	; 254
    2346:	f9 4f       	sbci	r31, 0xF9	; 249
    2348:	d1 83       	std	Z+1, r29	; 0x01
    234a:	c0 83       	st	Z, r28
        ptcb->OSTCBNext    = OSTCBList;                    /* Link into TCB chain                      */
    234c:	e0 91 0c 04 	lds	r30, 0x040C
    2350:	f0 91 0d 04 	lds	r31, 0x040D
    2354:	fb 83       	std	Y+3, r31	; 0x03
    2356:	ea 83       	std	Y+2, r30	; 0x02
        ptcb->OSTCBPrev    = (OS_TCB *)0;
    2358:	1d 82       	std	Y+5, r1	; 0x05
    235a:	1c 82       	std	Y+4, r1	; 0x04
        if (OSTCBList != (OS_TCB *)0) {
    235c:	30 97       	sbiw	r30, 0x00	; 0
    235e:	11 f0       	breq	.+4      	; 0x2364 <OS_TCBInit+0xa4>
            OSTCBList->OSTCBPrev = ptcb;
    2360:	d5 83       	std	Z+5, r29	; 0x05
    2362:	c4 83       	std	Z+4, r28	; 0x04
        }
        OSTCBList               = ptcb;
    2364:	d0 93 0d 04 	sts	0x040D, r29
    2368:	c0 93 0c 04 	sts	0x040C, r28
        OSRdyGrp               |= ptcb->OSTCBBitY;         /* Make task ready to run                   */
    236c:	80 91 35 04 	lds	r24, 0x0435
    2370:	9a 89       	ldd	r25, Y+18	; 0x12
    2372:	89 2b       	or	r24, r25
    2374:	80 93 35 04 	sts	0x0435, r24
        OSRdyTbl[ptcb->OSTCBY] |= ptcb->OSTCBBitX;
    2378:	e8 89       	ldd	r30, Y+16	; 0x10
    237a:	f0 e0       	ldi	r31, 0x00	; 0
    237c:	ea 5c       	subi	r30, 0xCA	; 202
    237e:	fb 4f       	sbci	r31, 0xFB	; 251
    2380:	80 81       	ld	r24, Z
    2382:	99 89       	ldd	r25, Y+17	; 0x11
    2384:	89 2b       	or	r24, r25
    2386:	80 83       	st	Z, r24
        OS_EXIT_CRITICAL();
    2388:	0f 91       	pop	r16
    238a:	0f bf       	out	0x3f, r16	; 63
    238c:	0f 91       	pop	r16
    238e:	80 e0       	ldi	r24, 0x00	; 0
    2390:	04 c0       	rjmp	.+8      	; 0x239a <OS_TCBInit+0xda>
        return (OS_NO_ERR);
    }
    OS_EXIT_CRITICAL();
    2392:	0f 91       	pop	r16
    2394:	0f bf       	out	0x3f, r16	; 63
    2396:	0f 91       	pop	r16
    2398:	86 e4       	ldi	r24, 0x46	; 70
    return (OS_NO_MORE_TCB);
}
    239a:	df 91       	pop	r29
    239c:	cf 91       	pop	r28
    239e:	1f 91       	pop	r17
    23a0:	08 95       	ret

000023a2 <OS_TaskIdle>:
#endif    
    
    
    pdata = pdata;                               /* Prevent compiler warning for not using 'pdata'     */
    for (;;) {
        OS_ENTER_CRITICAL();
    23a2:	0f 93       	push	r16
    23a4:	0f b7       	in	r16, 0x3f	; 63
    23a6:	0f 93       	push	r16
    23a8:	f8 94       	cli
        OSIdleCtr++;
    23aa:	80 91 f2 03 	lds	r24, 0x03F2
    23ae:	90 91 f3 03 	lds	r25, 0x03F3
    23b2:	a0 91 f4 03 	lds	r26, 0x03F4
    23b6:	b0 91 f5 03 	lds	r27, 0x03F5
    23ba:	01 96       	adiw	r24, 0x01	; 1
    23bc:	a1 1d       	adc	r26, r1
    23be:	b1 1d       	adc	r27, r1
    23c0:	80 93 f2 03 	sts	0x03F2, r24
    23c4:	90 93 f3 03 	sts	0x03F3, r25
    23c8:	a0 93 f4 03 	sts	0x03F4, r26
    23cc:	b0 93 f5 03 	sts	0x03F5, r27
        OS_EXIT_CRITICAL();
    23d0:	0f 91       	pop	r16
    23d2:	0f bf       	out	0x3f, r16	; 63
    23d4:	0f 91       	pop	r16
        OSTaskIdleHook();                        /* Call user definable HOOK                           */
    23d6:	0e 94 ec 03 	call	0x7d8	; 0x7d8 <OSTaskIdleHook>
    23da:	e3 cf       	rjmp	.-58     	; 0x23a2 <OS_TaskIdle>

000023dc <OS_Sched>:
    OS_CPU_SR  cpu_sr;
#endif    
    INT8U      y;


    OS_ENTER_CRITICAL();
    23dc:	0f 93       	push	r16
    23de:	0f b7       	in	r16, 0x3f	; 63
    23e0:	0f 93       	push	r16
    23e2:	f8 94       	cli
    if (OSIntNesting == 0) {                           /* Schedule only if all ISRs done and ...       */
    23e4:	80 91 3b 04 	lds	r24, 0x043B
    23e8:	88 23       	and	r24, r24
    23ea:	09 f0       	breq	.+2      	; 0x23ee <OS_Sched+0x12>
    23ec:	3f c0       	rjmp	.+126    	; 0x246c <OS_Sched+0x90>
        if (OSLockNesting == 0) {                      /* ... scheduler is not locked                  */
    23ee:	80 91 f0 03 	lds	r24, 0x03F0
    23f2:	88 23       	and	r24, r24
    23f4:	d9 f5       	brne	.+118    	; 0x246c <OS_Sched+0x90>
            y             = OSUnMapTbl[OSRdyGrp];      /* Get pointer to HPT ready to run              */
    23f6:	e0 91 35 04 	lds	r30, 0x0435
    23fa:	f0 e0       	ldi	r31, 0x00	; 0
    23fc:	e6 58       	subi	r30, 0x86	; 134
    23fe:	ff 4f       	sbci	r31, 0xFF	; 255
    2400:	80 81       	ld	r24, Z
            OSPrioHighRdy = (INT8U)((y << 3) + OSUnMapTbl[OSRdyTbl[y]]);
    2402:	e8 2f       	mov	r30, r24
    2404:	f0 e0       	ldi	r31, 0x00	; 0
    2406:	ea 5c       	subi	r30, 0xCA	; 202
    2408:	fb 4f       	sbci	r31, 0xFB	; 251
    240a:	e0 81       	ld	r30, Z
    240c:	f0 e0       	ldi	r31, 0x00	; 0
    240e:	e6 58       	subi	r30, 0x86	; 134
    2410:	ff 4f       	sbci	r31, 0xFF	; 255
    2412:	98 2f       	mov	r25, r24
    2414:	99 0f       	add	r25, r25
    2416:	99 0f       	add	r25, r25
    2418:	99 0f       	add	r25, r25
    241a:	80 81       	ld	r24, Z
    241c:	98 0f       	add	r25, r24
    241e:	90 93 f6 03 	sts	0x03F6, r25
            if (OSPrioHighRdy != OSPrioCur) {          /* No Ctx Sw if current task is highest rdy     */
    2422:	80 91 0b 04 	lds	r24, 0x040B
    2426:	98 17       	cp	r25, r24
    2428:	09 f1       	breq	.+66     	; 0x246c <OS_Sched+0x90>
                OSTCBHighRdy = OSTCBPrioTbl[OSPrioHighRdy];
    242a:	e9 2f       	mov	r30, r25
    242c:	f0 e0       	ldi	r31, 0x00	; 0
    242e:	ee 0f       	add	r30, r30
    2430:	ff 1f       	adc	r31, r31
    2432:	ee 5f       	subi	r30, 0xFE	; 254
    2434:	f9 4f       	sbci	r31, 0xF9	; 249
    2436:	80 81       	ld	r24, Z
    2438:	91 81       	ldd	r25, Z+1	; 0x01
    243a:	90 93 32 04 	sts	0x0432, r25
    243e:	80 93 31 04 	sts	0x0431, r24
#if OS_TASK_PROFILE_EN > 0
                OSTCBHighRdy->OSTCBCtxSwCtr++;         /* Inc. # of context switches to this task      */
#endif
                OSCtxSwCtr++;                          /* Increment context switch counter             */
    2442:	80 91 0e 04 	lds	r24, 0x040E
    2446:	90 91 0f 04 	lds	r25, 0x040F
    244a:	a0 91 10 04 	lds	r26, 0x0410
    244e:	b0 91 11 04 	lds	r27, 0x0411
    2452:	01 96       	adiw	r24, 0x01	; 1
    2454:	a1 1d       	adc	r26, r1
    2456:	b1 1d       	adc	r27, r1
    2458:	80 93 0e 04 	sts	0x040E, r24
    245c:	90 93 0f 04 	sts	0x040F, r25
    2460:	a0 93 10 04 	sts	0x0410, r26
    2464:	b0 93 11 04 	sts	0x0411, r27
                OS_TASK_SW();                          /* Perform a context switch                     */
    2468:	0e 94 40 03 	call	0x680	; 0x680 <OSCtxSw>
            }
        }
    }
    OS_EXIT_CRITICAL();
    246c:	0f 91       	pop	r16
    246e:	0f bf       	out	0x3f, r16	; 63
    2470:	0f 91       	pop	r16
}
    2472:	08 95       	ret

00002474 <OSTimeDlyResume>:
    OS_CPU_SR  cpu_sr;
#endif    
    OS_TCB    *ptcb;


    if (prio >= OS_LOWEST_PRIO) {
    2474:	8f 30       	cpi	r24, 0x0F	; 15
    2476:	10 f0       	brcs	.+4      	; 0x247c <OSTimeDlyResume+0x8>
    2478:	8a e2       	ldi	r24, 0x2A	; 42
    247a:	08 95       	ret
        return (OS_PRIO_INVALID);
    }
    OS_ENTER_CRITICAL();
    247c:	0f 93       	push	r16
    247e:	0f b7       	in	r16, 0x3f	; 63
    2480:	0f 93       	push	r16
    2482:	f8 94       	cli
    ptcb = (OS_TCB *)OSTCBPrioTbl[prio];                   /* Make sure that task exist                */
    2484:	e8 2f       	mov	r30, r24
    2486:	f0 e0       	ldi	r31, 0x00	; 0
    2488:	ee 0f       	add	r30, r30
    248a:	ff 1f       	adc	r31, r31
    248c:	ee 5f       	subi	r30, 0xFE	; 254
    248e:	f9 4f       	sbci	r31, 0xF9	; 249
    2490:	a0 81       	ld	r26, Z
    2492:	b1 81       	ldd	r27, Z+1	; 0x01
    if (ptcb != (OS_TCB *)0) {
    2494:	10 97       	sbiw	r26, 0x00	; 0
    2496:	91 f1       	breq	.+100    	; 0x24fc <OSTimeDlyResume+0x88>
        if (ptcb->OSTCBDly != 0) {                         /* See if task is delayed                   */
    2498:	1b 96       	adiw	r26, 0x0b	; 11
    249a:	8d 91       	ld	r24, X+
    249c:	9c 91       	ld	r25, X
    249e:	1c 97       	sbiw	r26, 0x0c	; 12
    24a0:	89 2b       	or	r24, r25
    24a2:	39 f1       	breq	.+78     	; 0x24f2 <OSTimeDlyResume+0x7e>
            ptcb->OSTCBDly  = 0;                           /* Clear the time delay                     */
    24a4:	1c 96       	adiw	r26, 0x0c	; 12
    24a6:	1c 92       	st	X, r1
    24a8:	1e 92       	st	-X, r1
    24aa:	1b 97       	sbiw	r26, 0x0b	; 11
            if ((ptcb->OSTCBStat & OS_STAT_SUSPEND) == OS_STAT_RDY) {  /* See if task is ready to run  */
    24ac:	1d 96       	adiw	r26, 0x0d	; 13
    24ae:	8c 91       	ld	r24, X
    24b0:	1d 97       	sbiw	r26, 0x0d	; 13
    24b2:	83 fd       	sbrc	r24, 3
    24b4:	19 c0       	rjmp	.+50     	; 0x24e8 <OSTimeDlyResume+0x74>
                OSRdyGrp               |= ptcb->OSTCBBitY;             /* Make task ready to run       */
    24b6:	80 91 35 04 	lds	r24, 0x0435
    24ba:	52 96       	adiw	r26, 0x12	; 18
    24bc:	9c 91       	ld	r25, X
    24be:	52 97       	sbiw	r26, 0x12	; 18
    24c0:	89 2b       	or	r24, r25
    24c2:	80 93 35 04 	sts	0x0435, r24
                OSRdyTbl[ptcb->OSTCBY] |= ptcb->OSTCBBitX;
    24c6:	50 96       	adiw	r26, 0x10	; 16
    24c8:	ec 91       	ld	r30, X
    24ca:	50 97       	sbiw	r26, 0x10	; 16
    24cc:	f0 e0       	ldi	r31, 0x00	; 0
    24ce:	ea 5c       	subi	r30, 0xCA	; 202
    24d0:	fb 4f       	sbci	r31, 0xFB	; 251
    24d2:	80 81       	ld	r24, Z
    24d4:	51 96       	adiw	r26, 0x11	; 17
    24d6:	9c 91       	ld	r25, X
    24d8:	89 2b       	or	r24, r25
    24da:	80 83       	st	Z, r24
                OS_EXIT_CRITICAL();
    24dc:	0f 91       	pop	r16
    24de:	0f bf       	out	0x3f, r16	; 63
    24e0:	0f 91       	pop	r16
                OS_Sched();                                /* See if this is new highest priority      */
    24e2:	0e 94 ee 11 	call	0x23dc	; 0x23dc <OS_Sched>
    24e6:	03 c0       	rjmp	.+6      	; 0x24ee <OSTimeDlyResume+0x7a>
            } else {
                OS_EXIT_CRITICAL();                        /* Task may be suspended                    */
    24e8:	0f 91       	pop	r16
    24ea:	0f bf       	out	0x3f, r16	; 63
    24ec:	0f 91       	pop	r16
    24ee:	80 e0       	ldi	r24, 0x00	; 0
    24f0:	08 95       	ret
            }
            return (OS_NO_ERR);
        } else {
            OS_EXIT_CRITICAL();
    24f2:	0f 91       	pop	r16
    24f4:	0f bf       	out	0x3f, r16	; 63
    24f6:	0f 91       	pop	r16
    24f8:	80 e5       	ldi	r24, 0x50	; 80
    24fa:	08 95       	ret
            return (OS_TIME_NOT_DLY);                      /* Indicate that task was not delayed       */
        }
    }
    OS_EXIT_CRITICAL();
    24fc:	0f 91       	pop	r16
    24fe:	0f bf       	out	0x3f, r16	; 63
    2500:	0f 91       	pop	r16
    2502:	8b e0       	ldi	r24, 0x0B	; 11
    return (OS_TASK_NOT_EXIST);                            /* The task does not exist                  */
}
    2504:	08 95       	ret

00002506 <OSTimeDly>:
* Returns    : none
*********************************************************************************************************
*/

void  OSTimeDly (INT16U ticks)
{
    2506:	9c 01       	movw	r18, r24
    OS_CPU_SR  cpu_sr;
#endif    
    INT8U      y;


    if (ticks > 0) {                             /* 0 means no delay!                                  */
    2508:	00 97       	sbiw	r24, 0x00	; 0
    250a:	49 f1       	breq	.+82     	; 0x255e <OSTimeDly+0x58>
        OS_ENTER_CRITICAL();
    250c:	0f 93       	push	r16
    250e:	0f b7       	in	r16, 0x3f	; 63
    2510:	0f 93       	push	r16
    2512:	f8 94       	cli
		y            =  OSTCBCur->OSTCBY;	     /* Delay current task                                 */
    2514:	a0 91 3c 04 	lds	r26, 0x043C
    2518:	b0 91 3d 04 	lds	r27, 0x043D
		OSRdyTbl[y] &= ~OSTCBCur->OSTCBBitX;
    251c:	50 96       	adiw	r26, 0x10	; 16
    251e:	ec 91       	ld	r30, X
    2520:	50 97       	sbiw	r26, 0x10	; 16
    2522:	f0 e0       	ldi	r31, 0x00	; 0
    2524:	ea 5c       	subi	r30, 0xCA	; 202
    2526:	fb 4f       	sbci	r31, 0xFB	; 251
    2528:	51 96       	adiw	r26, 0x11	; 17
    252a:	8c 91       	ld	r24, X
    252c:	51 97       	sbiw	r26, 0x11	; 17
    252e:	80 95       	com	r24
    2530:	90 81       	ld	r25, Z
    2532:	89 23       	and	r24, r25
    2534:	80 83       	st	Z, r24
        if (OSRdyTbl[y] == 0) {  
    2536:	88 23       	and	r24, r24
    2538:	49 f4       	brne	.+18     	; 0x254c <OSTimeDly+0x46>
            OSRdyGrp &= ~OSTCBCur->OSTCBBitY;
    253a:	52 96       	adiw	r26, 0x12	; 18
    253c:	9c 91       	ld	r25, X
    253e:	52 97       	sbiw	r26, 0x12	; 18
    2540:	90 95       	com	r25
    2542:	80 91 35 04 	lds	r24, 0x0435
    2546:	89 23       	and	r24, r25
    2548:	80 93 35 04 	sts	0x0435, r24
        }
        OSTCBCur->OSTCBDly = ticks;              /* Load ticks in TCB                                  */
    254c:	1c 96       	adiw	r26, 0x0c	; 12
    254e:	3c 93       	st	X, r19
    2550:	2e 93       	st	-X, r18
    2552:	1b 97       	sbiw	r26, 0x0b	; 11
        OS_EXIT_CRITICAL();
    2554:	0f 91       	pop	r16
    2556:	0f bf       	out	0x3f, r16	; 63
    2558:	0f 91       	pop	r16
        OS_Sched();                              /* Find next task to run!                             */
    255a:	0e 94 ee 11 	call	0x23dc	; 0x23dc <OS_Sched>
    255e:	08 95       	ret

00002560 <OSTaskCreate>:
*********************************************************************************************************
*/

#if OS_TASK_CREATE_EN > 0
INT8U  OSTaskCreate (void (*task)(void *pd), void *pdata, OS_STK *ptos, INT8U prio)
{
    2560:	af 92       	push	r10
    2562:	bf 92       	push	r11
    2564:	cf 92       	push	r12
    2566:	df 92       	push	r13
    2568:	ef 92       	push	r14
    256a:	ff 92       	push	r15
    256c:	0f 93       	push	r16
    256e:	1f 93       	push	r17
    2570:	cf 93       	push	r28
    2572:	df 93       	push	r29
    2574:	dc 01       	movw	r26, r24
    2576:	12 2f       	mov	r17, r18
#if OS_ARG_CHK_EN > 0
    if (prio > OS_LOWEST_PRIO) {             /* Make sure priority is within allowable range           */
        return (OS_PRIO_INVALID);
    }
#endif
    OS_ENTER_CRITICAL();
    2578:	0f 93       	push	r16
    257a:	0f b7       	in	r16, 0x3f	; 63
    257c:	0f 93       	push	r16
    257e:	f8 94       	cli
    if (OSTCBPrioTbl[prio] == (OS_TCB *)0) { /* Make sure task doesn't already exist at this priority  */
    2580:	c2 2f       	mov	r28, r18
    2582:	d0 e0       	ldi	r29, 0x00	; 0
    2584:	fe 01       	movw	r30, r28
    2586:	ee 0f       	add	r30, r30
    2588:	ff 1f       	adc	r31, r31
    258a:	ee 5f       	subi	r30, 0xFE	; 254
    258c:	f9 4f       	sbci	r31, 0xF9	; 249
    258e:	80 81       	ld	r24, Z
    2590:	91 81       	ldd	r25, Z+1	; 0x01
    2592:	89 2b       	or	r24, r25
    2594:	09 f0       	breq	.+2      	; 0x2598 <OSTaskCreate+0x38>
    2596:	3f c0       	rjmp	.+126    	; 0x2616 <OSTaskCreate+0xb6>
        OSTCBPrioTbl[prio] = (OS_TCB *)1;    /* Reserve the priority to prevent others from doing ...  */
    2598:	81 e0       	ldi	r24, 0x01	; 1
    259a:	90 e0       	ldi	r25, 0x00	; 0
    259c:	91 83       	std	Z+1, r25	; 0x01
    259e:	80 83       	st	Z, r24
                                             /* ... the same thing until task is created.              */
        OS_EXIT_CRITICAL();
    25a0:	0f 91       	pop	r16
    25a2:	0f bf       	out	0x3f, r16	; 63
    25a4:	0f 91       	pop	r16
        psp = (OS_STK *)OSTaskStkInit(task, pdata, ptos, 0);    /* Initialize the task's stack         */
    25a6:	cd 01       	movw	r24, r26
    25a8:	20 e0       	ldi	r18, 0x00	; 0
    25aa:	30 e0       	ldi	r19, 0x00	; 0
    25ac:	0e 94 e8 02 	call	0x5d0	; 0x5d0 <OSTaskStkInit>
    25b0:	bc 01       	movw	r22, r24
        err = OS_TCBInit(prio, psp, (OS_STK *)0, 0, 0, (void *)0, 0);
    25b2:	81 2f       	mov	r24, r17
    25b4:	40 e0       	ldi	r20, 0x00	; 0
    25b6:	50 e0       	ldi	r21, 0x00	; 0
    25b8:	20 e0       	ldi	r18, 0x00	; 0
    25ba:	30 e0       	ldi	r19, 0x00	; 0
    25bc:	ee 24       	eor	r14, r14
    25be:	ff 24       	eor	r15, r15
    25c0:	87 01       	movw	r16, r14
    25c2:	cc 24       	eor	r12, r12
    25c4:	dd 24       	eor	r13, r13
    25c6:	aa 24       	eor	r10, r10
    25c8:	bb 24       	eor	r11, r11
    25ca:	0e 94 60 11 	call	0x22c0	; 0x22c0 <OS_TCBInit>
    25ce:	18 2f       	mov	r17, r24
        if (err == OS_NO_ERR) {
    25d0:	88 23       	and	r24, r24
    25d2:	99 f4       	brne	.+38     	; 0x25fa <OSTaskCreate+0x9a>
            OS_ENTER_CRITICAL();
    25d4:	0f 93       	push	r16
    25d6:	0f b7       	in	r16, 0x3f	; 63
    25d8:	0f 93       	push	r16
    25da:	f8 94       	cli
            OSTaskCtr++;                                        /* Increment the #tasks counter        */
    25dc:	80 91 14 04 	lds	r24, 0x0414
    25e0:	8f 5f       	subi	r24, 0xFF	; 255
    25e2:	80 93 14 04 	sts	0x0414, r24
            OS_EXIT_CRITICAL();
    25e6:	0f 91       	pop	r16
    25e8:	0f bf       	out	0x3f, r16	; 63
    25ea:	0f 91       	pop	r16
            if (OSRunning == TRUE) {         /* Find highest priority task if multitasking has started */
    25ec:	80 91 f1 03 	lds	r24, 0x03F1
    25f0:	81 30       	cpi	r24, 0x01	; 1
    25f2:	a9 f4       	brne	.+42     	; 0x261e <OSTaskCreate+0xbe>
                OS_Sched();
    25f4:	0e 94 ee 11 	call	0x23dc	; 0x23dc <OS_Sched>
    25f8:	12 c0       	rjmp	.+36     	; 0x261e <OSTaskCreate+0xbe>
            }
        } else {
            OS_ENTER_CRITICAL();
    25fa:	0f 93       	push	r16
    25fc:	0f b7       	in	r16, 0x3f	; 63
    25fe:	0f 93       	push	r16
    2600:	f8 94       	cli
            OSTCBPrioTbl[prio] = (OS_TCB *)0;/* Make this priority available to others                 */
    2602:	cc 0f       	add	r28, r28
    2604:	dd 1f       	adc	r29, r29
    2606:	ce 5f       	subi	r28, 0xFE	; 254
    2608:	d9 4f       	sbci	r29, 0xF9	; 249
    260a:	19 82       	std	Y+1, r1	; 0x01
    260c:	18 82       	st	Y, r1
            OS_EXIT_CRITICAL();
    260e:	0f 91       	pop	r16
    2610:	0f bf       	out	0x3f, r16	; 63
    2612:	0f 91       	pop	r16
    2614:	04 c0       	rjmp	.+8      	; 0x261e <OSTaskCreate+0xbe>
        }
        return (err);
    }
    OS_EXIT_CRITICAL();
    2616:	0f 91       	pop	r16
    2618:	0f bf       	out	0x3f, r16	; 63
    261a:	0f 91       	pop	r16
    261c:	18 e2       	ldi	r17, 0x28	; 40
    return (OS_PRIO_EXIST);
}
    261e:	81 2f       	mov	r24, r17
    2620:	df 91       	pop	r29
    2622:	cf 91       	pop	r28
    2624:	1f 91       	pop	r17
    2626:	0f 91       	pop	r16
    2628:	ff 90       	pop	r15
    262a:	ef 90       	pop	r14
    262c:	df 90       	pop	r13
    262e:	cf 90       	pop	r12
    2630:	bf 90       	pop	r11
    2632:	af 90       	pop	r10
    2634:	08 95       	ret

00002636 <OSSemPost>:
*              OS_ERR_PEVENT_NULL  If 'pevent' is a NULL pointer.
*********************************************************************************************************
*/

INT8U  OSSemPost (OS_EVENT *pevent)
{
    2636:	fc 01       	movw	r30, r24
#if OS_ARG_CHK_EN > 0
    if (pevent == (OS_EVENT *)0) {                         /* Validate 'pevent'                        */
        return (OS_ERR_PEVENT_NULL);
    }
#endif
    if (pevent->OSEventType != OS_EVENT_TYPE_SEM) {        /* Validate event block type                */
    2638:	80 81       	ld	r24, Z
    263a:	83 30       	cpi	r24, 0x03	; 3
    263c:	11 f0       	breq	.+4      	; 0x2642 <OSSemPost+0xc>
    263e:	81 e0       	ldi	r24, 0x01	; 1
    2640:	08 95       	ret
        return (OS_ERR_EVENT_TYPE);
    }
    OS_ENTER_CRITICAL();
    2642:	0f 93       	push	r16
    2644:	0f b7       	in	r16, 0x3f	; 63
    2646:	0f 93       	push	r16
    2648:	f8 94       	cli
    if (pevent->OSEventGrp != 0x00) {                      /* See if any task waiting for semaphore    */
    264a:	81 81       	ldd	r24, Z+1	; 0x01
    264c:	88 23       	and	r24, r24
    264e:	61 f0       	breq	.+24     	; 0x2668 <OSSemPost+0x32>
        OS_EventTaskRdy(pevent, (void *)0, OS_STAT_SEM);   /* Ready highest prio task waiting on event */
    2650:	cf 01       	movw	r24, r30
    2652:	60 e0       	ldi	r22, 0x00	; 0
    2654:	70 e0       	ldi	r23, 0x00	; 0
    2656:	41 e0       	ldi	r20, 0x01	; 1
    2658:	0e 94 b4 0c 	call	0x1968	; 0x1968 <OS_EventTaskRdy>
        OS_EXIT_CRITICAL();
    265c:	0f 91       	pop	r16
    265e:	0f bf       	out	0x3f, r16	; 63
    2660:	0f 91       	pop	r16
        OS_Sched();                                        /* Find highest priority task ready to run  */
    2662:	0e 94 ee 11 	call	0x23dc	; 0x23dc <OS_Sched>
    2666:	0c c0       	rjmp	.+24     	; 0x2680 <OSSemPost+0x4a>
        return (OS_NO_ERR);
    }
    if (pevent->OSEventCnt < 65535u) {                /* Make sure semaphore will not overflow         */
    2668:	82 81       	ldd	r24, Z+2	; 0x02
    266a:	93 81       	ldd	r25, Z+3	; 0x03
    266c:	2f ef       	ldi	r18, 0xFF	; 255
    266e:	8f 3f       	cpi	r24, 0xFF	; 255
    2670:	92 07       	cpc	r25, r18
    2672:	41 f0       	breq	.+16     	; 0x2684 <OSSemPost+0x4e>
        pevent->OSEventCnt++;                         /* Increment semaphore count to register event   */
    2674:	01 96       	adiw	r24, 0x01	; 1
    2676:	93 83       	std	Z+3, r25	; 0x03
    2678:	82 83       	std	Z+2, r24	; 0x02
        OS_EXIT_CRITICAL();
    267a:	0f 91       	pop	r16
    267c:	0f bf       	out	0x3f, r16	; 63
    267e:	0f 91       	pop	r16
    2680:	80 e0       	ldi	r24, 0x00	; 0
    2682:	08 95       	ret
        return (OS_NO_ERR);
    }
    OS_EXIT_CRITICAL();                               /* Semaphore value has reached its maximum       */
    2684:	0f 91       	pop	r16
    2686:	0f bf       	out	0x3f, r16	; 63
    2688:	0f 91       	pop	r16
    268a:	82 e3       	ldi	r24, 0x32	; 50
    return (OS_SEM_OVF);
}
    268c:	08 95       	ret

0000268e <OSSemPend>:
* Returns    : none
*********************************************************************************************************
*/

void  OSSemPend (OS_EVENT *pevent, INT16U timeout, INT8U *err)
{
    268e:	0f 93       	push	r16
    2690:	1f 93       	push	r17
    2692:	cf 93       	push	r28
    2694:	df 93       	push	r29
    2696:	ec 01       	movw	r28, r24
    2698:	8a 01       	movw	r16, r20
#if OS_CRITICAL_METHOD == 3                           /* Allocate storage for CPU status register      */
    OS_CPU_SR  cpu_sr;
#endif    


    if (OSIntNesting > 0) {                           /* See if called from ISR ...                    */
    269a:	80 91 3b 04 	lds	r24, 0x043B
    269e:	88 23       	and	r24, r24
    26a0:	11 f0       	breq	.+4      	; 0x26a6 <OSSemPend+0x18>
        *err = OS_ERR_PEND_ISR;                       /* ... can't PEND from an ISR                    */
    26a2:	82 e0       	ldi	r24, 0x02	; 2
    26a4:	80 c0       	rjmp	.+256    	; 0x27a6 <OSSemPend+0x118>
    if (pevent == (OS_EVENT *)0) {                    /* Validate 'pevent'                             */
        *err = OS_ERR_PEVENT_NULL;
        return;
    }
#endif
    if (pevent->OSEventType != OS_EVENT_TYPE_SEM) {   /* Validate event block type                     */
    26a6:	88 81       	ld	r24, Y
    26a8:	83 30       	cpi	r24, 0x03	; 3
    26aa:	11 f0       	breq	.+4      	; 0x26b0 <OSSemPend+0x22>
        *err = OS_ERR_EVENT_TYPE;
    26ac:	81 e0       	ldi	r24, 0x01	; 1
    26ae:	7b c0       	rjmp	.+246    	; 0x27a6 <OSSemPend+0x118>
        return;
    }
    OS_ENTER_CRITICAL();
    26b0:	0f 93       	push	r16
    26b2:	0f b7       	in	r16, 0x3f	; 63
    26b4:	0f 93       	push	r16
    26b6:	f8 94       	cli
    if (pevent->OSEventCnt > 0) {                     /* If sem. is positive, resource available ...   */
    26b8:	8a 81       	ldd	r24, Y+2	; 0x02
    26ba:	9b 81       	ldd	r25, Y+3	; 0x03
    26bc:	00 97       	sbiw	r24, 0x00	; 0
    26be:	39 f0       	breq	.+14     	; 0x26ce <OSSemPend+0x40>
        pevent->OSEventCnt--;                         /* ... decrement semaphore only if positive.     */
    26c0:	01 97       	sbiw	r24, 0x01	; 1
    26c2:	9b 83       	std	Y+3, r25	; 0x03
    26c4:	8a 83       	std	Y+2, r24	; 0x02
        OS_EXIT_CRITICAL();
    26c6:	0f 91       	pop	r16
    26c8:	0f bf       	out	0x3f, r16	; 63
    26ca:	0f 91       	pop	r16
    26cc:	76 c0       	rjmp	.+236    	; 0x27ba <OSSemPend+0x12c>
        *err = OS_NO_ERR;
        return;
    }
                                                      /* Otherwise, must wait until event occurs       */
    OSTCBCur->OSTCBStat |= OS_STAT_SEM;               /* Resource not available, pend on semaphore     */
    26ce:	a0 91 3c 04 	lds	r26, 0x043C
    26d2:	b0 91 3d 04 	lds	r27, 0x043D
    26d6:	1d 96       	adiw	r26, 0x0d	; 13
    26d8:	8c 91       	ld	r24, X
    26da:	1d 97       	sbiw	r26, 0x0d	; 13
    26dc:	81 60       	ori	r24, 0x01	; 1
    26de:	1d 96       	adiw	r26, 0x0d	; 13
    26e0:	8c 93       	st	X, r24
    26e2:	1d 97       	sbiw	r26, 0x0d	; 13
    OSTCBCur->OSTCBDly   = timeout;                   /* Store pend timeout in TCB                     */
    26e4:	1c 96       	adiw	r26, 0x0c	; 12
    26e6:	7c 93       	st	X, r23
    26e8:	6e 93       	st	-X, r22
    26ea:	1b 97       	sbiw	r26, 0x0b	; 11
void  OS_EventTaskWait (OS_EVENT *pevent)
{
    INT8U  y;


    OSTCBCur->OSTCBEventPtr = pevent;            /* Store pointer to event control block in TCB        */
    26ec:	17 96       	adiw	r26, 0x07	; 7
    26ee:	dc 93       	st	X, r29
    26f0:	ce 93       	st	-X, r28
    26f2:	16 97       	sbiw	r26, 0x06	; 6
    y                       = OSTCBCur->OSTCBY;  /* Task no longer ready                               */
    OSRdyTbl[y]            &= ~OSTCBCur->OSTCBBitX;
    26f4:	50 96       	adiw	r26, 0x10	; 16
    26f6:	8c 91       	ld	r24, X
    26f8:	50 97       	sbiw	r26, 0x10	; 16
    26fa:	28 2f       	mov	r18, r24
    26fc:	30 e0       	ldi	r19, 0x00	; 0
    26fe:	51 96       	adiw	r26, 0x11	; 17
    2700:	4c 91       	ld	r20, X
    2702:	51 97       	sbiw	r26, 0x11	; 17
    2704:	f9 01       	movw	r30, r18
    2706:	ea 5c       	subi	r30, 0xCA	; 202
    2708:	fb 4f       	sbci	r31, 0xFB	; 251
    270a:	84 2f       	mov	r24, r20
    270c:	80 95       	com	r24
    270e:	90 81       	ld	r25, Z
    2710:	89 23       	and	r24, r25
    2712:	80 83       	st	Z, r24
    if (OSRdyTbl[y] == 0x00) {                   
    2714:	88 23       	and	r24, r24
    2716:	49 f4       	brne	.+18     	; 0x272a <OSSemPend+0x9c>
        OSRdyGrp &= ~OSTCBCur->OSTCBBitY;        /* Clear event grp bit if this was only task pending  */
    2718:	52 96       	adiw	r26, 0x12	; 18
    271a:	9c 91       	ld	r25, X
    271c:	52 97       	sbiw	r26, 0x12	; 18
    271e:	90 95       	com	r25
    2720:	80 91 35 04 	lds	r24, 0x0435
    2724:	89 23       	and	r24, r25
    2726:	80 93 35 04 	sts	0x0435, r24
    }
    pevent->OSEventTbl[OSTCBCur->OSTCBY] |= OSTCBCur->OSTCBBitX;          /* Put task in waiting list  */
    272a:	fe 01       	movw	r30, r28
    272c:	e2 0f       	add	r30, r18
    272e:	f3 1f       	adc	r31, r19
    2730:	86 81       	ldd	r24, Z+6	; 0x06
    2732:	84 2b       	or	r24, r20
    2734:	86 83       	std	Z+6, r24	; 0x06
    pevent->OSEventGrp                   |= OSTCBCur->OSTCBBitY;
    2736:	89 81       	ldd	r24, Y+1	; 0x01
    2738:	52 96       	adiw	r26, 0x12	; 18
    273a:	9c 91       	ld	r25, X
    273c:	89 2b       	or	r24, r25
    273e:	89 83       	std	Y+1, r24	; 0x01
    OS_EventTaskWait(pevent);                         /* Suspend task until event or timeout occurs    */
    OS_EXIT_CRITICAL();
    2740:	0f 91       	pop	r16
    2742:	0f bf       	out	0x3f, r16	; 63
    2744:	0f 91       	pop	r16
    OS_Sched();                                       /* Find next highest priority task ready         */
    2746:	0e 94 ee 11 	call	0x23dc	; 0x23dc <OS_Sched>
    OS_ENTER_CRITICAL();
    274a:	0f 93       	push	r16
    274c:	0f b7       	in	r16, 0x3f	; 63
    274e:	0f 93       	push	r16
    2750:	f8 94       	cli
    if (OSTCBCur->OSTCBStat & OS_STAT_SEM) {          /* Must have timed out if still waiting for event*/
    2752:	a0 91 3c 04 	lds	r26, 0x043C
    2756:	b0 91 3d 04 	lds	r27, 0x043D
    275a:	1d 96       	adiw	r26, 0x0d	; 13
    275c:	8c 91       	ld	r24, X
    275e:	1d 97       	sbiw	r26, 0x0d	; 13
    2760:	80 ff       	sbrs	r24, 0
    2762:	24 c0       	rjmp	.+72     	; 0x27ac <OSSemPend+0x11e>
{
    INT8U  y;


    y                      = OSTCBCur->OSTCBY;
    pevent->OSEventTbl[y] &= ~OSTCBCur->OSTCBBitX;
    2764:	50 96       	adiw	r26, 0x10	; 16
    2766:	8c 91       	ld	r24, X
    2768:	50 97       	sbiw	r26, 0x10	; 16
    276a:	fe 01       	movw	r30, r28
    276c:	e8 0f       	add	r30, r24
    276e:	f1 1d       	adc	r31, r1
    2770:	51 96       	adiw	r26, 0x11	; 17
    2772:	8c 91       	ld	r24, X
    2774:	51 97       	sbiw	r26, 0x11	; 17
    2776:	80 95       	com	r24
    2778:	96 81       	ldd	r25, Z+6	; 0x06
    277a:	89 23       	and	r24, r25
    277c:	86 83       	std	Z+6, r24	; 0x06
    if (pevent->OSEventTbl[y] == 0x00) {
    277e:	88 23       	and	r24, r24
    2780:	39 f4       	brne	.+14     	; 0x2790 <OSSemPend+0x102>
        pevent->OSEventGrp &= ~OSTCBCur->OSTCBBitY;
    2782:	52 96       	adiw	r26, 0x12	; 18
    2784:	9c 91       	ld	r25, X
    2786:	52 97       	sbiw	r26, 0x12	; 18
    2788:	90 95       	com	r25
    278a:	89 81       	ldd	r24, Y+1	; 0x01
    278c:	89 23       	and	r24, r25
    278e:	89 83       	std	Y+1, r24	; 0x01
    }
    OSTCBCur->OSTCBStat     = OS_STAT_RDY;       /* Set status to ready                                */
    2790:	1d 96       	adiw	r26, 0x0d	; 13
    2792:	1c 92       	st	X, r1
    2794:	1d 97       	sbiw	r26, 0x0d	; 13
    OSTCBCur->OSTCBEventPtr = (OS_EVENT *)0;     /* No longer waiting for event                        */
    2796:	17 96       	adiw	r26, 0x07	; 7
    2798:	1c 92       	st	X, r1
    279a:	1e 92       	st	-X, r1
    279c:	16 97       	sbiw	r26, 0x06	; 6
        OS_EventTO(pevent);
        OS_EXIT_CRITICAL();
    279e:	0f 91       	pop	r16
    27a0:	0f bf       	out	0x3f, r16	; 63
    27a2:	0f 91       	pop	r16
        *err = OS_TIMEOUT;                            /* Indicate that didn't get event within TO      */
    27a4:	8a e0       	ldi	r24, 0x0A	; 10
    27a6:	f8 01       	movw	r30, r16
    27a8:	80 83       	st	Z, r24
    27aa:	09 c0       	rjmp	.+18     	; 0x27be <OSSemPend+0x130>
        return;
    }
    OSTCBCur->OSTCBEventPtr = (OS_EVENT *)0;
    27ac:	17 96       	adiw	r26, 0x07	; 7
    27ae:	1c 92       	st	X, r1
    27b0:	1e 92       	st	-X, r1
    27b2:	16 97       	sbiw	r26, 0x06	; 6
    OS_EXIT_CRITICAL();
    27b4:	0f 91       	pop	r16
    27b6:	0f bf       	out	0x3f, r16	; 63
    27b8:	0f 91       	pop	r16
    *err = OS_NO_ERR;
    27ba:	f8 01       	movw	r30, r16
    27bc:	10 82       	st	Z, r1
}
    27be:	df 91       	pop	r29
    27c0:	cf 91       	pop	r28
    27c2:	1f 91       	pop	r17
    27c4:	0f 91       	pop	r16
    27c6:	08 95       	ret

000027c8 <OSQPostOpt>:
*********************************************************************************************************
*/

#if OS_Q_POST_OPT_EN > 0
INT8U  OSQPostOpt (OS_EVENT *pevent, void *msg, INT8U opt)
{
    27c8:	0f 93       	push	r16
    27ca:	1f 93       	push	r17
    27cc:	cf 93       	push	r28
    27ce:	df 93       	push	r29
    27d0:	ec 01       	movw	r28, r24
    27d2:	8b 01       	movw	r16, r22
    }
    if (msg == (void *)0) {                           /* Make sure we are not posting a NULL pointer   */
        return (OS_ERR_POST_NULL_PTR);
    }
#endif
    if (pevent->OSEventType != OS_EVENT_TYPE_Q) {     /* Validate event block type                     */
    27d4:	88 81       	ld	r24, Y
    27d6:	82 30       	cpi	r24, 0x02	; 2
    27d8:	11 f0       	breq	.+4      	; 0x27de <OSQPostOpt+0x16>
    27da:	81 e0       	ldi	r24, 0x01	; 1
    27dc:	76 c0       	rjmp	.+236    	; 0x28ca <OSQPostOpt+0x102>
        return (OS_ERR_EVENT_TYPE);
    }
    OS_ENTER_CRITICAL();
    27de:	0f 93       	push	r16
    27e0:	0f b7       	in	r16, 0x3f	; 63
    27e2:	0f 93       	push	r16
    27e4:	f8 94       	cli
    if (pevent->OSEventGrp != 0x00) {                 /* See if any task pending on queue              */
    27e6:	89 81       	ldd	r24, Y+1	; 0x01
    27e8:	88 23       	and	r24, r24
    27ea:	b1 f0       	breq	.+44     	; 0x2818 <OSQPostOpt+0x50>
        if ((opt & OS_POST_OPT_BROADCAST) != 0x00) {  /* Do we need to post msg to ALL waiting tasks ? */
    27ec:	40 fd       	sbrc	r20, 0
    27ee:	06 c0       	rjmp	.+12     	; 0x27fc <OSQPostOpt+0x34>
    27f0:	09 c0       	rjmp	.+18     	; 0x2804 <OSQPostOpt+0x3c>
            while (pevent->OSEventGrp != 0x00) {      /* Yes, Post to ALL tasks waiting on queue       */
                OS_EventTaskRdy(pevent, msg, OS_STAT_Q);
    27f2:	ce 01       	movw	r24, r28
    27f4:	b8 01       	movw	r22, r16
    27f6:	44 e0       	ldi	r20, 0x04	; 4
    27f8:	0e 94 b4 0c 	call	0x1968	; 0x1968 <OS_EventTaskRdy>
        return (OS_ERR_EVENT_TYPE);
    }
    OS_ENTER_CRITICAL();
    if (pevent->OSEventGrp != 0x00) {                 /* See if any task pending on queue              */
        if ((opt & OS_POST_OPT_BROADCAST) != 0x00) {  /* Do we need to post msg to ALL waiting tasks ? */
            while (pevent->OSEventGrp != 0x00) {      /* Yes, Post to ALL tasks waiting on queue       */
    27fc:	89 81       	ldd	r24, Y+1	; 0x01
    27fe:	88 23       	and	r24, r24
    2800:	c1 f7       	brne	.-16     	; 0x27f2 <OSQPostOpt+0x2a>
    2802:	04 c0       	rjmp	.+8      	; 0x280c <OSQPostOpt+0x44>
                OS_EventTaskRdy(pevent, msg, OS_STAT_Q);
            }
        } else {
            OS_EventTaskRdy(pevent, msg, OS_STAT_Q);  /* No,  Post to HPT waiting on queue             */
    2804:	ce 01       	movw	r24, r28
    2806:	44 e0       	ldi	r20, 0x04	; 4
    2808:	0e 94 b4 0c 	call	0x1968	; 0x1968 <OS_EventTaskRdy>
        }
        OS_EXIT_CRITICAL();
    280c:	0f 91       	pop	r16
    280e:	0f bf       	out	0x3f, r16	; 63
    2810:	0f 91       	pop	r16
        OS_Sched();                                   /* Find highest priority task ready to run       */
    2812:	0e 94 ee 11 	call	0x23dc	; 0x23dc <OS_Sched>
    2816:	58 c0       	rjmp	.+176    	; 0x28c8 <OSQPostOpt+0x100>
        return (OS_NO_ERR);
    }
    pq = (OS_Q *)pevent->OSEventPtr;                  /* Point to queue control block                  */
    2818:	ac 81       	ldd	r26, Y+4	; 0x04
    281a:	bd 81       	ldd	r27, Y+5	; 0x05
    if (pq->OSQEntries >= pq->OSQSize) {              /* Make sure queue is not full                   */
    281c:	1c 96       	adiw	r26, 0x0c	; 12
    281e:	2d 91       	ld	r18, X+
    2820:	3c 91       	ld	r19, X
    2822:	1d 97       	sbiw	r26, 0x0d	; 13
    2824:	1a 96       	adiw	r26, 0x0a	; 10
    2826:	8d 91       	ld	r24, X+
    2828:	9c 91       	ld	r25, X
    282a:	1b 97       	sbiw	r26, 0x0b	; 11
    282c:	28 17       	cp	r18, r24
    282e:	39 07       	cpc	r19, r25
    2830:	28 f0       	brcs	.+10     	; 0x283c <OSQPostOpt+0x74>
        OS_EXIT_CRITICAL();
    2832:	0f 91       	pop	r16
    2834:	0f bf       	out	0x3f, r16	; 63
    2836:	0f 91       	pop	r16
    2838:	8e e1       	ldi	r24, 0x1E	; 30
    283a:	47 c0       	rjmp	.+142    	; 0x28ca <OSQPostOpt+0x102>
        return (OS_Q_FULL);
    }
    if ((opt & OS_POST_OPT_FRONT) != 0x00) {          /* Do we post to the FRONT of the queue?         */
    283c:	41 ff       	sbrs	r20, 1
    283e:	1f c0       	rjmp	.+62     	; 0x287e <OSQPostOpt+0xb6>
        if (pq->OSQOut == pq->OSQStart) {             /* Yes, Post as LIFO, Wrap OUT pointer if we ... */
    2840:	18 96       	adiw	r26, 0x08	; 8
    2842:	2d 91       	ld	r18, X+
    2844:	3c 91       	ld	r19, X
    2846:	19 97       	sbiw	r26, 0x09	; 9
    2848:	12 96       	adiw	r26, 0x02	; 2
    284a:	8d 91       	ld	r24, X+
    284c:	9c 91       	ld	r25, X
    284e:	13 97       	sbiw	r26, 0x03	; 3
    2850:	28 17       	cp	r18, r24
    2852:	39 07       	cpc	r19, r25
    2854:	41 f4       	brne	.+16     	; 0x2866 <OSQPostOpt+0x9e>
            pq->OSQOut = pq->OSQEnd;                  /*      ... are at the 1st queue entry           */
    2856:	14 96       	adiw	r26, 0x04	; 4
    2858:	8d 91       	ld	r24, X+
    285a:	9c 91       	ld	r25, X
    285c:	15 97       	sbiw	r26, 0x05	; 5
    285e:	19 96       	adiw	r26, 0x09	; 9
    2860:	9c 93       	st	X, r25
    2862:	8e 93       	st	-X, r24
    2864:	18 97       	sbiw	r26, 0x08	; 8
        }
        pq->OSQOut--;
    2866:	18 96       	adiw	r26, 0x08	; 8
    2868:	ed 91       	ld	r30, X+
    286a:	fc 91       	ld	r31, X
    286c:	19 97       	sbiw	r26, 0x09	; 9
    286e:	32 97       	sbiw	r30, 0x02	; 2
    2870:	19 96       	adiw	r26, 0x09	; 9
    2872:	fc 93       	st	X, r31
    2874:	ee 93       	st	-X, r30
    2876:	18 97       	sbiw	r26, 0x08	; 8
        *pq->OSQOut = msg;                            /*      Insert message into queue                */
    2878:	11 83       	std	Z+1, r17	; 0x01
    287a:	00 83       	st	Z, r16
    287c:	19 c0       	rjmp	.+50     	; 0x28b0 <OSQPostOpt+0xe8>
    } else {                                          /* No,  Post as FIFO                             */
        *pq->OSQIn++ = msg;                           /*      Insert message into queue                */
    287e:	16 96       	adiw	r26, 0x06	; 6
    2880:	ed 91       	ld	r30, X+
    2882:	fc 91       	ld	r31, X
    2884:	17 97       	sbiw	r26, 0x07	; 7
    2886:	61 93       	st	Z+, r22
    2888:	71 93       	st	Z+, r23
    288a:	17 96       	adiw	r26, 0x07	; 7
    288c:	fc 93       	st	X, r31
    288e:	ee 93       	st	-X, r30
    2890:	16 97       	sbiw	r26, 0x06	; 6
        if (pq->OSQIn == pq->OSQEnd) {                /*      Wrap IN ptr if we are at end of queue    */
    2892:	14 96       	adiw	r26, 0x04	; 4
    2894:	8d 91       	ld	r24, X+
    2896:	9c 91       	ld	r25, X
    2898:	15 97       	sbiw	r26, 0x05	; 5
    289a:	e8 17       	cp	r30, r24
    289c:	f9 07       	cpc	r31, r25
    289e:	41 f4       	brne	.+16     	; 0x28b0 <OSQPostOpt+0xe8>
            pq->OSQIn = pq->OSQStart;
    28a0:	12 96       	adiw	r26, 0x02	; 2
    28a2:	8d 91       	ld	r24, X+
    28a4:	9c 91       	ld	r25, X
    28a6:	13 97       	sbiw	r26, 0x03	; 3
    28a8:	17 96       	adiw	r26, 0x07	; 7
    28aa:	9c 93       	st	X, r25
    28ac:	8e 93       	st	-X, r24
    28ae:	16 97       	sbiw	r26, 0x06	; 6
        }
    }
    pq->OSQEntries++;                                 /* Update the nbr of entries in the queue        */
    28b0:	1c 96       	adiw	r26, 0x0c	; 12
    28b2:	8d 91       	ld	r24, X+
    28b4:	9c 91       	ld	r25, X
    28b6:	1d 97       	sbiw	r26, 0x0d	; 13
    28b8:	01 96       	adiw	r24, 0x01	; 1
    28ba:	1d 96       	adiw	r26, 0x0d	; 13
    28bc:	9c 93       	st	X, r25
    28be:	8e 93       	st	-X, r24
    28c0:	1c 97       	sbiw	r26, 0x0c	; 12
    OS_EXIT_CRITICAL();
    28c2:	0f 91       	pop	r16
    28c4:	0f bf       	out	0x3f, r16	; 63
    28c6:	0f 91       	pop	r16
    28c8:	80 e0       	ldi	r24, 0x00	; 0
    return (OS_NO_ERR);
}
    28ca:	df 91       	pop	r29
    28cc:	cf 91       	pop	r28
    28ce:	1f 91       	pop	r17
    28d0:	0f 91       	pop	r16
    28d2:	08 95       	ret

000028d4 <OSQPost>:
*********************************************************************************************************
*/

#if OS_Q_POST_EN > 0
INT8U  OSQPost (OS_EVENT *pevent, void *msg)
{
    28d4:	fc 01       	movw	r30, r24
#if OS_ARG_CHK_EN > 0
    if (pevent == (OS_EVENT *)0) {                    /* Validate 'pevent'                             */
        return (OS_ERR_PEVENT_NULL);
    }
#endif
    if (pevent->OSEventType != OS_EVENT_TYPE_Q) {     /* Validate event block type                     */
    28d6:	80 81       	ld	r24, Z
    28d8:	82 30       	cpi	r24, 0x02	; 2
    28da:	11 f0       	breq	.+4      	; 0x28e0 <OSQPost+0xc>
    28dc:	81 e0       	ldi	r24, 0x01	; 1
    28de:	08 95       	ret
        return (OS_ERR_EVENT_TYPE);
    }
    OS_ENTER_CRITICAL();
    28e0:	0f 93       	push	r16
    28e2:	0f b7       	in	r16, 0x3f	; 63
    28e4:	0f 93       	push	r16
    28e6:	f8 94       	cli
    if (pevent->OSEventGrp != 0x00) {                 /* See if any task pending on queue              */
    28e8:	81 81       	ldd	r24, Z+1	; 0x01
    28ea:	88 23       	and	r24, r24
    28ec:	59 f0       	breq	.+22     	; 0x2904 <OSQPost+0x30>
        OS_EventTaskRdy(pevent, msg, OS_STAT_Q);      /* Ready highest priority task waiting on event  */
    28ee:	cf 01       	movw	r24, r30
    28f0:	44 e0       	ldi	r20, 0x04	; 4
    28f2:	0e 94 b4 0c 	call	0x1968	; 0x1968 <OS_EventTaskRdy>
        OS_EXIT_CRITICAL();
    28f6:	0f 91       	pop	r16
    28f8:	0f bf       	out	0x3f, r16	; 63
    28fa:	0f 91       	pop	r16
        OS_Sched();                                   /* Find highest priority task ready to run       */
    28fc:	0e 94 ee 11 	call	0x23dc	; 0x23dc <OS_Sched>
    2900:	80 e0       	ldi	r24, 0x00	; 0
    2902:	08 95       	ret
        return (OS_NO_ERR);
    }
    pq = (OS_Q *)pevent->OSEventPtr;                  /* Point to queue control block                  */
    2904:	a4 81       	ldd	r26, Z+4	; 0x04
    2906:	b5 81       	ldd	r27, Z+5	; 0x05
    if (pq->OSQEntries >= pq->OSQSize) {              /* Make sure queue is not full                   */
    2908:	1c 96       	adiw	r26, 0x0c	; 12
    290a:	2d 91       	ld	r18, X+
    290c:	3c 91       	ld	r19, X
    290e:	1d 97       	sbiw	r26, 0x0d	; 13
    2910:	1a 96       	adiw	r26, 0x0a	; 10
    2912:	8d 91       	ld	r24, X+
    2914:	9c 91       	ld	r25, X
    2916:	1b 97       	sbiw	r26, 0x0b	; 11
    2918:	28 17       	cp	r18, r24
    291a:	39 07       	cpc	r19, r25
    291c:	28 f0       	brcs	.+10     	; 0x2928 <OSQPost+0x54>
        OS_EXIT_CRITICAL();
    291e:	0f 91       	pop	r16
    2920:	0f bf       	out	0x3f, r16	; 63
    2922:	0f 91       	pop	r16
    2924:	8e e1       	ldi	r24, 0x1E	; 30
    2926:	08 95       	ret
        return (OS_Q_FULL);
    }
    *pq->OSQIn++ = msg;                               /* Insert message into queue                     */
    2928:	16 96       	adiw	r26, 0x06	; 6
    292a:	ed 91       	ld	r30, X+
    292c:	fc 91       	ld	r31, X
    292e:	17 97       	sbiw	r26, 0x07	; 7
    2930:	61 93       	st	Z+, r22
    2932:	71 93       	st	Z+, r23
    2934:	17 96       	adiw	r26, 0x07	; 7
    2936:	fc 93       	st	X, r31
    2938:	ee 93       	st	-X, r30
    293a:	16 97       	sbiw	r26, 0x06	; 6
    pq->OSQEntries++;                                 /* Update the nbr of entries in the queue        */
    293c:	2f 5f       	subi	r18, 0xFF	; 255
    293e:	3f 4f       	sbci	r19, 0xFF	; 255
    2940:	1d 96       	adiw	r26, 0x0d	; 13
    2942:	3c 93       	st	X, r19
    2944:	2e 93       	st	-X, r18
    2946:	1c 97       	sbiw	r26, 0x0c	; 12
    if (pq->OSQIn == pq->OSQEnd) {                    /* Wrap IN ptr if we are at end of queue         */
    2948:	14 96       	adiw	r26, 0x04	; 4
    294a:	8d 91       	ld	r24, X+
    294c:	9c 91       	ld	r25, X
    294e:	15 97       	sbiw	r26, 0x05	; 5
    2950:	e8 17       	cp	r30, r24
    2952:	f9 07       	cpc	r31, r25
    2954:	41 f4       	brne	.+16     	; 0x2966 <OSQPost+0x92>
        pq->OSQIn = pq->OSQStart;
    2956:	12 96       	adiw	r26, 0x02	; 2
    2958:	8d 91       	ld	r24, X+
    295a:	9c 91       	ld	r25, X
    295c:	13 97       	sbiw	r26, 0x03	; 3
    295e:	17 96       	adiw	r26, 0x07	; 7
    2960:	9c 93       	st	X, r25
    2962:	8e 93       	st	-X, r24
    2964:	16 97       	sbiw	r26, 0x06	; 6
    }
    OS_EXIT_CRITICAL();
    2966:	0f 91       	pop	r16
    2968:	0f bf       	out	0x3f, r16	; 63
    296a:	0f 91       	pop	r16
    296c:	80 e0       	ldi	r24, 0x00	; 0
    return (OS_NO_ERR);
}
    296e:	08 95       	ret

00002970 <OSQPend>:
* Note(s)    : As of V2.60, this function allows you to receive NULL pointer messages.
*********************************************************************************************************
*/

void  *OSQPend (OS_EVENT *pevent, INT16U timeout, INT8U *err)
{
    2970:	0f 93       	push	r16
    2972:	1f 93       	push	r17
    2974:	cf 93       	push	r28
    2976:	df 93       	push	r29
    2978:	ec 01       	movw	r28, r24
    297a:	8a 01       	movw	r16, r20
#endif
    void      *msg;
    OS_Q      *pq;


    if (OSIntNesting > 0) {                      /* See if called from ISR ...                         */
    297c:	80 91 3b 04 	lds	r24, 0x043B
    2980:	88 23       	and	r24, r24
    2982:	11 f0       	breq	.+4      	; 0x2988 <OSQPend+0x18>
        *err = OS_ERR_PEND_ISR;                  /* ... can't PEND from an ISR                         */
    2984:	82 e0       	ldi	r24, 0x02	; 2
    2986:	9a c0       	rjmp	.+308    	; 0x2abc <OSQPend+0x14c>
    if (pevent->OSEventType != OS_EVENT_TYPE_Q) {/* Validate event block type                          */
        *err = OS_ERR_EVENT_TYPE;
        return ((void *)0);
    }
#endif
    OS_ENTER_CRITICAL();
    2988:	0f 93       	push	r16
    298a:	0f b7       	in	r16, 0x3f	; 63
    298c:	0f 93       	push	r16
    298e:	f8 94       	cli
    pq = (OS_Q *)pevent->OSEventPtr;             /* Point at queue control block                       */
    2990:	ac 81       	ldd	r26, Y+4	; 0x04
    2992:	bd 81       	ldd	r27, Y+5	; 0x05
    if (pq->OSQEntries > 0) {                    /* See if any messages in the queue                   */
    2994:	1c 96       	adiw	r26, 0x0c	; 12
    2996:	8d 91       	ld	r24, X+
    2998:	9c 91       	ld	r25, X
    299a:	1d 97       	sbiw	r26, 0x0d	; 13
    299c:	00 97       	sbiw	r24, 0x00	; 0
    299e:	11 f1       	breq	.+68     	; 0x29e4 <OSQPend+0x74>
        msg = *pq->OSQOut++;                     /* Yes, extract oldest message from the queue         */
    29a0:	18 96       	adiw	r26, 0x08	; 8
    29a2:	ed 91       	ld	r30, X+
    29a4:	fc 91       	ld	r31, X
    29a6:	19 97       	sbiw	r26, 0x09	; 9
    29a8:	21 91       	ld	r18, Z+
    29aa:	31 91       	ld	r19, Z+
    29ac:	19 96       	adiw	r26, 0x09	; 9
    29ae:	fc 93       	st	X, r31
    29b0:	ee 93       	st	-X, r30
    29b2:	18 97       	sbiw	r26, 0x08	; 8
        pq->OSQEntries--;                        /* Update the number of entries in the queue          */
    29b4:	01 97       	sbiw	r24, 0x01	; 1
    29b6:	1d 96       	adiw	r26, 0x0d	; 13
    29b8:	9c 93       	st	X, r25
    29ba:	8e 93       	st	-X, r24
    29bc:	1c 97       	sbiw	r26, 0x0c	; 12
        if (pq->OSQOut == pq->OSQEnd) {          /* Wrap OUT pointer if we are at the end of the queue */
    29be:	14 96       	adiw	r26, 0x04	; 4
    29c0:	8d 91       	ld	r24, X+
    29c2:	9c 91       	ld	r25, X
    29c4:	15 97       	sbiw	r26, 0x05	; 5
    29c6:	e8 17       	cp	r30, r24
    29c8:	f9 07       	cpc	r31, r25
    29ca:	41 f4       	brne	.+16     	; 0x29dc <OSQPend+0x6c>
            pq->OSQOut = pq->OSQStart;
    29cc:	12 96       	adiw	r26, 0x02	; 2
    29ce:	8d 91       	ld	r24, X+
    29d0:	9c 91       	ld	r25, X
    29d2:	13 97       	sbiw	r26, 0x03	; 3
    29d4:	19 96       	adiw	r26, 0x09	; 9
    29d6:	9c 93       	st	X, r25
    29d8:	8e 93       	st	-X, r24
    29da:	18 97       	sbiw	r26, 0x08	; 8
        }
        OS_EXIT_CRITICAL();
    29dc:	0f 91       	pop	r16
    29de:	0f bf       	out	0x3f, r16	; 63
    29e0:	0f 91       	pop	r16
    29e2:	83 c0       	rjmp	.+262    	; 0x2aea <OSQPend+0x17a>
        *err = OS_NO_ERR;
        return (msg);                            /* Return message received                            */
    }
    OSTCBCur->OSTCBStat |= OS_STAT_Q;            /* Task will have to pend for a message to be posted  */
    29e4:	a0 91 3c 04 	lds	r26, 0x043C
    29e8:	b0 91 3d 04 	lds	r27, 0x043D
    29ec:	1d 96       	adiw	r26, 0x0d	; 13
    29ee:	8c 91       	ld	r24, X
    29f0:	1d 97       	sbiw	r26, 0x0d	; 13
    29f2:	84 60       	ori	r24, 0x04	; 4
    29f4:	1d 96       	adiw	r26, 0x0d	; 13
    29f6:	8c 93       	st	X, r24
    29f8:	1d 97       	sbiw	r26, 0x0d	; 13
    OSTCBCur->OSTCBDly   = timeout;              /* Load timeout into TCB                              */
    29fa:	1c 96       	adiw	r26, 0x0c	; 12
    29fc:	7c 93       	st	X, r23
    29fe:	6e 93       	st	-X, r22
    2a00:	1b 97       	sbiw	r26, 0x0b	; 11
void  OS_EventTaskWait (OS_EVENT *pevent)
{
    INT8U  y;


    OSTCBCur->OSTCBEventPtr = pevent;            /* Store pointer to event control block in TCB        */
    2a02:	17 96       	adiw	r26, 0x07	; 7
    2a04:	dc 93       	st	X, r29
    2a06:	ce 93       	st	-X, r28
    2a08:	16 97       	sbiw	r26, 0x06	; 6
    y                       = OSTCBCur->OSTCBY;  /* Task no longer ready                               */
    OSRdyTbl[y]            &= ~OSTCBCur->OSTCBBitX;
    2a0a:	50 96       	adiw	r26, 0x10	; 16
    2a0c:	8c 91       	ld	r24, X
    2a0e:	50 97       	sbiw	r26, 0x10	; 16
    2a10:	28 2f       	mov	r18, r24
    2a12:	30 e0       	ldi	r19, 0x00	; 0
    2a14:	51 96       	adiw	r26, 0x11	; 17
    2a16:	4c 91       	ld	r20, X
    2a18:	51 97       	sbiw	r26, 0x11	; 17
    2a1a:	f9 01       	movw	r30, r18
    2a1c:	ea 5c       	subi	r30, 0xCA	; 202
    2a1e:	fb 4f       	sbci	r31, 0xFB	; 251
    2a20:	84 2f       	mov	r24, r20
    2a22:	80 95       	com	r24
    2a24:	90 81       	ld	r25, Z
    2a26:	89 23       	and	r24, r25
    2a28:	80 83       	st	Z, r24
    if (OSRdyTbl[y] == 0x00) {                   
    2a2a:	88 23       	and	r24, r24
    2a2c:	49 f4       	brne	.+18     	; 0x2a40 <OSQPend+0xd0>
        OSRdyGrp &= ~OSTCBCur->OSTCBBitY;        /* Clear event grp bit if this was only task pending  */
    2a2e:	52 96       	adiw	r26, 0x12	; 18
    2a30:	9c 91       	ld	r25, X
    2a32:	52 97       	sbiw	r26, 0x12	; 18
    2a34:	90 95       	com	r25
    2a36:	80 91 35 04 	lds	r24, 0x0435
    2a3a:	89 23       	and	r24, r25
    2a3c:	80 93 35 04 	sts	0x0435, r24
    }
    pevent->OSEventTbl[OSTCBCur->OSTCBY] |= OSTCBCur->OSTCBBitX;          /* Put task in waiting list  */
    2a40:	fe 01       	movw	r30, r28
    2a42:	e2 0f       	add	r30, r18
    2a44:	f3 1f       	adc	r31, r19
    2a46:	86 81       	ldd	r24, Z+6	; 0x06
    2a48:	84 2b       	or	r24, r20
    2a4a:	86 83       	std	Z+6, r24	; 0x06
    pevent->OSEventGrp                   |= OSTCBCur->OSTCBBitY;
    2a4c:	89 81       	ldd	r24, Y+1	; 0x01
    2a4e:	52 96       	adiw	r26, 0x12	; 18
    2a50:	9c 91       	ld	r25, X
    2a52:	89 2b       	or	r24, r25
    2a54:	89 83       	std	Y+1, r24	; 0x01
    OS_EventTaskWait(pevent);                    /* Suspend task until event or timeout occurs         */
    OS_EXIT_CRITICAL();
    2a56:	0f 91       	pop	r16
    2a58:	0f bf       	out	0x3f, r16	; 63
    2a5a:	0f 91       	pop	r16
    OS_Sched();                                  /* Find next highest priority task ready to run       */
    2a5c:	0e 94 ee 11 	call	0x23dc	; 0x23dc <OS_Sched>
    OS_ENTER_CRITICAL();
    2a60:	0f 93       	push	r16
    2a62:	0f b7       	in	r16, 0x3f	; 63
    2a64:	0f 93       	push	r16
    2a66:	f8 94       	cli
    if (OSTCBCur->OSTCBStat & OS_STAT_Q) {       /* Was task readied because of a timeout?             */
    2a68:	a0 91 3c 04 	lds	r26, 0x043C
    2a6c:	b0 91 3d 04 	lds	r27, 0x043D
    2a70:	1d 96       	adiw	r26, 0x0d	; 13
    2a72:	8c 91       	ld	r24, X
    2a74:	1d 97       	sbiw	r26, 0x0d	; 13
    2a76:	82 ff       	sbrs	r24, 2
    2a78:	26 c0       	rjmp	.+76     	; 0x2ac6 <OSQPend+0x156>
{
    INT8U  y;


    y                      = OSTCBCur->OSTCBY;
    pevent->OSEventTbl[y] &= ~OSTCBCur->OSTCBBitX;
    2a7a:	50 96       	adiw	r26, 0x10	; 16
    2a7c:	8c 91       	ld	r24, X
    2a7e:	50 97       	sbiw	r26, 0x10	; 16
    2a80:	fe 01       	movw	r30, r28
    2a82:	e8 0f       	add	r30, r24
    2a84:	f1 1d       	adc	r31, r1
    2a86:	51 96       	adiw	r26, 0x11	; 17
    2a88:	8c 91       	ld	r24, X
    2a8a:	51 97       	sbiw	r26, 0x11	; 17
    2a8c:	80 95       	com	r24
    2a8e:	96 81       	ldd	r25, Z+6	; 0x06
    2a90:	89 23       	and	r24, r25
    2a92:	86 83       	std	Z+6, r24	; 0x06
    if (pevent->OSEventTbl[y] == 0x00) {
    2a94:	88 23       	and	r24, r24
    2a96:	39 f4       	brne	.+14     	; 0x2aa6 <OSQPend+0x136>
        pevent->OSEventGrp &= ~OSTCBCur->OSTCBBitY;
    2a98:	52 96       	adiw	r26, 0x12	; 18
    2a9a:	9c 91       	ld	r25, X
    2a9c:	52 97       	sbiw	r26, 0x12	; 18
    2a9e:	90 95       	com	r25
    2aa0:	89 81       	ldd	r24, Y+1	; 0x01
    2aa2:	89 23       	and	r24, r25
    2aa4:	89 83       	std	Y+1, r24	; 0x01
    }
    OSTCBCur->OSTCBStat     = OS_STAT_RDY;       /* Set status to ready                                */
    2aa6:	1d 96       	adiw	r26, 0x0d	; 13
    2aa8:	1c 92       	st	X, r1
    2aaa:	1d 97       	sbiw	r26, 0x0d	; 13
    OSTCBCur->OSTCBEventPtr = (OS_EVENT *)0;     /* No longer waiting for event                        */
    2aac:	17 96       	adiw	r26, 0x07	; 7
    2aae:	1c 92       	st	X, r1
    2ab0:	1e 92       	st	-X, r1
    2ab2:	16 97       	sbiw	r26, 0x06	; 6
        OS_EventTO(pevent);                      /* Yes                                                */
        OS_EXIT_CRITICAL();
    2ab4:	0f 91       	pop	r16
    2ab6:	0f bf       	out	0x3f, r16	; 63
    2ab8:	0f 91       	pop	r16
        *err = OS_TIMEOUT;                       /*     Indicate a timeout occured                     */
    2aba:	8a e0       	ldi	r24, 0x0A	; 10
    2abc:	f8 01       	movw	r30, r16
    2abe:	80 83       	st	Z, r24
    2ac0:	20 e0       	ldi	r18, 0x00	; 0
    2ac2:	30 e0       	ldi	r19, 0x00	; 0
    2ac4:	14 c0       	rjmp	.+40     	; 0x2aee <OSQPend+0x17e>
        return ((void *)0);                      /*     No message received                            */
    }
    msg                     = OSTCBCur->OSTCBMsg;/* No, Extract message from TCB (Put there by QPost)  */
    2ac6:	18 96       	adiw	r26, 0x08	; 8
    2ac8:	2d 91       	ld	r18, X+
    2aca:	3c 91       	ld	r19, X
    2acc:	19 97       	sbiw	r26, 0x09	; 9
    OSTCBCur->OSTCBMsg      = (void *)0;
    2ace:	19 96       	adiw	r26, 0x09	; 9
    2ad0:	1c 92       	st	X, r1
    2ad2:	1e 92       	st	-X, r1
    2ad4:	18 97       	sbiw	r26, 0x08	; 8
    OSTCBCur->OSTCBStat     = OS_STAT_RDY;
    2ad6:	1d 96       	adiw	r26, 0x0d	; 13
    2ad8:	1c 92       	st	X, r1
    2ada:	1d 97       	sbiw	r26, 0x0d	; 13
    OSTCBCur->OSTCBEventPtr = (OS_EVENT *)0;     /*     No longer waiting for event                    */
    2adc:	17 96       	adiw	r26, 0x07	; 7
    2ade:	1c 92       	st	X, r1
    2ae0:	1e 92       	st	-X, r1
    2ae2:	16 97       	sbiw	r26, 0x06	; 6
    OS_EXIT_CRITICAL();
    2ae4:	0f 91       	pop	r16
    2ae6:	0f bf       	out	0x3f, r16	; 63
    2ae8:	0f 91       	pop	r16
    *err                    = OS_NO_ERR;
    2aea:	f8 01       	movw	r30, r16
    2aec:	10 82       	st	Z, r1
    return (msg);                                /*     Return message received                        */
}
    2aee:	c9 01       	movw	r24, r18
    2af0:	df 91       	pop	r29
    2af2:	cf 91       	pop	r28
    2af4:	1f 91       	pop	r17
    2af6:	0f 91       	pop	r16
    2af8:	08 95       	ret

00002afa <OSMutexPost>:
*              OS_ERR_NOT_MUTEX_OWNER  The task that did the post is NOT the owner of the MUTEX.
*********************************************************************************************************
*/

INT8U  OSMutexPost (OS_EVENT *pevent)
{
    2afa:	cf 93       	push	r28
    2afc:	df 93       	push	r29
    2afe:	ec 01       	movw	r28, r24
#endif    
    INT8U      pip;                                   /* Priority inheritance priority                 */
    INT8U      prio;


    if (OSIntNesting > 0) {                           /* See if called from ISR ...                    */
    2b00:	80 91 3b 04 	lds	r24, 0x043B
    2b04:	88 23       	and	r24, r24
    2b06:	11 f0       	breq	.+4      	; 0x2b0c <OSMutexPost+0x12>
    2b08:	85 e0       	ldi	r24, 0x05	; 5
    2b0a:	9f c0       	rjmp	.+318    	; 0x2c4a <OSMutexPost+0x150>
#if OS_ARG_CHK_EN > 0
    if (pevent == (OS_EVENT *)0) {                    /* Validate 'pevent'                             */
        return (OS_ERR_PEVENT_NULL);
    }
#endif
    if (pevent->OSEventType != OS_EVENT_TYPE_MUTEX) { /* Validate event block type                     */
    2b0c:	88 81       	ld	r24, Y
    2b0e:	84 30       	cpi	r24, 0x04	; 4
    2b10:	11 f0       	breq	.+4      	; 0x2b16 <OSMutexPost+0x1c>
    2b12:	81 e0       	ldi	r24, 0x01	; 1
    2b14:	9a c0       	rjmp	.+308    	; 0x2c4a <OSMutexPost+0x150>
        return (OS_ERR_EVENT_TYPE);
    }                                                 
    OS_ENTER_CRITICAL();
    2b16:	0f 93       	push	r16
    2b18:	0f b7       	in	r16, 0x3f	; 63
    2b1a:	0f 93       	push	r16
    2b1c:	f8 94       	cli
    pip  = (INT8U)(pevent->OSEventCnt >> 8);          /* Get priority inheritance priority of mutex    */
    2b1e:	3a 81       	ldd	r19, Y+2	; 0x02
    2b20:	4b 81       	ldd	r20, Y+3	; 0x03
    prio = (INT8U)(pevent->OSEventCnt & OS_MUTEX_KEEP_LOWER_8);  /* Get owner's original priority      */
    if (OSTCBCur != (OS_TCB *)pevent->OSEventPtr) {   /* See if posting task owns the MUTEX            */
    2b22:	a0 91 3c 04 	lds	r26, 0x043C
    2b26:	b0 91 3d 04 	lds	r27, 0x043D
    2b2a:	8c 81       	ldd	r24, Y+4	; 0x04
    2b2c:	9d 81       	ldd	r25, Y+5	; 0x05
    2b2e:	a8 17       	cp	r26, r24
    2b30:	b9 07       	cpc	r27, r25
    2b32:	29 f0       	breq	.+10     	; 0x2b3e <OSMutexPost+0x44>
        OS_EXIT_CRITICAL();
    2b34:	0f 91       	pop	r16
    2b36:	0f bf       	out	0x3f, r16	; 63
    2b38:	0f 91       	pop	r16
    2b3a:	88 e7       	ldi	r24, 0x78	; 120
    2b3c:	86 c0       	rjmp	.+268    	; 0x2c4a <OSMutexPost+0x150>
        return (OS_ERR_NOT_MUTEX_OWNER);
    }
    if (OSTCBCur->OSTCBPrio == pip) {                 /* Did we have to raise current task's priority? */
    2b3e:	1e 96       	adiw	r26, 0x0e	; 14
    2b40:	8c 91       	ld	r24, X
    2b42:	1e 97       	sbiw	r26, 0x0e	; 14
    2b44:	84 17       	cp	r24, r20
    2b46:	09 f0       	breq	.+2      	; 0x2b4a <OSMutexPost+0x50>
    2b48:	4b c0       	rjmp	.+150    	; 0x2be0 <OSMutexPost+0xe6>
                                                      /* Yes, Return to original priority              */
                                                      /*      Remove owner from ready list at 'pip'    */
        if ((OSRdyTbl[OSTCBCur->OSTCBY] &= ~OSTCBCur->OSTCBBitX) == 0) {
    2b4a:	50 96       	adiw	r26, 0x10	; 16
    2b4c:	ec 91       	ld	r30, X
    2b4e:	50 97       	sbiw	r26, 0x10	; 16
    2b50:	f0 e0       	ldi	r31, 0x00	; 0
    2b52:	ea 5c       	subi	r30, 0xCA	; 202
    2b54:	fb 4f       	sbci	r31, 0xFB	; 251
    2b56:	51 96       	adiw	r26, 0x11	; 17
    2b58:	8c 91       	ld	r24, X
    2b5a:	51 97       	sbiw	r26, 0x11	; 17
    2b5c:	80 95       	com	r24
    2b5e:	90 81       	ld	r25, Z
    2b60:	89 23       	and	r24, r25
    2b62:	80 83       	st	Z, r24
    2b64:	88 23       	and	r24, r24
    2b66:	49 f4       	brne	.+18     	; 0x2b7a <OSMutexPost+0x80>
            OSRdyGrp &= ~OSTCBCur->OSTCBBitY;
    2b68:	52 96       	adiw	r26, 0x12	; 18
    2b6a:	9c 91       	ld	r25, X
    2b6c:	52 97       	sbiw	r26, 0x12	; 18
    2b6e:	90 95       	com	r25
    2b70:	80 91 35 04 	lds	r24, 0x0435
    2b74:	89 23       	and	r24, r25
    2b76:	80 93 35 04 	sts	0x0435, r24
        }
        OSTCBCur->OSTCBPrio         = prio;
    2b7a:	1e 96       	adiw	r26, 0x0e	; 14
    2b7c:	3c 93       	st	X, r19
    2b7e:	1e 97       	sbiw	r26, 0x0e	; 14
        OSTCBCur->OSTCBY            = prio >> 3;
    2b80:	e3 2f       	mov	r30, r19
    2b82:	e6 95       	lsr	r30
    2b84:	e6 95       	lsr	r30
    2b86:	e6 95       	lsr	r30
    2b88:	50 96       	adiw	r26, 0x10	; 16
    2b8a:	ec 93       	st	X, r30
    2b8c:	50 97       	sbiw	r26, 0x10	; 16
        OSTCBCur->OSTCBBitY         = OSMapTbl[OSTCBCur->OSTCBY];
    2b8e:	f0 e0       	ldi	r31, 0x00	; 0
    2b90:	ee 58       	subi	r30, 0x8E	; 142
    2b92:	ff 4f       	sbci	r31, 0xFF	; 255
    2b94:	20 81       	ld	r18, Z
    2b96:	52 96       	adiw	r26, 0x12	; 18
    2b98:	2c 93       	st	X, r18
    2b9a:	52 97       	sbiw	r26, 0x12	; 18
        OSTCBCur->OSTCBX            = prio & 0x07;
    2b9c:	e3 2f       	mov	r30, r19
    2b9e:	e7 70       	andi	r30, 0x07	; 7
    2ba0:	1f 96       	adiw	r26, 0x0f	; 15
    2ba2:	ec 93       	st	X, r30
    2ba4:	1f 97       	sbiw	r26, 0x0f	; 15
        OSTCBCur->OSTCBBitX         = OSMapTbl[OSTCBCur->OSTCBX];
    2ba6:	f0 e0       	ldi	r31, 0x00	; 0
    2ba8:	ee 58       	subi	r30, 0x8E	; 142
    2baa:	ff 4f       	sbci	r31, 0xFF	; 255
    2bac:	90 81       	ld	r25, Z
    2bae:	51 96       	adiw	r26, 0x11	; 17
    2bb0:	9c 93       	st	X, r25
    2bb2:	51 97       	sbiw	r26, 0x11	; 17
        OSRdyGrp                   |= OSTCBCur->OSTCBBitY;
    2bb4:	80 91 35 04 	lds	r24, 0x0435
    2bb8:	82 2b       	or	r24, r18
    2bba:	80 93 35 04 	sts	0x0435, r24
        OSRdyTbl[OSTCBCur->OSTCBY] |= OSTCBCur->OSTCBBitX;
    2bbe:	50 96       	adiw	r26, 0x10	; 16
    2bc0:	ec 91       	ld	r30, X
    2bc2:	50 97       	sbiw	r26, 0x10	; 16
    2bc4:	f0 e0       	ldi	r31, 0x00	; 0
    2bc6:	ea 5c       	subi	r30, 0xCA	; 202
    2bc8:	fb 4f       	sbci	r31, 0xFB	; 251
    2bca:	80 81       	ld	r24, Z
    2bcc:	98 2b       	or	r25, r24
    2bce:	90 83       	st	Z, r25
        OSTCBPrioTbl[prio]          = (OS_TCB *)OSTCBCur;
    2bd0:	e3 2f       	mov	r30, r19
    2bd2:	f0 e0       	ldi	r31, 0x00	; 0
    2bd4:	ee 0f       	add	r30, r30
    2bd6:	ff 1f       	adc	r31, r31
    2bd8:	ee 5f       	subi	r30, 0xFE	; 254
    2bda:	f9 4f       	sbci	r31, 0xF9	; 249
    2bdc:	b1 83       	std	Z+1, r27	; 0x01
    2bde:	a0 83       	st	Z, r26
    }
    OSTCBPrioTbl[pip] = (OS_TCB *)1;                  /* Reserve table entry                           */
    2be0:	e4 2f       	mov	r30, r20
    2be2:	f0 e0       	ldi	r31, 0x00	; 0
    2be4:	ee 0f       	add	r30, r30
    2be6:	ff 1f       	adc	r31, r31
    2be8:	ee 5f       	subi	r30, 0xFE	; 254
    2bea:	f9 4f       	sbci	r31, 0xF9	; 249
    2bec:	81 e0       	ldi	r24, 0x01	; 1
    2bee:	90 e0       	ldi	r25, 0x00	; 0
    2bf0:	91 83       	std	Z+1, r25	; 0x01
    2bf2:	80 83       	st	Z, r24
    if (pevent->OSEventGrp != 0x00) {                 /* Any task waiting for the mutex?               */
    2bf4:	89 81       	ldd	r24, Y+1	; 0x01
    2bf6:	88 23       	and	r24, r24
    2bf8:	e9 f0       	breq	.+58     	; 0x2c34 <OSMutexPost+0x13a>
                                                      /* Yes, Make HPT waiting for mutex ready         */
        prio                = OS_EventTaskRdy(pevent, (void *)0, OS_STAT_MUTEX);
    2bfa:	ce 01       	movw	r24, r28
    2bfc:	60 e0       	ldi	r22, 0x00	; 0
    2bfe:	70 e0       	ldi	r23, 0x00	; 0
    2c00:	40 e1       	ldi	r20, 0x10	; 16
    2c02:	0e 94 b4 0c 	call	0x1968	; 0x1968 <OS_EventTaskRdy>
        pevent->OSEventCnt &= OS_MUTEX_KEEP_UPPER_8;  /*      Save priority of mutex's new owner       */
        pevent->OSEventCnt |= prio;
    2c06:	e8 2f       	mov	r30, r24
    2c08:	f0 e0       	ldi	r31, 0x00	; 0
    2c0a:	8a 81       	ldd	r24, Y+2	; 0x02
    2c0c:	9b 81       	ldd	r25, Y+3	; 0x03
    2c0e:	80 70       	andi	r24, 0x00	; 0
    2c10:	8e 2b       	or	r24, r30
    2c12:	9f 2b       	or	r25, r31
    2c14:	9b 83       	std	Y+3, r25	; 0x03
    2c16:	8a 83       	std	Y+2, r24	; 0x02
        pevent->OSEventPtr  = OSTCBPrioTbl[prio];     /*      Link to mutex owner's OS_TCB             */
    2c18:	ee 0f       	add	r30, r30
    2c1a:	ff 1f       	adc	r31, r31
    2c1c:	ee 5f       	subi	r30, 0xFE	; 254
    2c1e:	f9 4f       	sbci	r31, 0xF9	; 249
    2c20:	80 81       	ld	r24, Z
    2c22:	91 81       	ldd	r25, Z+1	; 0x01
    2c24:	9d 83       	std	Y+5, r25	; 0x05
    2c26:	8c 83       	std	Y+4, r24	; 0x04
        OS_EXIT_CRITICAL();
    2c28:	0f 91       	pop	r16
    2c2a:	0f bf       	out	0x3f, r16	; 63
    2c2c:	0f 91       	pop	r16
        OS_Sched();                                   /*      Find highest priority task ready to run  */
    2c2e:	0e 94 ee 11 	call	0x23dc	; 0x23dc <OS_Sched>
    2c32:	0a c0       	rjmp	.+20     	; 0x2c48 <OSMutexPost+0x14e>
        return (OS_NO_ERR);
    }
    pevent->OSEventCnt |= OS_MUTEX_AVAILABLE;         /* No,  Mutex is now available                   */
    2c34:	8a 81       	ldd	r24, Y+2	; 0x02
    2c36:	9b 81       	ldd	r25, Y+3	; 0x03
    2c38:	8f 6f       	ori	r24, 0xFF	; 255
    2c3a:	9b 83       	std	Y+3, r25	; 0x03
    2c3c:	8a 83       	std	Y+2, r24	; 0x02
    pevent->OSEventPtr  = (void *)0;
    2c3e:	1d 82       	std	Y+5, r1	; 0x05
    2c40:	1c 82       	std	Y+4, r1	; 0x04
    OS_EXIT_CRITICAL();
    2c42:	0f 91       	pop	r16
    2c44:	0f bf       	out	0x3f, r16	; 63
    2c46:	0f 91       	pop	r16
    2c48:	80 e0       	ldi	r24, 0x00	; 0
    return (OS_NO_ERR);
}
    2c4a:	df 91       	pop	r29
    2c4c:	cf 91       	pop	r28
    2c4e:	08 95       	ret

00002c50 <OSMutexPend>:
* Note(s)    : 1) The task that owns the Mutex MUST NOT pend on any other event while it owns the mutex.
*              2) You MUST NOT change the priority of the task that owns the mutex
*********************************************************************************************************
*/
void  OSMutexPend (OS_EVENT *pevent, INT16U timeout, INT8U *err)
{
    2c50:	ef 92       	push	r14
    2c52:	ff 92       	push	r15
    2c54:	0f 93       	push	r16
    2c56:	1f 93       	push	r17
    2c58:	cf 93       	push	r28
    2c5a:	df 93       	push	r29
    2c5c:	8c 01       	movw	r16, r24
    2c5e:	7a 01       	movw	r14, r20
    BOOLEAN    rdy;                                        /* Flag indicating task was ready           */
    OS_TCB    *ptcb;
    OS_EVENT  *pevent2;


    if (OSIntNesting > 0) {                                /* See if called from ISR ...               */
    2c60:	80 91 3b 04 	lds	r24, 0x043B
    2c64:	88 23       	and	r24, r24
    2c66:	11 f0       	breq	.+4      	; 0x2c6c <OSMutexPend+0x1c>
        *err = OS_ERR_PEND_ISR;                            /* ... can't PEND from an ISR               */
    2c68:	82 e0       	ldi	r24, 0x02	; 2
    2c6a:	30 c1       	rjmp	.+608    	; 0x2ecc <OSMutexPend+0x27c>
    if (pevent == (OS_EVENT *)0) {                         /* Validate 'pevent'                        */
        *err = OS_ERR_PEVENT_NULL;
        return;
    }
#endif
    if (pevent->OSEventType != OS_EVENT_TYPE_MUTEX) {      /* Validate event block type                */
    2c6c:	f8 01       	movw	r30, r16
    2c6e:	80 81       	ld	r24, Z
    2c70:	84 30       	cpi	r24, 0x04	; 4
    2c72:	11 f0       	breq	.+4      	; 0x2c78 <OSMutexPend+0x28>
        *err = OS_ERR_EVENT_TYPE;
    2c74:	81 e0       	ldi	r24, 0x01	; 1
    2c76:	2a c1       	rjmp	.+596    	; 0x2ecc <OSMutexPend+0x27c>
        return;
    }
    OS_ENTER_CRITICAL();								   /* Is Mutex available?                      */
    2c78:	0f 93       	push	r16
    2c7a:	0f b7       	in	r16, 0x3f	; 63
    2c7c:	0f 93       	push	r16
    2c7e:	f8 94       	cli
    if ((INT8U)(pevent->OSEventCnt & OS_MUTEX_KEEP_LOWER_8) == OS_MUTEX_AVAILABLE) {
    2c80:	f8 01       	movw	r30, r16
    2c82:	82 81       	ldd	r24, Z+2	; 0x02
    2c84:	93 81       	ldd	r25, Z+3	; 0x03
    2c86:	28 2f       	mov	r18, r24
    2c88:	8f 3f       	cpi	r24, 0xFF	; 255
    2c8a:	c1 f4       	brne	.+48     	; 0x2cbc <OSMutexPend+0x6c>
        pevent->OSEventCnt &= OS_MUTEX_KEEP_UPPER_8;       /* Yes, Acquire the resource                */
    2c8c:	80 70       	andi	r24, 0x00	; 0
    2c8e:	93 83       	std	Z+3, r25	; 0x03
    2c90:	82 83       	std	Z+2, r24	; 0x02
        pevent->OSEventCnt |= OSTCBCur->OSTCBPrio;         /*      Save priority of owning task        */
    2c92:	e0 91 3c 04 	lds	r30, 0x043C
    2c96:	f0 91 3d 04 	lds	r31, 0x043D
    2c9a:	26 85       	ldd	r18, Z+14	; 0x0e
    2c9c:	30 e0       	ldi	r19, 0x00	; 0
    2c9e:	28 2b       	or	r18, r24
    2ca0:	39 2b       	or	r19, r25
    2ca2:	d8 01       	movw	r26, r16
    2ca4:	13 96       	adiw	r26, 0x03	; 3
    2ca6:	3c 93       	st	X, r19
    2ca8:	2e 93       	st	-X, r18
    2caa:	12 97       	sbiw	r26, 0x02	; 2
        pevent->OSEventPtr  = (void *)OSTCBCur;            /*      Point to owning task's OS_TCB       */
    2cac:	15 96       	adiw	r26, 0x05	; 5
    2cae:	fc 93       	st	X, r31
    2cb0:	ee 93       	st	-X, r30
    2cb2:	14 97       	sbiw	r26, 0x04	; 4
        OS_EXIT_CRITICAL();
    2cb4:	0f 91       	pop	r16
    2cb6:	0f bf       	out	0x3f, r16	; 63
    2cb8:	0f 91       	pop	r16
    2cba:	12 c1       	rjmp	.+548    	; 0x2ee0 <OSMutexPend+0x290>
        *err  = OS_NO_ERR;
        return;
    }
    pip   = (INT8U)(pevent->OSEventCnt >> 8);                     /* No, Get PIP from mutex            */
    2cbc:	59 2f       	mov	r21, r25
    mprio = (INT8U)(pevent->OSEventCnt & OS_MUTEX_KEEP_LOWER_8);  /*     Get priority of mutex owner   */
    ptcb  = (OS_TCB *)(pevent->OSEventPtr);                       /*     Point to TCB of mutex owner   */
    2cbe:	f8 01       	movw	r30, r16
    2cc0:	a4 81       	ldd	r26, Z+4	; 0x04
    2cc2:	b5 81       	ldd	r27, Z+5	; 0x05
    if (ptcb->OSTCBPrio != pip && mprio > OSTCBCur->OSTCBPrio) {  /*     Need to promote prio of owner?*/
    2cc4:	1e 96       	adiw	r26, 0x0e	; 14
    2cc6:	8c 91       	ld	r24, X
    2cc8:	1e 97       	sbiw	r26, 0x0e	; 14
    2cca:	89 17       	cp	r24, r25
    2ccc:	09 f4       	brne	.+2      	; 0x2cd0 <OSMutexPend+0x80>
    2cce:	8d c0       	rjmp	.+282    	; 0x2dea <OSMutexPend+0x19a>
    2cd0:	e0 91 3c 04 	lds	r30, 0x043C
    2cd4:	f0 91 3d 04 	lds	r31, 0x043D
    2cd8:	86 85       	ldd	r24, Z+14	; 0x0e
    2cda:	82 17       	cp	r24, r18
    2cdc:	08 f0       	brcs	.+2      	; 0x2ce0 <OSMutexPend+0x90>
    2cde:	85 c0       	rjmp	.+266    	; 0x2dea <OSMutexPend+0x19a>
        if ((OSRdyTbl[ptcb->OSTCBY] & ptcb->OSTCBBitX) != 0x00) { /*     See if mutex owner is ready   */
    2ce0:	50 96       	adiw	r26, 0x10	; 16
    2ce2:	8c 91       	ld	r24, X
    2ce4:	50 97       	sbiw	r26, 0x10	; 16
    2ce6:	28 2f       	mov	r18, r24
    2ce8:	30 e0       	ldi	r19, 0x00	; 0
    2cea:	f9 01       	movw	r30, r18
    2cec:	ea 5c       	subi	r30, 0xCA	; 202
    2cee:	fb 4f       	sbci	r31, 0xFB	; 251
    2cf0:	40 81       	ld	r20, Z
    2cf2:	51 96       	adiw	r26, 0x11	; 17
    2cf4:	9c 91       	ld	r25, X
    2cf6:	51 97       	sbiw	r26, 0x11	; 17
    2cf8:	84 2f       	mov	r24, r20
    2cfa:	89 23       	and	r24, r25
    2cfc:	89 f0       	breq	.+34     	; 0x2d20 <OSMutexPend+0xd0>
                                                                  /*     Yes, Remove owner from Rdy ...*/
                                                                  /*          ... list at current prio */
            if ((OSRdyTbl[ptcb->OSTCBY] &= ~ptcb->OSTCBBitX) == 0x00) {
    2cfe:	89 2f       	mov	r24, r25
    2d00:	80 95       	com	r24
    2d02:	84 23       	and	r24, r20
    2d04:	80 83       	st	Z, r24
    2d06:	88 23       	and	r24, r24
    2d08:	49 f4       	brne	.+18     	; 0x2d1c <OSMutexPend+0xcc>
                OSRdyGrp &= ~ptcb->OSTCBBitY;
    2d0a:	52 96       	adiw	r26, 0x12	; 18
    2d0c:	9c 91       	ld	r25, X
    2d0e:	52 97       	sbiw	r26, 0x12	; 18
    2d10:	90 95       	com	r25
    2d12:	80 91 35 04 	lds	r24, 0x0435
    2d16:	89 23       	and	r24, r25
    2d18:	80 93 35 04 	sts	0x0435, r24
    2d1c:	91 e0       	ldi	r25, 0x01	; 1
    2d1e:	18 c0       	rjmp	.+48     	; 0x2d50 <OSMutexPend+0x100>
            }
            rdy = TRUE;
        } else {
            pevent2 = ptcb->OSTCBEventPtr;
    2d20:	16 96       	adiw	r26, 0x06	; 6
    2d22:	cd 91       	ld	r28, X+
    2d24:	dc 91       	ld	r29, X
    2d26:	17 97       	sbiw	r26, 0x07	; 7
            if (pevent2 != (OS_EVENT *)0) {                       /* Remove from event wait list       */
    2d28:	20 97       	sbiw	r28, 0x00	; 0
    2d2a:	89 f0       	breq	.+34     	; 0x2d4e <OSMutexPend+0xfe>
                if ((pevent2->OSEventTbl[ptcb->OSTCBY] &= ~ptcb->OSTCBBitX) == 0) {
    2d2c:	fe 01       	movw	r30, r28
    2d2e:	e2 0f       	add	r30, r18
    2d30:	f3 1f       	adc	r31, r19
    2d32:	89 2f       	mov	r24, r25
    2d34:	80 95       	com	r24
    2d36:	96 81       	ldd	r25, Z+6	; 0x06
    2d38:	89 23       	and	r24, r25
    2d3a:	86 83       	std	Z+6, r24	; 0x06
    2d3c:	88 23       	and	r24, r24
    2d3e:	39 f4       	brne	.+14     	; 0x2d4e <OSMutexPend+0xfe>
                    pevent2->OSEventGrp &= ~ptcb->OSTCBBitY;
    2d40:	52 96       	adiw	r26, 0x12	; 18
    2d42:	9c 91       	ld	r25, X
    2d44:	52 97       	sbiw	r26, 0x12	; 18
    2d46:	90 95       	com	r25
    2d48:	89 81       	ldd	r24, Y+1	; 0x01
    2d4a:	89 23       	and	r24, r25
    2d4c:	89 83       	std	Y+1, r24	; 0x01
    2d4e:	90 e0       	ldi	r25, 0x00	; 0
                }
            }
            rdy = FALSE;                                   /* No                                       */
        }
        ptcb->OSTCBPrio = pip;                             /* Change owner task prio to PIP            */
    2d50:	1e 96       	adiw	r26, 0x0e	; 14
    2d52:	5c 93       	st	X, r21
    2d54:	1e 97       	sbiw	r26, 0x0e	; 14
        ptcb->OSTCBY    = ptcb->OSTCBPrio >> 3;
    2d56:	e5 2f       	mov	r30, r21
    2d58:	e6 95       	lsr	r30
    2d5a:	e6 95       	lsr	r30
    2d5c:	e6 95       	lsr	r30
    2d5e:	50 96       	adiw	r26, 0x10	; 16
    2d60:	ec 93       	st	X, r30
    2d62:	50 97       	sbiw	r26, 0x10	; 16
        ptcb->OSTCBBitY = OSMapTbl[ptcb->OSTCBY];
    2d64:	f0 e0       	ldi	r31, 0x00	; 0
    2d66:	ee 58       	subi	r30, 0x8E	; 142
    2d68:	ff 4f       	sbci	r31, 0xFF	; 255
    2d6a:	20 81       	ld	r18, Z
    2d6c:	52 96       	adiw	r26, 0x12	; 18
    2d6e:	2c 93       	st	X, r18
    2d70:	52 97       	sbiw	r26, 0x12	; 18
        ptcb->OSTCBX    = ptcb->OSTCBPrio & 0x07;
    2d72:	e5 2f       	mov	r30, r21
    2d74:	e7 70       	andi	r30, 0x07	; 7
    2d76:	1f 96       	adiw	r26, 0x0f	; 15
    2d78:	ec 93       	st	X, r30
    2d7a:	1f 97       	sbiw	r26, 0x0f	; 15
        ptcb->OSTCBBitX = OSMapTbl[ptcb->OSTCBX];
    2d7c:	f0 e0       	ldi	r31, 0x00	; 0
    2d7e:	ee 58       	subi	r30, 0x8E	; 142
    2d80:	ff 4f       	sbci	r31, 0xFF	; 255
    2d82:	80 81       	ld	r24, Z
    2d84:	51 96       	adiw	r26, 0x11	; 17
    2d86:	8c 93       	st	X, r24
    2d88:	51 97       	sbiw	r26, 0x11	; 17
        if (rdy == TRUE) {                                 /* If task was ready at owner's priority ...*/
    2d8a:	91 30       	cpi	r25, 0x01	; 1
    2d8c:	91 f4       	brne	.+36     	; 0x2db2 <OSMutexPend+0x162>
            OSRdyGrp               |= ptcb->OSTCBBitY;     /* ... make it ready at new priority.       */
    2d8e:	80 91 35 04 	lds	r24, 0x0435
    2d92:	82 2b       	or	r24, r18
    2d94:	80 93 35 04 	sts	0x0435, r24
            OSRdyTbl[ptcb->OSTCBY] |= ptcb->OSTCBBitX;
    2d98:	50 96       	adiw	r26, 0x10	; 16
    2d9a:	ec 91       	ld	r30, X
    2d9c:	50 97       	sbiw	r26, 0x10	; 16
    2d9e:	f0 e0       	ldi	r31, 0x00	; 0
    2da0:	ea 5c       	subi	r30, 0xCA	; 202
    2da2:	fb 4f       	sbci	r31, 0xFB	; 251
    2da4:	80 81       	ld	r24, Z
    2da6:	51 96       	adiw	r26, 0x11	; 17
    2da8:	9c 91       	ld	r25, X
    2daa:	51 97       	sbiw	r26, 0x11	; 17
    2dac:	89 2b       	or	r24, r25
    2dae:	80 83       	st	Z, r24
    2db0:	14 c0       	rjmp	.+40     	; 0x2dda <OSMutexPend+0x18a>
        } else {
            pevent2 = ptcb->OSTCBEventPtr;
    2db2:	16 96       	adiw	r26, 0x06	; 6
    2db4:	ed 91       	ld	r30, X+
    2db6:	fc 91       	ld	r31, X
    2db8:	17 97       	sbiw	r26, 0x07	; 7
            if (pevent2 != (OS_EVENT *)0) {                /* Remove from event wait list              */
    2dba:	30 97       	sbiw	r30, 0x00	; 0
    2dbc:	71 f0       	breq	.+28     	; 0x2dda <OSMutexPend+0x18a>
                pevent2->OSEventGrp               |= ptcb->OSTCBBitY;
    2dbe:	81 81       	ldd	r24, Z+1	; 0x01
    2dc0:	82 2b       	or	r24, r18
    2dc2:	81 83       	std	Z+1, r24	; 0x01
                pevent2->OSEventTbl[ptcb->OSTCBY] |= ptcb->OSTCBBitX;
    2dc4:	50 96       	adiw	r26, 0x10	; 16
    2dc6:	8c 91       	ld	r24, X
    2dc8:	50 97       	sbiw	r26, 0x10	; 16
    2dca:	e8 0f       	add	r30, r24
    2dcc:	f1 1d       	adc	r31, r1
    2dce:	86 81       	ldd	r24, Z+6	; 0x06
    2dd0:	51 96       	adiw	r26, 0x11	; 17
    2dd2:	9c 91       	ld	r25, X
    2dd4:	51 97       	sbiw	r26, 0x11	; 17
    2dd6:	89 2b       	or	r24, r25
    2dd8:	86 83       	std	Z+6, r24	; 0x06
            }
        }
        OSTCBPrioTbl[pip] = (OS_TCB *)ptcb;
    2dda:	e5 2f       	mov	r30, r21
    2ddc:	f0 e0       	ldi	r31, 0x00	; 0
    2dde:	ee 0f       	add	r30, r30
    2de0:	ff 1f       	adc	r31, r31
    2de2:	ee 5f       	subi	r30, 0xFE	; 254
    2de4:	f9 4f       	sbci	r31, 0xF9	; 249
    2de6:	b1 83       	std	Z+1, r27	; 0x01
    2de8:	a0 83       	st	Z, r26
    }
    OSTCBCur->OSTCBStat |= OS_STAT_MUTEX;             /* Mutex not available, pend current task        */
    2dea:	a0 91 3c 04 	lds	r26, 0x043C
    2dee:	b0 91 3d 04 	lds	r27, 0x043D
    2df2:	1d 96       	adiw	r26, 0x0d	; 13
    2df4:	8c 91       	ld	r24, X
    2df6:	1d 97       	sbiw	r26, 0x0d	; 13
    2df8:	80 61       	ori	r24, 0x10	; 16
    2dfa:	1d 96       	adiw	r26, 0x0d	; 13
    2dfc:	8c 93       	st	X, r24
    2dfe:	1d 97       	sbiw	r26, 0x0d	; 13
    OSTCBCur->OSTCBDly   = timeout;                   /* Store timeout in current task's TCB           */
    2e00:	1c 96       	adiw	r26, 0x0c	; 12
    2e02:	7c 93       	st	X, r23
    2e04:	6e 93       	st	-X, r22
    2e06:	1b 97       	sbiw	r26, 0x0b	; 11
void  OS_EventTaskWait (OS_EVENT *pevent)
{
    INT8U  y;


    OSTCBCur->OSTCBEventPtr = pevent;            /* Store pointer to event control block in TCB        */
    2e08:	17 96       	adiw	r26, 0x07	; 7
    2e0a:	1c 93       	st	X, r17
    2e0c:	0e 93       	st	-X, r16
    2e0e:	16 97       	sbiw	r26, 0x06	; 6
    y                       = OSTCBCur->OSTCBY;  /* Task no longer ready                               */
    OSRdyTbl[y]            &= ~OSTCBCur->OSTCBBitX;
    2e10:	50 96       	adiw	r26, 0x10	; 16
    2e12:	ec 91       	ld	r30, X
    2e14:	50 97       	sbiw	r26, 0x10	; 16
    2e16:	f0 e0       	ldi	r31, 0x00	; 0
    2e18:	ea 5c       	subi	r30, 0xCA	; 202
    2e1a:	fb 4f       	sbci	r31, 0xFB	; 251
    2e1c:	51 96       	adiw	r26, 0x11	; 17
    2e1e:	8c 91       	ld	r24, X
    2e20:	51 97       	sbiw	r26, 0x11	; 17
    2e22:	80 95       	com	r24
    2e24:	90 81       	ld	r25, Z
    2e26:	89 23       	and	r24, r25
    2e28:	80 83       	st	Z, r24
    if (OSRdyTbl[y] == 0x00) {                   
    2e2a:	88 23       	and	r24, r24
    2e2c:	49 f4       	brne	.+18     	; 0x2e40 <OSMutexPend+0x1f0>
        OSRdyGrp &= ~OSTCBCur->OSTCBBitY;        /* Clear event grp bit if this was only task pending  */
    2e2e:	52 96       	adiw	r26, 0x12	; 18
    2e30:	9c 91       	ld	r25, X
    2e32:	52 97       	sbiw	r26, 0x12	; 18
    2e34:	90 95       	com	r25
    2e36:	80 91 35 04 	lds	r24, 0x0435
    2e3a:	89 23       	and	r24, r25
    2e3c:	80 93 35 04 	sts	0x0435, r24
    }
    pevent->OSEventTbl[OSTCBCur->OSTCBY] |= OSTCBCur->OSTCBBitX;          /* Put task in waiting list  */
    2e40:	50 96       	adiw	r26, 0x10	; 16
    2e42:	8c 91       	ld	r24, X
    2e44:	50 97       	sbiw	r26, 0x10	; 16
    2e46:	f8 01       	movw	r30, r16
    2e48:	e8 0f       	add	r30, r24
    2e4a:	f1 1d       	adc	r31, r1
    2e4c:	86 81       	ldd	r24, Z+6	; 0x06
    2e4e:	51 96       	adiw	r26, 0x11	; 17
    2e50:	9c 91       	ld	r25, X
    2e52:	51 97       	sbiw	r26, 0x11	; 17
    2e54:	89 2b       	or	r24, r25
    2e56:	86 83       	std	Z+6, r24	; 0x06
    pevent->OSEventGrp                   |= OSTCBCur->OSTCBBitY;
    2e58:	f8 01       	movw	r30, r16
    2e5a:	81 81       	ldd	r24, Z+1	; 0x01
    2e5c:	52 96       	adiw	r26, 0x12	; 18
    2e5e:	9c 91       	ld	r25, X
    2e60:	89 2b       	or	r24, r25
    2e62:	81 83       	std	Z+1, r24	; 0x01
    OS_EventTaskWait(pevent);                         /* Suspend task until event or timeout occurs    */
    OS_EXIT_CRITICAL();
    2e64:	0f 91       	pop	r16
    2e66:	0f bf       	out	0x3f, r16	; 63
    2e68:	0f 91       	pop	r16
    OS_Sched();                                        /* Find next highest priority task ready         */
    2e6a:	0e 94 ee 11 	call	0x23dc	; 0x23dc <OS_Sched>
    OS_ENTER_CRITICAL();
    2e6e:	0f 93       	push	r16
    2e70:	0f b7       	in	r16, 0x3f	; 63
    2e72:	0f 93       	push	r16
    2e74:	f8 94       	cli
    if (OSTCBCur->OSTCBStat & OS_STAT_MUTEX) {        /* Must have timed out if still waiting for event*/
    2e76:	a0 91 3c 04 	lds	r26, 0x043C
    2e7a:	b0 91 3d 04 	lds	r27, 0x043D
    2e7e:	1d 96       	adiw	r26, 0x0d	; 13
    2e80:	8c 91       	ld	r24, X
    2e82:	1d 97       	sbiw	r26, 0x0d	; 13
    2e84:	84 ff       	sbrs	r24, 4
    2e86:	25 c0       	rjmp	.+74     	; 0x2ed2 <OSMutexPend+0x282>
{
    INT8U  y;


    y                      = OSTCBCur->OSTCBY;
    pevent->OSEventTbl[y] &= ~OSTCBCur->OSTCBBitX;
    2e88:	50 96       	adiw	r26, 0x10	; 16
    2e8a:	8c 91       	ld	r24, X
    2e8c:	50 97       	sbiw	r26, 0x10	; 16
    2e8e:	f8 01       	movw	r30, r16
    2e90:	e8 0f       	add	r30, r24
    2e92:	f1 1d       	adc	r31, r1
    2e94:	51 96       	adiw	r26, 0x11	; 17
    2e96:	8c 91       	ld	r24, X
    2e98:	51 97       	sbiw	r26, 0x11	; 17
    2e9a:	80 95       	com	r24
    2e9c:	96 81       	ldd	r25, Z+6	; 0x06
    2e9e:	89 23       	and	r24, r25
    2ea0:	86 83       	std	Z+6, r24	; 0x06
    if (pevent->OSEventTbl[y] == 0x00) {
    2ea2:	88 23       	and	r24, r24
    2ea4:	41 f4       	brne	.+16     	; 0x2eb6 <OSMutexPend+0x266>
        pevent->OSEventGrp &= ~OSTCBCur->OSTCBBitY;
    2ea6:	52 96       	adiw	r26, 0x12	; 18
    2ea8:	9c 91       	ld	r25, X
    2eaa:	52 97       	sbiw	r26, 0x12	; 18
    2eac:	90 95       	com	r25
    2eae:	f8 01       	movw	r30, r16
    2eb0:	81 81       	ldd	r24, Z+1	; 0x01
    2eb2:	89 23       	and	r24, r25
    2eb4:	81 83       	std	Z+1, r24	; 0x01
    }
    OSTCBCur->OSTCBStat     = OS_STAT_RDY;       /* Set status to ready                                */
    2eb6:	1d 96       	adiw	r26, 0x0d	; 13
    2eb8:	1c 92       	st	X, r1
    2eba:	1d 97       	sbiw	r26, 0x0d	; 13
    OSTCBCur->OSTCBEventPtr = (OS_EVENT *)0;     /* No longer waiting for event                        */
    2ebc:	17 96       	adiw	r26, 0x07	; 7
    2ebe:	1c 92       	st	X, r1
    2ec0:	1e 92       	st	-X, r1
    2ec2:	16 97       	sbiw	r26, 0x06	; 6
        OS_EventTO(pevent);
        OS_EXIT_CRITICAL();
    2ec4:	0f 91       	pop	r16
    2ec6:	0f bf       	out	0x3f, r16	; 63
    2ec8:	0f 91       	pop	r16
        *err = OS_TIMEOUT;                            /* Indicate that we didn't get mutex within TO   */
    2eca:	8a e0       	ldi	r24, 0x0A	; 10
    2ecc:	d7 01       	movw	r26, r14
    2ece:	8c 93       	st	X, r24
    2ed0:	09 c0       	rjmp	.+18     	; 0x2ee4 <OSMutexPend+0x294>
        return;
    }
    OSTCBCur->OSTCBEventPtr = (OS_EVENT *)0;
    2ed2:	17 96       	adiw	r26, 0x07	; 7
    2ed4:	1c 92       	st	X, r1
    2ed6:	1e 92       	st	-X, r1
    2ed8:	16 97       	sbiw	r26, 0x06	; 6
    OS_EXIT_CRITICAL();
    2eda:	0f 91       	pop	r16
    2edc:	0f bf       	out	0x3f, r16	; 63
    2ede:	0f 91       	pop	r16
    *err = OS_NO_ERR;
    2ee0:	f7 01       	movw	r30, r14
    2ee2:	10 82       	st	Z, r1
}
    2ee4:	df 91       	pop	r29
    2ee6:	cf 91       	pop	r28
    2ee8:	1f 91       	pop	r17
    2eea:	0f 91       	pop	r16
    2eec:	ff 90       	pop	r15
    2eee:	ef 90       	pop	r14
    2ef0:	08 95       	ret

00002ef2 <OSMboxPostOpt>:
*********************************************************************************************************
*/

#if OS_MBOX_POST_OPT_EN > 0
INT8U  OSMboxPostOpt (OS_EVENT *pevent, void *msg, INT8U opt)
{
    2ef2:	0f 93       	push	r16
    2ef4:	1f 93       	push	r17
    2ef6:	cf 93       	push	r28
    2ef8:	df 93       	push	r29
    2efa:	ec 01       	movw	r28, r24
    2efc:	8b 01       	movw	r16, r22
    }
    if (msg == (void *)0) {                           /* Make sure we are not posting a NULL pointer   */
        return (OS_ERR_POST_NULL_PTR);
    }
#endif
    if (pevent->OSEventType != OS_EVENT_TYPE_MBOX) {  /* Validate event block type                     */
    2efe:	88 81       	ld	r24, Y
    2f00:	81 30       	cpi	r24, 0x01	; 1
    2f02:	11 f0       	breq	.+4      	; 0x2f08 <OSMboxPostOpt+0x16>
    2f04:	81 e0       	ldi	r24, 0x01	; 1
    2f06:	2c c0       	rjmp	.+88     	; 0x2f60 <OSMboxPostOpt+0x6e>
        return (OS_ERR_EVENT_TYPE);
    }
    OS_ENTER_CRITICAL();
    2f08:	0f 93       	push	r16
    2f0a:	0f b7       	in	r16, 0x3f	; 63
    2f0c:	0f 93       	push	r16
    2f0e:	f8 94       	cli
    if (pevent->OSEventGrp != 0x00) {                 /* See if any task pending on mailbox            */
    2f10:	89 81       	ldd	r24, Y+1	; 0x01
    2f12:	88 23       	and	r24, r24
    2f14:	b1 f0       	breq	.+44     	; 0x2f42 <OSMboxPostOpt+0x50>
        if ((opt & OS_POST_OPT_BROADCAST) != 0x00) {  /* Do we need to post msg to ALL waiting tasks ? */
    2f16:	40 fd       	sbrc	r20, 0
    2f18:	06 c0       	rjmp	.+12     	; 0x2f26 <OSMboxPostOpt+0x34>
    2f1a:	09 c0       	rjmp	.+18     	; 0x2f2e <OSMboxPostOpt+0x3c>
            while (pevent->OSEventGrp != 0x00) {      /* Yes, Post to ALL tasks waiting on mailbox     */           
                OS_EventTaskRdy(pevent, msg, OS_STAT_MBOX);    
    2f1c:	ce 01       	movw	r24, r28
    2f1e:	b8 01       	movw	r22, r16
    2f20:	42 e0       	ldi	r20, 0x02	; 2
    2f22:	0e 94 b4 0c 	call	0x1968	; 0x1968 <OS_EventTaskRdy>
        return (OS_ERR_EVENT_TYPE);
    }
    OS_ENTER_CRITICAL();
    if (pevent->OSEventGrp != 0x00) {                 /* See if any task pending on mailbox            */
        if ((opt & OS_POST_OPT_BROADCAST) != 0x00) {  /* Do we need to post msg to ALL waiting tasks ? */
            while (pevent->OSEventGrp != 0x00) {      /* Yes, Post to ALL tasks waiting on mailbox     */           
    2f26:	89 81       	ldd	r24, Y+1	; 0x01
    2f28:	88 23       	and	r24, r24
    2f2a:	c1 f7       	brne	.-16     	; 0x2f1c <OSMboxPostOpt+0x2a>
    2f2c:	04 c0       	rjmp	.+8      	; 0x2f36 <OSMboxPostOpt+0x44>
                OS_EventTaskRdy(pevent, msg, OS_STAT_MBOX);    
            }
        } else {
            OS_EventTaskRdy(pevent, msg, OS_STAT_MBOX);    /* No,  Post to HPT waiting on mbox         */
    2f2e:	ce 01       	movw	r24, r28
    2f30:	42 e0       	ldi	r20, 0x02	; 2
    2f32:	0e 94 b4 0c 	call	0x1968	; 0x1968 <OS_EventTaskRdy>
        }
        OS_EXIT_CRITICAL();
    2f36:	0f 91       	pop	r16
    2f38:	0f bf       	out	0x3f, r16	; 63
    2f3a:	0f 91       	pop	r16
        OS_Sched();                                        /* Find highest priority task ready to run  */
    2f3c:	0e 94 ee 11 	call	0x23dc	; 0x23dc <OS_Sched>
    2f40:	0e c0       	rjmp	.+28     	; 0x2f5e <OSMboxPostOpt+0x6c>
        return (OS_NO_ERR);
    }
    if (pevent->OSEventPtr != (void *)0) {            /* Make sure mailbox doesn't already have a msg  */
    2f42:	8c 81       	ldd	r24, Y+4	; 0x04
    2f44:	9d 81       	ldd	r25, Y+5	; 0x05
    2f46:	89 2b       	or	r24, r25
    2f48:	29 f0       	breq	.+10     	; 0x2f54 <OSMboxPostOpt+0x62>
        OS_EXIT_CRITICAL();
    2f4a:	0f 91       	pop	r16
    2f4c:	0f bf       	out	0x3f, r16	; 63
    2f4e:	0f 91       	pop	r16
    2f50:	84 e1       	ldi	r24, 0x14	; 20
    2f52:	06 c0       	rjmp	.+12     	; 0x2f60 <OSMboxPostOpt+0x6e>
        return (OS_MBOX_FULL);
    }
    pevent->OSEventPtr = msg;                         /* Place message in mailbox                      */
    2f54:	7d 83       	std	Y+5, r23	; 0x05
    2f56:	6c 83       	std	Y+4, r22	; 0x04
    OS_EXIT_CRITICAL();
    2f58:	0f 91       	pop	r16
    2f5a:	0f bf       	out	0x3f, r16	; 63
    2f5c:	0f 91       	pop	r16
    2f5e:	80 e0       	ldi	r24, 0x00	; 0
    return (OS_NO_ERR);
}
    2f60:	df 91       	pop	r29
    2f62:	cf 91       	pop	r28
    2f64:	1f 91       	pop	r17
    2f66:	0f 91       	pop	r16
    2f68:	08 95       	ret

00002f6a <OSMboxPost>:
*********************************************************************************************************
*/

#if OS_MBOX_POST_EN > 0
INT8U  OSMboxPost (OS_EVENT *pevent, void *msg)
{
    2f6a:	fc 01       	movw	r30, r24
    }
    if (msg == (void *)0) {                           /* Make sure we are not posting a NULL pointer   */
        return (OS_ERR_POST_NULL_PTR);
    }
#endif
    if (pevent->OSEventType != OS_EVENT_TYPE_MBOX) {  /* Validate event block type                     */
    2f6c:	80 81       	ld	r24, Z
    2f6e:	81 30       	cpi	r24, 0x01	; 1
    2f70:	11 f0       	breq	.+4      	; 0x2f76 <OSMboxPost+0xc>
    2f72:	81 e0       	ldi	r24, 0x01	; 1
    2f74:	08 95       	ret
        return (OS_ERR_EVENT_TYPE);
    }
    OS_ENTER_CRITICAL();
    2f76:	0f 93       	push	r16
    2f78:	0f b7       	in	r16, 0x3f	; 63
    2f7a:	0f 93       	push	r16
    2f7c:	f8 94       	cli
    if (pevent->OSEventGrp != 0x00) {                 /* See if any task pending on mailbox            */
    2f7e:	81 81       	ldd	r24, Z+1	; 0x01
    2f80:	88 23       	and	r24, r24
    2f82:	59 f0       	breq	.+22     	; 0x2f9a <OSMboxPost+0x30>
        OS_EventTaskRdy(pevent, msg, OS_STAT_MBOX);   /* Ready highest priority task waiting on event  */
    2f84:	cf 01       	movw	r24, r30
    2f86:	42 e0       	ldi	r20, 0x02	; 2
    2f88:	0e 94 b4 0c 	call	0x1968	; 0x1968 <OS_EventTaskRdy>
        OS_EXIT_CRITICAL();
    2f8c:	0f 91       	pop	r16
    2f8e:	0f bf       	out	0x3f, r16	; 63
    2f90:	0f 91       	pop	r16
        OS_Sched();                                   /* Find highest priority task ready to run       */
    2f92:	0e 94 ee 11 	call	0x23dc	; 0x23dc <OS_Sched>
    2f96:	80 e0       	ldi	r24, 0x00	; 0
    2f98:	08 95       	ret
        return (OS_NO_ERR);
    }
    if (pevent->OSEventPtr != (void *)0) {            /* Make sure mailbox doesn't already have a msg  */
    2f9a:	84 81       	ldd	r24, Z+4	; 0x04
    2f9c:	95 81       	ldd	r25, Z+5	; 0x05
    2f9e:	89 2b       	or	r24, r25
    2fa0:	29 f0       	breq	.+10     	; 0x2fac <OSMboxPost+0x42>
        OS_EXIT_CRITICAL();
    2fa2:	0f 91       	pop	r16
    2fa4:	0f bf       	out	0x3f, r16	; 63
    2fa6:	0f 91       	pop	r16
    2fa8:	84 e1       	ldi	r24, 0x14	; 20
    2faa:	08 95       	ret
        return (OS_MBOX_FULL);
    }
    pevent->OSEventPtr = msg;                         /* Place message in mailbox                      */
    2fac:	75 83       	std	Z+5, r23	; 0x05
    2fae:	64 83       	std	Z+4, r22	; 0x04
    OS_EXIT_CRITICAL();
    2fb0:	0f 91       	pop	r16
    2fb2:	0f bf       	out	0x3f, r16	; 63
    2fb4:	0f 91       	pop	r16
    2fb6:	80 e0       	ldi	r24, 0x00	; 0
    return (OS_NO_ERR);
}
    2fb8:	08 95       	ret

00002fba <OSMboxPend>:
*                            if you didn't pass the proper pointer to the event control block.
*********************************************************************************************************
*/

void  *OSMboxPend (OS_EVENT *pevent, INT16U timeout, INT8U *err)
{
    2fba:	0f 93       	push	r16
    2fbc:	1f 93       	push	r17
    2fbe:	cf 93       	push	r28
    2fc0:	df 93       	push	r29
    2fc2:	ec 01       	movw	r28, r24
    2fc4:	8a 01       	movw	r16, r20
    OS_CPU_SR  cpu_sr;
#endif    
    void      *msg;


    if (OSIntNesting > 0) {                           /* See if called from ISR ...                    */
    2fc6:	80 91 3b 04 	lds	r24, 0x043B
    2fca:	88 23       	and	r24, r24
    2fcc:	11 f0       	breq	.+4      	; 0x2fd2 <OSMboxPend+0x18>
        *err = OS_ERR_PEND_ISR;                       /* ... can't PEND from an ISR                    */
    2fce:	82 e0       	ldi	r24, 0x02	; 2
    2fd0:	04 c0       	rjmp	.+8      	; 0x2fda <OSMboxPend+0x20>
    if (pevent == (OS_EVENT *)0) {                    /* Validate 'pevent'                             */
        *err = OS_ERR_PEVENT_NULL;
        return ((void *)0);
    }
#endif
    if (pevent->OSEventType != OS_EVENT_TYPE_MBOX) {  /* Validate event block type                     */
    2fd2:	88 81       	ld	r24, Y
    2fd4:	81 30       	cpi	r24, 0x01	; 1
    2fd6:	31 f0       	breq	.+12     	; 0x2fe4 <OSMboxPend+0x2a>
        *err = OS_ERR_EVENT_TYPE;
    2fd8:	81 e0       	ldi	r24, 0x01	; 1
    2fda:	f8 01       	movw	r30, r16
    2fdc:	80 83       	st	Z, r24
    2fde:	20 e0       	ldi	r18, 0x00	; 0
    2fe0:	30 e0       	ldi	r19, 0x00	; 0
    2fe2:	90 c0       	rjmp	.+288    	; 0x3104 <OSMboxPend+0x14a>
        return ((void *)0);
    }
    OS_ENTER_CRITICAL();
    2fe4:	0f 93       	push	r16
    2fe6:	0f b7       	in	r16, 0x3f	; 63
    2fe8:	0f 93       	push	r16
    2fea:	f8 94       	cli
    msg = pevent->OSEventPtr;
    2fec:	2c 81       	ldd	r18, Y+4	; 0x04
    2fee:	3d 81       	ldd	r19, Y+5	; 0x05
    if (msg != (void *)0) {                           /* See if there is already a message             */
    2ff0:	21 15       	cp	r18, r1
    2ff2:	31 05       	cpc	r19, r1
    2ff4:	31 f0       	breq	.+12     	; 0x3002 <OSMboxPend+0x48>
        pevent->OSEventPtr = (void *)0;               /* Clear the mailbox                             */
    2ff6:	1d 82       	std	Y+5, r1	; 0x05
    2ff8:	1c 82       	std	Y+4, r1	; 0x04
        OS_EXIT_CRITICAL();
    2ffa:	0f 91       	pop	r16
    2ffc:	0f bf       	out	0x3f, r16	; 63
    2ffe:	0f 91       	pop	r16
    3000:	5b c0       	rjmp	.+182    	; 0x30b8 <OSMboxPend+0xfe>
        *err = OS_NO_ERR;
        return (msg);                                 /* Return the message received (or NULL)         */
    }
    OSTCBCur->OSTCBStat |= OS_STAT_MBOX;              /* Message not available, task will pend         */
    3002:	a0 91 3c 04 	lds	r26, 0x043C
    3006:	b0 91 3d 04 	lds	r27, 0x043D
    300a:	1d 96       	adiw	r26, 0x0d	; 13
    300c:	8c 91       	ld	r24, X
    300e:	1d 97       	sbiw	r26, 0x0d	; 13
    3010:	82 60       	ori	r24, 0x02	; 2
    3012:	1d 96       	adiw	r26, 0x0d	; 13
    3014:	8c 93       	st	X, r24
    3016:	1d 97       	sbiw	r26, 0x0d	; 13
    OSTCBCur->OSTCBDly   = timeout;                   /* Load timeout in TCB                           */
    3018:	1c 96       	adiw	r26, 0x0c	; 12
    301a:	7c 93       	st	X, r23
    301c:	6e 93       	st	-X, r22
    301e:	1b 97       	sbiw	r26, 0x0b	; 11
void  OS_EventTaskWait (OS_EVENT *pevent)
{
    INT8U  y;


    OSTCBCur->OSTCBEventPtr = pevent;            /* Store pointer to event control block in TCB        */
    3020:	17 96       	adiw	r26, 0x07	; 7
    3022:	dc 93       	st	X, r29
    3024:	ce 93       	st	-X, r28
    3026:	16 97       	sbiw	r26, 0x06	; 6
    y                       = OSTCBCur->OSTCBY;  /* Task no longer ready                               */
    OSRdyTbl[y]            &= ~OSTCBCur->OSTCBBitX;
    3028:	50 96       	adiw	r26, 0x10	; 16
    302a:	8c 91       	ld	r24, X
    302c:	50 97       	sbiw	r26, 0x10	; 16
    302e:	28 2f       	mov	r18, r24
    3030:	30 e0       	ldi	r19, 0x00	; 0
    3032:	51 96       	adiw	r26, 0x11	; 17
    3034:	4c 91       	ld	r20, X
    3036:	51 97       	sbiw	r26, 0x11	; 17
    3038:	f9 01       	movw	r30, r18
    303a:	ea 5c       	subi	r30, 0xCA	; 202
    303c:	fb 4f       	sbci	r31, 0xFB	; 251
    303e:	84 2f       	mov	r24, r20
    3040:	80 95       	com	r24
    3042:	90 81       	ld	r25, Z
    3044:	89 23       	and	r24, r25
    3046:	80 83       	st	Z, r24
    if (OSRdyTbl[y] == 0x00) {                   
    3048:	88 23       	and	r24, r24
    304a:	49 f4       	brne	.+18     	; 0x305e <OSMboxPend+0xa4>
        OSRdyGrp &= ~OSTCBCur->OSTCBBitY;        /* Clear event grp bit if this was only task pending  */
    304c:	52 96       	adiw	r26, 0x12	; 18
    304e:	9c 91       	ld	r25, X
    3050:	52 97       	sbiw	r26, 0x12	; 18
    3052:	90 95       	com	r25
    3054:	80 91 35 04 	lds	r24, 0x0435
    3058:	89 23       	and	r24, r25
    305a:	80 93 35 04 	sts	0x0435, r24
    }
    pevent->OSEventTbl[OSTCBCur->OSTCBY] |= OSTCBCur->OSTCBBitX;          /* Put task in waiting list  */
    305e:	fe 01       	movw	r30, r28
    3060:	e2 0f       	add	r30, r18
    3062:	f3 1f       	adc	r31, r19
    3064:	86 81       	ldd	r24, Z+6	; 0x06
    3066:	84 2b       	or	r24, r20
    3068:	86 83       	std	Z+6, r24	; 0x06
    pevent->OSEventGrp                   |= OSTCBCur->OSTCBBitY;
    306a:	89 81       	ldd	r24, Y+1	; 0x01
    306c:	52 96       	adiw	r26, 0x12	; 18
    306e:	9c 91       	ld	r25, X
    3070:	89 2b       	or	r24, r25
    3072:	89 83       	std	Y+1, r24	; 0x01
    OS_EventTaskWait(pevent);                         /* Suspend task until event or timeout occurs    */
    OS_EXIT_CRITICAL();
    3074:	0f 91       	pop	r16
    3076:	0f bf       	out	0x3f, r16	; 63
    3078:	0f 91       	pop	r16
    OS_Sched();                                       /* Find next highest priority task ready to run  */
    307a:	0e 94 ee 11 	call	0x23dc	; 0x23dc <OS_Sched>
    OS_ENTER_CRITICAL();
    307e:	0f 93       	push	r16
    3080:	0f b7       	in	r16, 0x3f	; 63
    3082:	0f 93       	push	r16
    3084:	f8 94       	cli
    msg = OSTCBCur->OSTCBMsg;
    3086:	a0 91 3c 04 	lds	r26, 0x043C
    308a:	b0 91 3d 04 	lds	r27, 0x043D
    308e:	18 96       	adiw	r26, 0x08	; 8
    3090:	2d 91       	ld	r18, X+
    3092:	3c 91       	ld	r19, X
    3094:	19 97       	sbiw	r26, 0x09	; 9
    if (msg != (void *)0) {                           /* See if we were given the message              */
    3096:	21 15       	cp	r18, r1
    3098:	31 05       	cpc	r19, r1
    309a:	89 f0       	breq	.+34     	; 0x30be <OSMboxPend+0x104>
        OSTCBCur->OSTCBMsg      = (void *)0;          /* Yes, clear message received                   */
    309c:	19 96       	adiw	r26, 0x09	; 9
    309e:	1c 92       	st	X, r1
    30a0:	1e 92       	st	-X, r1
    30a2:	18 97       	sbiw	r26, 0x08	; 8
        OSTCBCur->OSTCBStat     = OS_STAT_RDY;
    30a4:	1d 96       	adiw	r26, 0x0d	; 13
    30a6:	1c 92       	st	X, r1
    30a8:	1d 97       	sbiw	r26, 0x0d	; 13
        OSTCBCur->OSTCBEventPtr = (OS_EVENT *)0;      /* No longer waiting for event                   */
    30aa:	17 96       	adiw	r26, 0x07	; 7
    30ac:	1c 92       	st	X, r1
    30ae:	1e 92       	st	-X, r1
    30b0:	16 97       	sbiw	r26, 0x06	; 6
        OS_EXIT_CRITICAL();
    30b2:	0f 91       	pop	r16
    30b4:	0f bf       	out	0x3f, r16	; 63
    30b6:	0f 91       	pop	r16
        *err                    = OS_NO_ERR;
    30b8:	f8 01       	movw	r30, r16
    30ba:	10 82       	st	Z, r1
    30bc:	23 c0       	rjmp	.+70     	; 0x3104 <OSMboxPend+0x14a>
{
    INT8U  y;


    y                      = OSTCBCur->OSTCBY;
    pevent->OSEventTbl[y] &= ~OSTCBCur->OSTCBBitX;
    30be:	50 96       	adiw	r26, 0x10	; 16
    30c0:	8c 91       	ld	r24, X
    30c2:	50 97       	sbiw	r26, 0x10	; 16
    30c4:	fe 01       	movw	r30, r28
    30c6:	e8 0f       	add	r30, r24
    30c8:	f1 1d       	adc	r31, r1
    30ca:	51 96       	adiw	r26, 0x11	; 17
    30cc:	8c 91       	ld	r24, X
    30ce:	51 97       	sbiw	r26, 0x11	; 17
    30d0:	80 95       	com	r24
    30d2:	96 81       	ldd	r25, Z+6	; 0x06
    30d4:	89 23       	and	r24, r25
    30d6:	86 83       	std	Z+6, r24	; 0x06
    if (pevent->OSEventTbl[y] == 0x00) {
    30d8:	88 23       	and	r24, r24
    30da:	39 f4       	brne	.+14     	; 0x30ea <OSMboxPend+0x130>
        pevent->OSEventGrp &= ~OSTCBCur->OSTCBBitY;
    30dc:	52 96       	adiw	r26, 0x12	; 18
    30de:	9c 91       	ld	r25, X
    30e0:	52 97       	sbiw	r26, 0x12	; 18
    30e2:	90 95       	com	r25
    30e4:	89 81       	ldd	r24, Y+1	; 0x01
    30e6:	89 23       	and	r24, r25
    30e8:	89 83       	std	Y+1, r24	; 0x01
    }
    OSTCBCur->OSTCBStat     = OS_STAT_RDY;       /* Set status to ready                                */
    30ea:	1d 96       	adiw	r26, 0x0d	; 13
    30ec:	1c 92       	st	X, r1
    30ee:	1d 97       	sbiw	r26, 0x0d	; 13
    OSTCBCur->OSTCBEventPtr = (OS_EVENT *)0;     /* No longer waiting for event                        */
    30f0:	17 96       	adiw	r26, 0x07	; 7
    30f2:	1c 92       	st	X, r1
    30f4:	1e 92       	st	-X, r1
    30f6:	16 97       	sbiw	r26, 0x06	; 6
        return (msg);                                 /* Return the message received                   */
    }
    OS_EventTO(pevent);                               /* Timed out, Make task ready                    */
    OS_EXIT_CRITICAL();
    30f8:	0f 91       	pop	r16
    30fa:	0f bf       	out	0x3f, r16	; 63
    30fc:	0f 91       	pop	r16
    *err = OS_TIMEOUT;                                /* Indicate that a timeout occured               */
    30fe:	8a e0       	ldi	r24, 0x0A	; 10
    3100:	f8 01       	movw	r30, r16
    3102:	80 83       	st	Z, r24
    return ((void *)0);                               /* Return a NULL message                         */
}
    3104:	c9 01       	movw	r24, r18
    3106:	df 91       	pop	r29
    3108:	cf 91       	pop	r28
    310a:	1f 91       	pop	r17
    310c:	0f 91       	pop	r16
    310e:	08 95       	ret

00003110 <OSFlagPost>:
*              2) The amount of time interrupts are DISABLED depends on the number of tasks waiting on
*                 the event flag group.
*********************************************************************************************************
*/
OS_FLAGS  OSFlagPost (OS_FLAG_GRP *pgrp, OS_FLAGS flags, INT8U opt, INT8U *err)
{
    3110:	cf 92       	push	r12
    3112:	df 92       	push	r13
    3114:	ef 92       	push	r14
    3116:	ff 92       	push	r15
    3118:	0f 93       	push	r16
    311a:	1f 93       	push	r17
    311c:	df 93       	push	r29
    311e:	cf 93       	push	r28
    3120:	0f 92       	push	r0
    3122:	cd b7       	in	r28, 0x3d	; 61
    3124:	de b7       	in	r29, 0x3e	; 62
    3126:	8c 01       	movw	r16, r24
    3128:	79 01       	movw	r14, r18
    if (pgrp == (OS_FLAG_GRP *)0) {                  /* Validate 'pgrp'                                */
        *err = OS_FLAG_INVALID_PGRP;
        return ((OS_FLAGS)0);
    }
#endif
    if (pgrp->OSFlagType != OS_EVENT_TYPE_FLAG) {    /* Make sure we are pointing to an event flag grp */
    312a:	fc 01       	movw	r30, r24
    312c:	80 81       	ld	r24, Z
    312e:	85 30       	cpi	r24, 0x05	; 5
    3130:	11 f0       	breq	.+4      	; 0x3136 <OSFlagPost+0x26>
        *err = OS_ERR_EVENT_TYPE;
    3132:	81 e0       	ldi	r24, 0x01	; 1
    3134:	1b c0       	rjmp	.+54     	; 0x316c <OSFlagPost+0x5c>
        return ((OS_FLAGS)0);
    }
/*$PAGE*/
    OS_ENTER_CRITICAL();
    3136:	0f 93       	push	r16
    3138:	0f b7       	in	r16, 0x3f	; 63
    313a:	0f 93       	push	r16
    313c:	f8 94       	cli
    switch (opt) {
    313e:	44 23       	and	r20, r20
    3140:	19 f0       	breq	.+6      	; 0x3148 <OSFlagPost+0x38>
    3142:	41 30       	cpi	r20, 0x01	; 1
    3144:	79 f4       	brne	.+30     	; 0x3164 <OSFlagPost+0x54>
    3146:	05 c0       	rjmp	.+10     	; 0x3152 <OSFlagPost+0x42>
        case OS_FLAG_CLR:
             pgrp->OSFlagFlags &= ~flags;            /* Clear the flags specified in the group         */
    3148:	60 95       	com	r22
    314a:	f8 01       	movw	r30, r16
    314c:	83 81       	ldd	r24, Z+3	; 0x03
    314e:	86 23       	and	r24, r22
    3150:	03 c0       	rjmp	.+6      	; 0x3158 <OSFlagPost+0x48>
             break;

        case OS_FLAG_SET:
             pgrp->OSFlagFlags |=  flags;            /* Set   the flags specified in the group         */
    3152:	f8 01       	movw	r30, r16
    3154:	83 81       	ldd	r24, Z+3	; 0x03
    3156:	86 2b       	or	r24, r22
    3158:	83 83       	std	Z+3, r24	; 0x03
             OS_EXIT_CRITICAL();                     /* INVALID option                                 */
             *err = OS_FLAG_INVALID_OPT;
             return ((OS_FLAGS)0);
    }
    sched = FALSE;                                   /* Indicate that we don't need rescheduling       */
    pnode = (OS_FLAG_NODE *)pgrp->OSFlagWaitList;
    315a:	f8 01       	movw	r30, r16
    315c:	c1 80       	ldd	r12, Z+1	; 0x01
    315e:	d2 80       	ldd	r13, Z+2	; 0x02
    3160:	19 82       	std	Y+1, r1	; 0x01
    3162:	3f c0       	rjmp	.+126    	; 0x31e2 <OSFlagPost+0xd2>
        case OS_FLAG_SET:
             pgrp->OSFlagFlags |=  flags;            /* Set   the flags specified in the group         */
             break;

        default:
             OS_EXIT_CRITICAL();                     /* INVALID option                                 */
    3164:	0f 91       	pop	r16
    3166:	0f bf       	out	0x3f, r16	; 63
    3168:	0f 91       	pop	r16
             *err = OS_FLAG_INVALID_OPT;
    316a:	89 e9       	ldi	r24, 0x99	; 153
    316c:	f7 01       	movw	r30, r14
    316e:	80 83       	st	Z, r24
    3170:	80 e0       	ldi	r24, 0x00	; 0
    3172:	4d c0       	rjmp	.+154    	; 0x320e <OSFlagPost+0xfe>
             return ((OS_FLAGS)0);
    }
    sched = FALSE;                                   /* Indicate that we don't need rescheduling       */
    pnode = (OS_FLAG_NODE *)pgrp->OSFlagWaitList;
    while (pnode != (OS_FLAG_NODE *)0) {             /* Go through all tasks waiting on event flag(s)  */
        switch (pnode->OSFlagNodeWaitType) {
    3174:	f6 01       	movw	r30, r12
    3176:	81 85       	ldd	r24, Z+9	; 0x09
    3178:	81 30       	cpi	r24, 0x01	; 1
    317a:	d1 f0       	breq	.+52     	; 0x31b0 <OSFlagPost+0xa0>
    317c:	81 30       	cpi	r24, 0x01	; 1
    317e:	78 f0       	brcs	.+30     	; 0x319e <OSFlagPost+0x8e>
    3180:	82 30       	cpi	r24, 0x02	; 2
    3182:	19 f0       	breq	.+6      	; 0x318a <OSFlagPost+0x7a>
    3184:	83 30       	cpi	r24, 0x03	; 3
    3186:	09 f5       	brne	.+66     	; 0x31ca <OSFlagPost+0xba>
    3188:	05 c0       	rjmp	.+10     	; 0x3194 <OSFlagPost+0x84>
            case OS_FLAG_WAIT_SET_ALL:               /* See if all req. flags are set for current node */
                 flags_rdy = pgrp->OSFlagFlags & pnode->OSFlagNodeFlags;
    318a:	f6 01       	movw	r30, r12
    318c:	80 85       	ldd	r24, Z+8	; 0x08
    318e:	f8 01       	movw	r30, r16
    3190:	63 81       	ldd	r22, Z+3	; 0x03
    3192:	0a c0       	rjmp	.+20     	; 0x31a8 <OSFlagPost+0x98>
                     }
                 }
                 break;

            case OS_FLAG_WAIT_SET_ANY:               /* See if any flag set                            */
                 flags_rdy = pgrp->OSFlagFlags & pnode->OSFlagNodeFlags;
    3194:	f6 01       	movw	r30, r12
    3196:	60 85       	ldd	r22, Z+8	; 0x08
    3198:	f8 01       	movw	r30, r16
    319a:	83 81       	ldd	r24, Z+3	; 0x03
    319c:	0e c0       	rjmp	.+28     	; 0x31ba <OSFlagPost+0xaa>
                 }
                 break;

#if OS_FLAG_WAIT_CLR_EN > 0
            case OS_FLAG_WAIT_CLR_ALL:               /* See if all req. flags are set for current node */
                 flags_rdy = ~pgrp->OSFlagFlags & pnode->OSFlagNodeFlags;
    319e:	f6 01       	movw	r30, r12
    31a0:	80 85       	ldd	r24, Z+8	; 0x08
    31a2:	f8 01       	movw	r30, r16
    31a4:	63 81       	ldd	r22, Z+3	; 0x03
    31a6:	60 95       	com	r22
    31a8:	68 23       	and	r22, r24
                 if (flags_rdy == pnode->OSFlagNodeFlags) {
    31aa:	68 17       	cp	r22, r24
    31ac:	a9 f4       	brne	.+42     	; 0x31d8 <OSFlagPost+0xc8>
    31ae:	07 c0       	rjmp	.+14     	; 0x31be <OSFlagPost+0xae>
                     }
                 }
                 break;

            case OS_FLAG_WAIT_CLR_ANY:               /* See if any flag set                            */
                 flags_rdy = ~pgrp->OSFlagFlags & pnode->OSFlagNodeFlags;
    31b0:	f8 01       	movw	r30, r16
    31b2:	63 81       	ldd	r22, Z+3	; 0x03
    31b4:	60 95       	com	r22
    31b6:	f6 01       	movw	r30, r12
    31b8:	80 85       	ldd	r24, Z+8	; 0x08
    31ba:	68 23       	and	r22, r24
                 if (flags_rdy != (OS_FLAGS)0) {
    31bc:	69 f0       	breq	.+26     	; 0x31d8 <OSFlagPost+0xc8>
				     rdy = OS_FlagTaskRdy(pnode, flags_rdy);  /* Make task RTR, event(s) Rx'd          */
    31be:	c6 01       	movw	r24, r12
    31c0:	0e 94 27 0e 	call	0x1c4e	; 0x1c4e <OS_FlagTaskRdy>
                     if (rdy == TRUE) {                       
    31c4:	81 30       	cpi	r24, 0x01	; 1
    31c6:	41 f4       	brne	.+16     	; 0x31d8 <OSFlagPost+0xc8>
    31c8:	05 c0       	rjmp	.+10     	; 0x31d4 <OSFlagPost+0xc4>
                     }
                 }
                 break;
#endif
            default:
                 OS_EXIT_CRITICAL();
    31ca:	0f 91       	pop	r16
    31cc:	0f bf       	out	0x3f, r16	; 63
    31ce:	0f 91       	pop	r16
                 *err = OS_FLAG_ERR_WAIT_TYPE;
    31d0:	87 e9       	ldi	r24, 0x97	; 151
    31d2:	cc cf       	rjmp	.-104    	; 0x316c <OSFlagPost+0x5c>
                 return ((OS_FLAGS)0);
    31d4:	f1 e0       	ldi	r31, 0x01	; 1
    31d6:	f9 83       	std	Y+1, r31	; 0x01
        }
        pnode = (OS_FLAG_NODE *)pnode->OSFlagNodeNext; /* Point to next task waiting for event flag(s) */
    31d8:	f6 01       	movw	r30, r12
    31da:	80 81       	ld	r24, Z
    31dc:	91 81       	ldd	r25, Z+1	; 0x01
    31de:	9c 01       	movw	r18, r24
    31e0:	69 01       	movw	r12, r18
             *err = OS_FLAG_INVALID_OPT;
             return ((OS_FLAGS)0);
    }
    sched = FALSE;                                   /* Indicate that we don't need rescheduling       */
    pnode = (OS_FLAG_NODE *)pgrp->OSFlagWaitList;
    while (pnode != (OS_FLAG_NODE *)0) {             /* Go through all tasks waiting on event flag(s)  */
    31e2:	c1 14       	cp	r12, r1
    31e4:	d1 04       	cpc	r13, r1
    31e6:	31 f6       	brne	.-116    	; 0x3174 <OSFlagPost+0x64>
                 *err = OS_FLAG_ERR_WAIT_TYPE;
                 return ((OS_FLAGS)0);
        }
        pnode = (OS_FLAG_NODE *)pnode->OSFlagNodeNext; /* Point to next task waiting for event flag(s) */
    }
    OS_EXIT_CRITICAL();
    31e8:	0f 91       	pop	r16
    31ea:	0f bf       	out	0x3f, r16	; 63
    31ec:	0f 91       	pop	r16
    if (sched == TRUE) {
    31ee:	f9 81       	ldd	r31, Y+1	; 0x01
    31f0:	f1 30       	cpi	r31, 0x01	; 1
    31f2:	11 f4       	brne	.+4      	; 0x31f8 <OSFlagPost+0xe8>
        OS_Sched();
    31f4:	0e 94 ee 11 	call	0x23dc	; 0x23dc <OS_Sched>
    }
    OS_ENTER_CRITICAL();
    31f8:	0f 93       	push	r16
    31fa:	0f b7       	in	r16, 0x3f	; 63
    31fc:	0f 93       	push	r16
    31fe:	f8 94       	cli
    flags_cur = pgrp->OSFlagFlags;
    3200:	f8 01       	movw	r30, r16
    3202:	83 81       	ldd	r24, Z+3	; 0x03
    OS_EXIT_CRITICAL();
    3204:	0f 91       	pop	r16
    3206:	0f bf       	out	0x3f, r16	; 63
    3208:	0f 91       	pop	r16
    *err      = OS_NO_ERR;
    320a:	f7 01       	movw	r30, r14
    320c:	10 82       	st	Z, r1
    return (flags_cur);
}
    320e:	0f 90       	pop	r0
    3210:	cf 91       	pop	r28
    3212:	df 91       	pop	r29
    3214:	1f 91       	pop	r17
    3216:	0f 91       	pop	r16
    3218:	ff 90       	pop	r15
    321a:	ef 90       	pop	r14
    321c:	df 90       	pop	r13
    321e:	cf 90       	pop	r12
    3220:	08 95       	ret

00003222 <OSFlagPend>:
* Called from: Task ONLY
*********************************************************************************************************
*/

OS_FLAGS  OSFlagPend (OS_FLAG_GRP *pgrp, OS_FLAGS flags, INT8U wait_type, INT16U timeout, INT8U *err)
{
    3222:	df 92       	push	r13
    3224:	ef 92       	push	r14
    3226:	ff 92       	push	r15
    3228:	0f 93       	push	r16
    322a:	1f 93       	push	r17
    322c:	df 93       	push	r29
    322e:	cf 93       	push	r28
    3230:	cd b7       	in	r28, 0x3d	; 61
    3232:	de b7       	in	r29, 0x3e	; 62
    3234:	2b 97       	sbiw	r28, 0x0b	; 11
    3236:	0f b6       	in	r0, 0x3f	; 63
    3238:	f8 94       	cli
    323a:	de bf       	out	0x3e, r29	; 62
    323c:	0f be       	out	0x3f, r0	; 63
    323e:	cd bf       	out	0x3d, r28	; 61
    3240:	7c 01       	movw	r14, r24
    3242:	d4 2e       	mov	r13, r20
    OS_FLAGS      flags_cur;
    OS_FLAGS      flags_rdy;
    BOOLEAN       consume;


    if (OSIntNesting > 0) {                                /* See if called from ISR ...               */
    3244:	80 91 3b 04 	lds	r24, 0x043B
    3248:	88 23       	and	r24, r24
    324a:	11 f0       	breq	.+4      	; 0x3250 <OSFlagPend+0x2e>
        *err = OS_ERR_PEND_ISR;                            /* ... can't PEND from an ISR               */
    324c:	82 e0       	ldi	r24, 0x02	; 2
    324e:	05 c0       	rjmp	.+10     	; 0x325a <OSFlagPend+0x38>
    if (pgrp == (OS_FLAG_GRP *)0) {                        /* Validate 'pgrp'                          */
        *err = OS_FLAG_INVALID_PGRP;
        return ((OS_FLAGS)0);
    }
#endif
    if (pgrp->OSFlagType != OS_EVENT_TYPE_FLAG) {          /* Validate event block type                */
    3250:	f7 01       	movw	r30, r14
    3252:	80 81       	ld	r24, Z
    3254:	85 30       	cpi	r24, 0x05	; 5
    3256:	29 f0       	breq	.+10     	; 0x3262 <OSFlagPend+0x40>
        *err = OS_ERR_EVENT_TYPE;
    3258:	81 e0       	ldi	r24, 0x01	; 1
    325a:	d8 01       	movw	r26, r16
    325c:	8c 93       	st	X, r24
    325e:	80 e0       	ldi	r24, 0x00	; 0
    3260:	e3 c1       	rjmp	.+966    	; 0x3628 <OSFlagPend+0x406>
        return ((OS_FLAGS)0);
    }
    if (wait_type & OS_FLAG_CONSUME) {                     /* See if we need to consume the flags      */
    3262:	47 fd       	sbrc	r20, 7
    3264:	02 c0       	rjmp	.+4      	; 0x326a <OSFlagPend+0x48>
    3266:	1b 86       	std	Y+11, r1	; 0x0b
    3268:	04 c0       	rjmp	.+8      	; 0x3272 <OSFlagPend+0x50>
        wait_type &= ~OS_FLAG_CONSUME;
    326a:	bf e7       	ldi	r27, 0x7F	; 127
    326c:	db 22       	and	r13, r27
    326e:	e1 e0       	ldi	r30, 0x01	; 1
    3270:	eb 87       	std	Y+11, r30	; 0x0b
        consume    = TRUE;
    } else {
        consume    = FALSE;
    }
/*$PAGE*/
    OS_ENTER_CRITICAL();
    3272:	0f 93       	push	r16
    3274:	0f b7       	in	r16, 0x3f	; 63
    3276:	0f 93       	push	r16
    3278:	f8 94       	cli
    switch (wait_type) {
    327a:	f1 e0       	ldi	r31, 0x01	; 1
    327c:	df 16       	cp	r13, r31
    327e:	09 f4       	brne	.+2      	; 0x3282 <OSFlagPend+0x60>
    3280:	1c c1       	rjmp	.+568    	; 0x34ba <OSFlagPend+0x298>
    3282:	df 16       	cp	r13, r31
    3284:	08 f4       	brcc	.+2      	; 0x3288 <OSFlagPend+0x66>
    3286:	be c0       	rjmp	.+380    	; 0x3404 <OSFlagPend+0x1e2>
    3288:	82 e0       	ldi	r24, 0x02	; 2
    328a:	d8 16       	cp	r13, r24
    328c:	29 f0       	breq	.+10     	; 0x3298 <OSFlagPend+0x76>
    328e:	a3 e0       	ldi	r26, 0x03	; 3
    3290:	da 16       	cp	r13, r26
    3292:	09 f0       	breq	.+2      	; 0x3296 <OSFlagPend+0x74>
    3294:	6c c1       	rjmp	.+728    	; 0x356e <OSFlagPend+0x34c>
    3296:	5c c0       	rjmp	.+184    	; 0x3350 <OSFlagPend+0x12e>
        case OS_FLAG_WAIT_SET_ALL:                         /* See if all required flags are set        */
             flags_rdy = pgrp->OSFlagFlags & flags;        /* Extract only the bits we want            */
    3298:	f7 01       	movw	r30, r14
    329a:	93 81       	ldd	r25, Z+3	; 0x03
    329c:	86 2f       	mov	r24, r22
    329e:	89 23       	and	r24, r25
             if (flags_rdy == flags) {                     /* Must match ALL the bits that we want     */
    32a0:	86 17       	cp	r24, r22
    32a2:	81 f4       	brne	.+32     	; 0x32c4 <OSFlagPend+0xa2>
                 if (consume == TRUE) {                    /* See if we need to consume the flags      */
    32a4:	fb 85       	ldd	r31, Y+11	; 0x0b
    32a6:	f1 30       	cpi	r31, 0x01	; 1
    32a8:	29 f4       	brne	.+10     	; 0x32b4 <OSFlagPend+0x92>
                     pgrp->OSFlagFlags &= ~flags_rdy;      /* Clear ONLY the flags that we wanted      */
    32aa:	60 95       	com	r22
    32ac:	96 23       	and	r25, r22
    32ae:	d7 01       	movw	r26, r14
    32b0:	13 96       	adiw	r26, 0x03	; 3
    32b2:	9c 93       	st	X, r25
                 }
                 flags_cur = pgrp->OSFlagFlags;            /* Will return the state of the group       */
    32b4:	f7 01       	movw	r30, r14
    32b6:	83 81       	ldd	r24, Z+3	; 0x03
                 OS_EXIT_CRITICAL();                       /* Yes, condition met, return to caller     */
    32b8:	0f 91       	pop	r16
    32ba:	0f bf       	out	0x3f, r16	; 63
    32bc:	0f 91       	pop	r16
                 *err      = OS_NO_ERR;
    32be:	d8 01       	movw	r26, r16
    32c0:	1c 92       	st	X, r1
    32c2:	b2 c1       	rjmp	.+868    	; 0x3628 <OSFlagPend+0x406>
{
    OS_FLAG_NODE  *pnode_next;
	INT8U          y;


    OSTCBCur->OSTCBStat      |= OS_STAT_FLAG;
    32c4:	e0 91 3c 04 	lds	r30, 0x043C
    32c8:	f0 91 3d 04 	lds	r31, 0x043D
    32cc:	85 85       	ldd	r24, Z+13	; 0x0d
    32ce:	80 62       	ori	r24, 0x20	; 32
    32d0:	85 87       	std	Z+13, r24	; 0x0d
    OSTCBCur->OSTCBDly        = timeout;              /* Store timeout in task's TCB                   */
    32d2:	e0 91 3c 04 	lds	r30, 0x043C
    32d6:	f0 91 3d 04 	lds	r31, 0x043D
    32da:	34 87       	std	Z+12, r19	; 0x0c
    32dc:	23 87       	std	Z+11, r18	; 0x0b
#if OS_TASK_DEL_EN > 0
    OSTCBCur->OSTCBFlagNode   = pnode;                /* TCB to link to node                           */
#endif
    pnode->OSFlagNodeFlags    = flags;                /* Save the flags that we need to wait for       */
    32de:	69 87       	std	Y+9, r22	; 0x09
    pnode->OSFlagNodeWaitType = wait_type;            /* Save the type of wait we are doing            */
    32e0:	da 86       	std	Y+10, r13	; 0x0a
    pnode->OSFlagNodeTCB      = (void *)OSTCBCur;     /* Link to task's TCB                            */
    32e2:	fe 83       	std	Y+6, r31	; 0x06
    32e4:	ed 83       	std	Y+5, r30	; 0x05
    pnode->OSFlagNodeNext     = pgrp->OSFlagWaitList; /* Add node at beginning of event flag wait list */
    32e6:	d7 01       	movw	r26, r14
    32e8:	11 96       	adiw	r26, 0x01	; 1
    32ea:	ed 91       	ld	r30, X+
    32ec:	fc 91       	ld	r31, X
    32ee:	12 97       	sbiw	r26, 0x02	; 2
    32f0:	fa 83       	std	Y+2, r31	; 0x02
    32f2:	e9 83       	std	Y+1, r30	; 0x01
    pnode->OSFlagNodePrev     = (void *)0;
    32f4:	1c 82       	std	Y+4, r1	; 0x04
    32f6:	1b 82       	std	Y+3, r1	; 0x03
    pnode->OSFlagNodeFlagGrp  = (void *)pgrp;         /* Link to Event Flag Group                      */
    32f8:	f8 86       	std	Y+8, r15	; 0x08
    32fa:	ef 82       	std	Y+7, r14	; 0x07
    pnode_next                = (OS_FLAG_NODE *)pgrp->OSFlagWaitList;
    if (pnode_next != (void *)0) {                    /* Is this the first NODE to insert?             */
    32fc:	30 97       	sbiw	r30, 0x00	; 0
    32fe:	21 f0       	breq	.+8      	; 0x3308 <OSFlagPend+0xe6>
        pnode_next->OSFlagNodePrev = pnode;           /* No, link in doubly linked list                */
    3300:	ce 01       	movw	r24, r28
    3302:	01 96       	adiw	r24, 0x01	; 1
    3304:	93 83       	std	Z+3, r25	; 0x03
    3306:	82 83       	std	Z+2, r24	; 0x02
    }
    pgrp->OSFlagWaitList = (void *)pnode;
    3308:	ce 01       	movw	r24, r28
    330a:	01 96       	adiw	r24, 0x01	; 1
    330c:	f7 01       	movw	r30, r14
    330e:	92 83       	std	Z+2, r25	; 0x02
    3310:	81 83       	std	Z+1, r24	; 0x01
                                                      
    y            =  OSTCBCur->OSTCBY;		 	      /* Suspend current task until flag(s) received   */
    3312:	a0 91 3c 04 	lds	r26, 0x043C
    3316:	b0 91 3d 04 	lds	r27, 0x043D
	OSRdyTbl[y] &= ~OSTCBCur->OSTCBBitX;
    331a:	50 96       	adiw	r26, 0x10	; 16
    331c:	ec 91       	ld	r30, X
    331e:	50 97       	sbiw	r26, 0x10	; 16
    3320:	f0 e0       	ldi	r31, 0x00	; 0
    3322:	ea 5c       	subi	r30, 0xCA	; 202
    3324:	fb 4f       	sbci	r31, 0xFB	; 251
    3326:	51 96       	adiw	r26, 0x11	; 17
    3328:	8c 91       	ld	r24, X
    332a:	51 97       	sbiw	r26, 0x11	; 17
    332c:	80 95       	com	r24
    332e:	90 81       	ld	r25, Z
    3330:	89 23       	and	r24, r25
    3332:	80 83       	st	Z, r24
    if (OSRdyTbl[y] == 0x00) {
    3334:	88 23       	and	r24, r24
    3336:	41 f4       	brne	.+16     	; 0x3348 <OSFlagPend+0x126>
        OSRdyGrp &= ~OSTCBCur->OSTCBBitY;
    3338:	52 96       	adiw	r26, 0x12	; 18
    333a:	9c 91       	ld	r25, X
    333c:	90 95       	com	r25
    333e:	80 91 35 04 	lds	r24, 0x0435
    3342:	89 23       	and	r24, r25
    3344:	80 93 35 04 	sts	0x0435, r24
                 OS_EXIT_CRITICAL();                       /* Yes, condition met, return to caller     */
                 *err      = OS_NO_ERR;
                 return (flags_cur);
             } else {                                      /* Block task until events occur or timeout */
                 OS_FlagBlock(pgrp, &node, flags, wait_type, timeout);
                 OS_EXIT_CRITICAL();
    3348:	0f 91       	pop	r16
    334a:	0f bf       	out	0x3f, r16	; 63
    334c:	0f 91       	pop	r16
    334e:	14 c1       	rjmp	.+552    	; 0x3578 <OSFlagPend+0x356>
             }
             break;

        case OS_FLAG_WAIT_SET_ANY:
             flags_rdy = pgrp->OSFlagFlags & flags;        /* Extract only the bits we want            */
    3350:	d7 01       	movw	r26, r14
    3352:	13 96       	adiw	r26, 0x03	; 3
    3354:	9c 91       	ld	r25, X
    3356:	86 2f       	mov	r24, r22
    3358:	89 23       	and	r24, r25
             if (flags_rdy != (OS_FLAGS)0) {               /* See if any flag set                      */
    335a:	71 f0       	breq	.+28     	; 0x3378 <OSFlagPend+0x156>
                 if (consume == TRUE) {                    /* See if we need to consume the flags      */
    335c:	bb 85       	ldd	r27, Y+11	; 0x0b
    335e:	b1 30       	cpi	r27, 0x01	; 1
    3360:	21 f4       	brne	.+8      	; 0x336a <OSFlagPend+0x148>
                     pgrp->OSFlagFlags &= ~flags_rdy;      /* Clear ONLY the flags that we got         */
    3362:	80 95       	com	r24
    3364:	89 23       	and	r24, r25
    3366:	f7 01       	movw	r30, r14
    3368:	83 83       	std	Z+3, r24	; 0x03
                 }
                 flags_cur = pgrp->OSFlagFlags;            /* Will return the state of the group       */
    336a:	d7 01       	movw	r26, r14
    336c:	13 96       	adiw	r26, 0x03	; 3
    336e:	8c 91       	ld	r24, X
                 OS_EXIT_CRITICAL();                       /* Yes, condition met, return to caller     */
    3370:	0f 91       	pop	r16
    3372:	0f bf       	out	0x3f, r16	; 63
    3374:	0f 91       	pop	r16
    3376:	56 c1       	rjmp	.+684    	; 0x3624 <OSFlagPend+0x402>
{
    OS_FLAG_NODE  *pnode_next;
	INT8U          y;


    OSTCBCur->OSTCBStat      |= OS_STAT_FLAG;
    3378:	e0 91 3c 04 	lds	r30, 0x043C
    337c:	f0 91 3d 04 	lds	r31, 0x043D
    3380:	85 85       	ldd	r24, Z+13	; 0x0d
    3382:	80 62       	ori	r24, 0x20	; 32
    3384:	85 87       	std	Z+13, r24	; 0x0d
    OSTCBCur->OSTCBDly        = timeout;              /* Store timeout in task's TCB                   */
    3386:	e0 91 3c 04 	lds	r30, 0x043C
    338a:	f0 91 3d 04 	lds	r31, 0x043D
    338e:	34 87       	std	Z+12, r19	; 0x0c
    3390:	23 87       	std	Z+11, r18	; 0x0b
#if OS_TASK_DEL_EN > 0
    OSTCBCur->OSTCBFlagNode   = pnode;                /* TCB to link to node                           */
#endif
    pnode->OSFlagNodeFlags    = flags;                /* Save the flags that we need to wait for       */
    3392:	69 87       	std	Y+9, r22	; 0x09
    pnode->OSFlagNodeWaitType = wait_type;            /* Save the type of wait we are doing            */
    3394:	da 86       	std	Y+10, r13	; 0x0a
    pnode->OSFlagNodeTCB      = (void *)OSTCBCur;     /* Link to task's TCB                            */
    3396:	fe 83       	std	Y+6, r31	; 0x06
    3398:	ed 83       	std	Y+5, r30	; 0x05
    pnode->OSFlagNodeNext     = pgrp->OSFlagWaitList; /* Add node at beginning of event flag wait list */
    339a:	d7 01       	movw	r26, r14
    339c:	11 96       	adiw	r26, 0x01	; 1
    339e:	ed 91       	ld	r30, X+
    33a0:	fc 91       	ld	r31, X
    33a2:	12 97       	sbiw	r26, 0x02	; 2
    33a4:	fa 83       	std	Y+2, r31	; 0x02
    33a6:	e9 83       	std	Y+1, r30	; 0x01
    pnode->OSFlagNodePrev     = (void *)0;
    33a8:	1c 82       	std	Y+4, r1	; 0x04
    33aa:	1b 82       	std	Y+3, r1	; 0x03
    pnode->OSFlagNodeFlagGrp  = (void *)pgrp;         /* Link to Event Flag Group                      */
    33ac:	f8 86       	std	Y+8, r15	; 0x08
    33ae:	ef 82       	std	Y+7, r14	; 0x07
    pnode_next                = (OS_FLAG_NODE *)pgrp->OSFlagWaitList;
    if (pnode_next != (void *)0) {                    /* Is this the first NODE to insert?             */
    33b0:	30 97       	sbiw	r30, 0x00	; 0
    33b2:	21 f0       	breq	.+8      	; 0x33bc <OSFlagPend+0x19a>
        pnode_next->OSFlagNodePrev = pnode;           /* No, link in doubly linked list                */
    33b4:	ce 01       	movw	r24, r28
    33b6:	01 96       	adiw	r24, 0x01	; 1
    33b8:	93 83       	std	Z+3, r25	; 0x03
    33ba:	82 83       	std	Z+2, r24	; 0x02
    }
    pgrp->OSFlagWaitList = (void *)pnode;
    33bc:	ce 01       	movw	r24, r28
    33be:	01 96       	adiw	r24, 0x01	; 1
    33c0:	f7 01       	movw	r30, r14
    33c2:	92 83       	std	Z+2, r25	; 0x02
    33c4:	81 83       	std	Z+1, r24	; 0x01
                                                      
    y            =  OSTCBCur->OSTCBY;		 	      /* Suspend current task until flag(s) received   */
    33c6:	a0 91 3c 04 	lds	r26, 0x043C
    33ca:	b0 91 3d 04 	lds	r27, 0x043D
	OSRdyTbl[y] &= ~OSTCBCur->OSTCBBitX;
    33ce:	50 96       	adiw	r26, 0x10	; 16
    33d0:	ec 91       	ld	r30, X
    33d2:	50 97       	sbiw	r26, 0x10	; 16
    33d4:	f0 e0       	ldi	r31, 0x00	; 0
    33d6:	ea 5c       	subi	r30, 0xCA	; 202
    33d8:	fb 4f       	sbci	r31, 0xFB	; 251
    33da:	51 96       	adiw	r26, 0x11	; 17
    33dc:	8c 91       	ld	r24, X
    33de:	51 97       	sbiw	r26, 0x11	; 17
    33e0:	80 95       	com	r24
    33e2:	90 81       	ld	r25, Z
    33e4:	89 23       	and	r24, r25
    33e6:	80 83       	st	Z, r24
    if (OSRdyTbl[y] == 0x00) {
    33e8:	88 23       	and	r24, r24
    33ea:	41 f4       	brne	.+16     	; 0x33fc <OSFlagPend+0x1da>
        OSRdyGrp &= ~OSTCBCur->OSTCBBitY;
    33ec:	52 96       	adiw	r26, 0x12	; 18
    33ee:	9c 91       	ld	r25, X
    33f0:	90 95       	com	r25
    33f2:	80 91 35 04 	lds	r24, 0x0435
    33f6:	89 23       	and	r24, r25
    33f8:	80 93 35 04 	sts	0x0435, r24
                 OS_EXIT_CRITICAL();                       /* Yes, condition met, return to caller     */
                 *err      = OS_NO_ERR;
                 return (flags_cur);
             } else {                                      /* Block task until events occur or timeout */
                 OS_FlagBlock(pgrp, &node, flags, wait_type, timeout);
                 OS_EXIT_CRITICAL();
    33fc:	0f 91       	pop	r16
    33fe:	0f bf       	out	0x3f, r16	; 63
    3400:	0f 91       	pop	r16
    3402:	ba c0       	rjmp	.+372    	; 0x3578 <OSFlagPend+0x356>
             }
             break;

#if OS_FLAG_WAIT_CLR_EN > 0
        case OS_FLAG_WAIT_CLR_ALL:                         /* See if all required flags are cleared    */
             flags_rdy = ~pgrp->OSFlagFlags & flags;       /* Extract only the bits we want            */
    3404:	d7 01       	movw	r26, r14
    3406:	13 96       	adiw	r26, 0x03	; 3
    3408:	9c 91       	ld	r25, X
    340a:	89 2f       	mov	r24, r25
    340c:	80 95       	com	r24
    340e:	86 23       	and	r24, r22
             if (flags_rdy == flags) {                     /* Must match ALL the bits that we want     */
    3410:	86 17       	cp	r24, r22
    3412:	69 f4       	brne	.+26     	; 0x342e <OSFlagPend+0x20c>
                 if (consume == TRUE) {                    /* See if we need to consume the flags      */
    3414:	bb 85       	ldd	r27, Y+11	; 0x0b
    3416:	b1 30       	cpi	r27, 0x01	; 1
    3418:	19 f4       	brne	.+6      	; 0x3420 <OSFlagPend+0x1fe>
                     pgrp->OSFlagFlags |= flags_rdy;       /* Set ONLY the flags that we wanted        */
    341a:	96 2b       	or	r25, r22
    341c:	f7 01       	movw	r30, r14
    341e:	93 83       	std	Z+3, r25	; 0x03
                 }
                 flags_cur = pgrp->OSFlagFlags;            /* Will return the state of the group       */
    3420:	d7 01       	movw	r26, r14
    3422:	13 96       	adiw	r26, 0x03	; 3
    3424:	8c 91       	ld	r24, X
                 OS_EXIT_CRITICAL();                       /* Yes, condition met, return to caller     */
    3426:	0f 91       	pop	r16
    3428:	0f bf       	out	0x3f, r16	; 63
    342a:	0f 91       	pop	r16
    342c:	fb c0       	rjmp	.+502    	; 0x3624 <OSFlagPend+0x402>
{
    OS_FLAG_NODE  *pnode_next;
	INT8U          y;


    OSTCBCur->OSTCBStat      |= OS_STAT_FLAG;
    342e:	e0 91 3c 04 	lds	r30, 0x043C
    3432:	f0 91 3d 04 	lds	r31, 0x043D
    3436:	85 85       	ldd	r24, Z+13	; 0x0d
    3438:	80 62       	ori	r24, 0x20	; 32
    343a:	85 87       	std	Z+13, r24	; 0x0d
    OSTCBCur->OSTCBDly        = timeout;              /* Store timeout in task's TCB                   */
    343c:	e0 91 3c 04 	lds	r30, 0x043C
    3440:	f0 91 3d 04 	lds	r31, 0x043D
    3444:	34 87       	std	Z+12, r19	; 0x0c
    3446:	23 87       	std	Z+11, r18	; 0x0b
#if OS_TASK_DEL_EN > 0
    OSTCBCur->OSTCBFlagNode   = pnode;                /* TCB to link to node                           */
#endif
    pnode->OSFlagNodeFlags    = flags;                /* Save the flags that we need to wait for       */
    3448:	69 87       	std	Y+9, r22	; 0x09
    pnode->OSFlagNodeWaitType = wait_type;            /* Save the type of wait we are doing            */
    344a:	1a 86       	std	Y+10, r1	; 0x0a
    pnode->OSFlagNodeTCB      = (void *)OSTCBCur;     /* Link to task's TCB                            */
    344c:	fe 83       	std	Y+6, r31	; 0x06
    344e:	ed 83       	std	Y+5, r30	; 0x05
    pnode->OSFlagNodeNext     = pgrp->OSFlagWaitList; /* Add node at beginning of event flag wait list */
    3450:	d7 01       	movw	r26, r14
    3452:	11 96       	adiw	r26, 0x01	; 1
    3454:	ed 91       	ld	r30, X+
    3456:	fc 91       	ld	r31, X
    3458:	12 97       	sbiw	r26, 0x02	; 2
    345a:	fa 83       	std	Y+2, r31	; 0x02
    345c:	e9 83       	std	Y+1, r30	; 0x01
    pnode->OSFlagNodePrev     = (void *)0;
    345e:	1c 82       	std	Y+4, r1	; 0x04
    3460:	1b 82       	std	Y+3, r1	; 0x03
    pnode->OSFlagNodeFlagGrp  = (void *)pgrp;         /* Link to Event Flag Group                      */
    3462:	f8 86       	std	Y+8, r15	; 0x08
    3464:	ef 82       	std	Y+7, r14	; 0x07
    pnode_next                = (OS_FLAG_NODE *)pgrp->OSFlagWaitList;
    if (pnode_next != (void *)0) {                    /* Is this the first NODE to insert?             */
    3466:	30 97       	sbiw	r30, 0x00	; 0
    3468:	21 f0       	breq	.+8      	; 0x3472 <OSFlagPend+0x250>
        pnode_next->OSFlagNodePrev = pnode;           /* No, link in doubly linked list                */
    346a:	ce 01       	movw	r24, r28
    346c:	01 96       	adiw	r24, 0x01	; 1
    346e:	93 83       	std	Z+3, r25	; 0x03
    3470:	82 83       	std	Z+2, r24	; 0x02
    }
    pgrp->OSFlagWaitList = (void *)pnode;
    3472:	ce 01       	movw	r24, r28
    3474:	01 96       	adiw	r24, 0x01	; 1
    3476:	f7 01       	movw	r30, r14
    3478:	92 83       	std	Z+2, r25	; 0x02
    347a:	81 83       	std	Z+1, r24	; 0x01
                                                      
    y            =  OSTCBCur->OSTCBY;		 	      /* Suspend current task until flag(s) received   */
    347c:	a0 91 3c 04 	lds	r26, 0x043C
    3480:	b0 91 3d 04 	lds	r27, 0x043D
	OSRdyTbl[y] &= ~OSTCBCur->OSTCBBitX;
    3484:	50 96       	adiw	r26, 0x10	; 16
    3486:	ec 91       	ld	r30, X
    3488:	50 97       	sbiw	r26, 0x10	; 16
    348a:	f0 e0       	ldi	r31, 0x00	; 0
    348c:	ea 5c       	subi	r30, 0xCA	; 202
    348e:	fb 4f       	sbci	r31, 0xFB	; 251
    3490:	51 96       	adiw	r26, 0x11	; 17
    3492:	8c 91       	ld	r24, X
    3494:	51 97       	sbiw	r26, 0x11	; 17
    3496:	80 95       	com	r24
    3498:	90 81       	ld	r25, Z
    349a:	89 23       	and	r24, r25
    349c:	80 83       	st	Z, r24
    if (OSRdyTbl[y] == 0x00) {
    349e:	88 23       	and	r24, r24
    34a0:	41 f4       	brne	.+16     	; 0x34b2 <OSFlagPend+0x290>
        OSRdyGrp &= ~OSTCBCur->OSTCBBitY;
    34a2:	52 96       	adiw	r26, 0x12	; 18
    34a4:	9c 91       	ld	r25, X
    34a6:	90 95       	com	r25
    34a8:	80 91 35 04 	lds	r24, 0x0435
    34ac:	89 23       	and	r24, r25
    34ae:	80 93 35 04 	sts	0x0435, r24
                 OS_EXIT_CRITICAL();                       /* Yes, condition met, return to caller     */
                 *err      = OS_NO_ERR;
                 return (flags_cur);
             } else {                                      /* Block task until events occur or timeout */
                 OS_FlagBlock(pgrp, &node, flags, wait_type, timeout);
                 OS_EXIT_CRITICAL();
    34b2:	0f 91       	pop	r16
    34b4:	0f bf       	out	0x3f, r16	; 63
    34b6:	0f 91       	pop	r16
    34b8:	5f c0       	rjmp	.+190    	; 0x3578 <OSFlagPend+0x356>
             }
             break;

        case OS_FLAG_WAIT_CLR_ANY:
             flags_rdy = ~pgrp->OSFlagFlags & flags;       /* Extract only the bits we want            */
    34ba:	d7 01       	movw	r26, r14
    34bc:	13 96       	adiw	r26, 0x03	; 3
    34be:	9c 91       	ld	r25, X
    34c0:	89 2f       	mov	r24, r25
    34c2:	80 95       	com	r24
    34c4:	86 23       	and	r24, r22
             if (flags_rdy != (OS_FLAGS)0) {               /* See if any flag cleared                  */
    34c6:	69 f0       	breq	.+26     	; 0x34e2 <OSFlagPend+0x2c0>
                 if (consume == TRUE) {                    /* See if we need to consume the flags      */
    34c8:	bb 85       	ldd	r27, Y+11	; 0x0b
    34ca:	b1 30       	cpi	r27, 0x01	; 1
    34cc:	19 f4       	brne	.+6      	; 0x34d4 <OSFlagPend+0x2b2>
                     pgrp->OSFlagFlags |= flags_rdy;       /* Set ONLY the flags that we got           */
    34ce:	89 2b       	or	r24, r25
    34d0:	f7 01       	movw	r30, r14
    34d2:	83 83       	std	Z+3, r24	; 0x03
                 }
                 flags_cur = pgrp->OSFlagFlags;            /* Will return the state of the group       */
    34d4:	d7 01       	movw	r26, r14
    34d6:	13 96       	adiw	r26, 0x03	; 3
    34d8:	8c 91       	ld	r24, X
                 OS_EXIT_CRITICAL();                       /* Yes, condition met, return to caller     */
    34da:	0f 91       	pop	r16
    34dc:	0f bf       	out	0x3f, r16	; 63
    34de:	0f 91       	pop	r16
    34e0:	a1 c0       	rjmp	.+322    	; 0x3624 <OSFlagPend+0x402>
{
    OS_FLAG_NODE  *pnode_next;
	INT8U          y;


    OSTCBCur->OSTCBStat      |= OS_STAT_FLAG;
    34e2:	e0 91 3c 04 	lds	r30, 0x043C
    34e6:	f0 91 3d 04 	lds	r31, 0x043D
    34ea:	85 85       	ldd	r24, Z+13	; 0x0d
    34ec:	80 62       	ori	r24, 0x20	; 32
    34ee:	85 87       	std	Z+13, r24	; 0x0d
    OSTCBCur->OSTCBDly        = timeout;              /* Store timeout in task's TCB                   */
    34f0:	e0 91 3c 04 	lds	r30, 0x043C
    34f4:	f0 91 3d 04 	lds	r31, 0x043D
    34f8:	34 87       	std	Z+12, r19	; 0x0c
    34fa:	23 87       	std	Z+11, r18	; 0x0b
#if OS_TASK_DEL_EN > 0
    OSTCBCur->OSTCBFlagNode   = pnode;                /* TCB to link to node                           */
#endif
    pnode->OSFlagNodeFlags    = flags;                /* Save the flags that we need to wait for       */
    34fc:	69 87       	std	Y+9, r22	; 0x09
    pnode->OSFlagNodeWaitType = wait_type;            /* Save the type of wait we are doing            */
    34fe:	da 86       	std	Y+10, r13	; 0x0a
    pnode->OSFlagNodeTCB      = (void *)OSTCBCur;     /* Link to task's TCB                            */
    3500:	fe 83       	std	Y+6, r31	; 0x06
    3502:	ed 83       	std	Y+5, r30	; 0x05
    pnode->OSFlagNodeNext     = pgrp->OSFlagWaitList; /* Add node at beginning of event flag wait list */
    3504:	d7 01       	movw	r26, r14
    3506:	11 96       	adiw	r26, 0x01	; 1
    3508:	ed 91       	ld	r30, X+
    350a:	fc 91       	ld	r31, X
    350c:	12 97       	sbiw	r26, 0x02	; 2
    350e:	fa 83       	std	Y+2, r31	; 0x02
    3510:	e9 83       	std	Y+1, r30	; 0x01
    pnode->OSFlagNodePrev     = (void *)0;
    3512:	1c 82       	std	Y+4, r1	; 0x04
    3514:	1b 82       	std	Y+3, r1	; 0x03
    pnode->OSFlagNodeFlagGrp  = (void *)pgrp;         /* Link to Event Flag Group                      */
    3516:	f8 86       	std	Y+8, r15	; 0x08
    3518:	ef 82       	std	Y+7, r14	; 0x07
    pnode_next                = (OS_FLAG_NODE *)pgrp->OSFlagWaitList;
    if (pnode_next != (void *)0) {                    /* Is this the first NODE to insert?             */
    351a:	30 97       	sbiw	r30, 0x00	; 0
    351c:	21 f0       	breq	.+8      	; 0x3526 <OSFlagPend+0x304>
        pnode_next->OSFlagNodePrev = pnode;           /* No, link in doubly linked list                */
    351e:	ce 01       	movw	r24, r28
    3520:	01 96       	adiw	r24, 0x01	; 1
    3522:	93 83       	std	Z+3, r25	; 0x03
    3524:	82 83       	std	Z+2, r24	; 0x02
    }
    pgrp->OSFlagWaitList = (void *)pnode;
    3526:	ce 01       	movw	r24, r28
    3528:	01 96       	adiw	r24, 0x01	; 1
    352a:	f7 01       	movw	r30, r14
    352c:	92 83       	std	Z+2, r25	; 0x02
    352e:	81 83       	std	Z+1, r24	; 0x01
                                                      
    y            =  OSTCBCur->OSTCBY;		 	      /* Suspend current task until flag(s) received   */
    3530:	a0 91 3c 04 	lds	r26, 0x043C
    3534:	b0 91 3d 04 	lds	r27, 0x043D
	OSRdyTbl[y] &= ~OSTCBCur->OSTCBBitX;
    3538:	50 96       	adiw	r26, 0x10	; 16
    353a:	ec 91       	ld	r30, X
    353c:	50 97       	sbiw	r26, 0x10	; 16
    353e:	f0 e0       	ldi	r31, 0x00	; 0
    3540:	ea 5c       	subi	r30, 0xCA	; 202
    3542:	fb 4f       	sbci	r31, 0xFB	; 251
    3544:	51 96       	adiw	r26, 0x11	; 17
    3546:	8c 91       	ld	r24, X
    3548:	51 97       	sbiw	r26, 0x11	; 17
    354a:	80 95       	com	r24
    354c:	90 81       	ld	r25, Z
    354e:	89 23       	and	r24, r25
    3550:	80 83       	st	Z, r24
    if (OSRdyTbl[y] == 0x00) {
    3552:	88 23       	and	r24, r24
    3554:	41 f4       	brne	.+16     	; 0x3566 <OSFlagPend+0x344>
        OSRdyGrp &= ~OSTCBCur->OSTCBBitY;
    3556:	52 96       	adiw	r26, 0x12	; 18
    3558:	9c 91       	ld	r25, X
    355a:	90 95       	com	r25
    355c:	80 91 35 04 	lds	r24, 0x0435
    3560:	89 23       	and	r24, r25
    3562:	80 93 35 04 	sts	0x0435, r24
                 OS_EXIT_CRITICAL();                       /* Yes, condition met, return to caller     */
                 *err      = OS_NO_ERR;
                 return (flags_cur);
             } else {                                      /* Block task until events occur or timeout */
                 OS_FlagBlock(pgrp, &node, flags, wait_type, timeout);
                 OS_EXIT_CRITICAL();
    3566:	0f 91       	pop	r16
    3568:	0f bf       	out	0x3f, r16	; 63
    356a:	0f 91       	pop	r16
    356c:	05 c0       	rjmp	.+10     	; 0x3578 <OSFlagPend+0x356>
             }
             break;
#endif

        default:
             OS_EXIT_CRITICAL();
    356e:	0f 91       	pop	r16
    3570:	0f bf       	out	0x3f, r16	; 63
    3572:	0f 91       	pop	r16
             flags_cur = (OS_FLAGS)0;
             *err      = OS_FLAG_ERR_WAIT_TYPE;
    3574:	87 e9       	ldi	r24, 0x97	; 151
    3576:	71 ce       	rjmp	.-798    	; 0x325a <OSFlagPend+0x38>
             return (flags_cur);
    }
    OS_Sched();                                            /* Find next HPT ready to run               */
    3578:	0e 94 ee 11 	call	0x23dc	; 0x23dc <OS_Sched>
    OS_ENTER_CRITICAL();
    357c:	0f 93       	push	r16
    357e:	0f b7       	in	r16, 0x3f	; 63
    3580:	0f 93       	push	r16
    3582:	f8 94       	cli
    if (OSTCBCur->OSTCBStat & OS_STAT_FLAG) {              /* Have we timed-out?                       */
    3584:	e0 91 3c 04 	lds	r30, 0x043C
    3588:	f0 91 3d 04 	lds	r31, 0x043D
    358c:	85 85       	ldd	r24, Z+13	; 0x0d
    358e:	85 ff       	sbrs	r24, 5
    3590:	25 c0       	rjmp	.+74     	; 0x35dc <OSFlagPend+0x3ba>
    OS_FLAG_GRP  *pgrp;
    OS_FLAG_NODE *pnode_prev;
    OS_FLAG_NODE *pnode_next;


    pnode_prev = (OS_FLAG_NODE *)pnode->OSFlagNodePrev;
    3592:	eb 81       	ldd	r30, Y+3	; 0x03
    3594:	fc 81       	ldd	r31, Y+4	; 0x04
    pnode_next = (OS_FLAG_NODE *)pnode->OSFlagNodeNext;
    3596:	a9 81       	ldd	r26, Y+1	; 0x01
    3598:	ba 81       	ldd	r27, Y+2	; 0x02
    if (pnode_prev == (OS_FLAG_NODE *)0) {                      /* Is it first node in wait list?      */
    359a:	30 97       	sbiw	r30, 0x00	; 0
    359c:	59 f4       	brne	.+22     	; 0x35b4 <OSFlagPend+0x392>
        pgrp                 = (OS_FLAG_GRP *)pnode->OSFlagNodeFlagGrp;
        pgrp->OSFlagWaitList = (void *)pnode_next;              /*      Update list for new 1st node   */
    359e:	ef 81       	ldd	r30, Y+7	; 0x07
    35a0:	f8 85       	ldd	r31, Y+8	; 0x08
    35a2:	b2 83       	std	Z+2, r27	; 0x02
    35a4:	a1 83       	std	Z+1, r26	; 0x01
        if (pnode_next != (OS_FLAG_NODE *)0) {
    35a6:	10 97       	sbiw	r26, 0x00	; 0
    35a8:	69 f0       	breq	.+26     	; 0x35c4 <OSFlagPend+0x3a2>
            pnode_next->OSFlagNodePrev = (OS_FLAG_NODE *)0;     /*      Link new 1st node PREV to NULL */
    35aa:	13 96       	adiw	r26, 0x03	; 3
    35ac:	1c 92       	st	X, r1
    35ae:	1e 92       	st	-X, r1
    35b0:	12 97       	sbiw	r26, 0x02	; 2
    35b2:	08 c0       	rjmp	.+16     	; 0x35c4 <OSFlagPend+0x3a2>
        }
    } else {                                                    /* No,  A node somewhere in the list   */
        pnode_prev->OSFlagNodeNext = pnode_next;                /*      Link around the node to unlink */
    35b4:	b1 83       	std	Z+1, r27	; 0x01
    35b6:	a0 83       	st	Z, r26
        if (pnode_next != (OS_FLAG_NODE *)0) {                  /*      Was this the LAST node?        */
    35b8:	10 97       	sbiw	r26, 0x00	; 0
    35ba:	21 f0       	breq	.+8      	; 0x35c4 <OSFlagPend+0x3a2>
            pnode_next->OSFlagNodePrev = pnode_prev;            /*      No, Link around current node   */
    35bc:	13 96       	adiw	r26, 0x03	; 3
    35be:	fc 93       	st	X, r31
    35c0:	ee 93       	st	-X, r30
    35c2:	12 97       	sbiw	r26, 0x02	; 2
    }
    OS_Sched();                                            /* Find next HPT ready to run               */
    OS_ENTER_CRITICAL();
    if (OSTCBCur->OSTCBStat & OS_STAT_FLAG) {              /* Have we timed-out?                       */
        OS_FlagUnlink(&node);
        OSTCBCur->OSTCBStat = OS_STAT_RDY;                 /* Yes, make task ready-to-run              */
    35c4:	e0 91 3c 04 	lds	r30, 0x043C
    35c8:	f0 91 3d 04 	lds	r31, 0x043D
    35cc:	15 86       	std	Z+13, r1	; 0x0d
        OS_EXIT_CRITICAL();
    35ce:	0f 91       	pop	r16
    35d0:	0f bf       	out	0x3f, r16	; 63
    35d2:	0f 91       	pop	r16
        flags_cur           = (OS_FLAGS)0;
        *err                = OS_TIMEOUT;                  /* Indicate that we timed-out waiting       */
    35d4:	8a e0       	ldi	r24, 0x0A	; 10
    35d6:	f8 01       	movw	r30, r16
    35d8:	80 83       	st	Z, r24
    35da:	41 ce       	rjmp	.-894    	; 0x325e <OSFlagPend+0x3c>
    } else {
        if (consume == TRUE) {                             /* See if we need to consume the flags      */
    35dc:	2b 85       	ldd	r18, Y+11	; 0x0b
    35de:	21 30       	cpi	r18, 0x01	; 1
    35e0:	d9 f4       	brne	.+54     	; 0x3618 <OSFlagPend+0x3f6>
            switch (wait_type) {
    35e2:	81 e0       	ldi	r24, 0x01	; 1
    35e4:	8d 15       	cp	r24, r13
    35e6:	50 f4       	brcc	.+20     	; 0x35fc <OSFlagPend+0x3da>
    35e8:	a3 e0       	ldi	r26, 0x03	; 3
    35ea:	ad 15       	cp	r26, r13
    35ec:	80 f0       	brcs	.+32     	; 0x360e <OSFlagPend+0x3ec>
                case OS_FLAG_WAIT_SET_ALL:
                case OS_FLAG_WAIT_SET_ANY:                 /* Clear ONLY the flags we got              */
                     pgrp->OSFlagFlags &= ~OSTCBCur->OSTCBFlagsRdy;
    35ee:	92 85       	ldd	r25, Z+10	; 0x0a
    35f0:	90 95       	com	r25
    35f2:	f7 01       	movw	r30, r14
    35f4:	83 81       	ldd	r24, Z+3	; 0x03
    35f6:	89 23       	and	r24, r25
    35f8:	83 83       	std	Z+3, r24	; 0x03
    35fa:	0e c0       	rjmp	.+28     	; 0x3618 <OSFlagPend+0x3f6>
                     break;

#if OS_FLAG_WAIT_CLR_EN > 0
                case OS_FLAG_WAIT_CLR_ALL:
                case OS_FLAG_WAIT_CLR_ANY:                 /* Set   ONLY the flags we got              */
                     pgrp->OSFlagFlags |= OSTCBCur->OSTCBFlagsRdy;
    35fc:	d7 01       	movw	r26, r14
    35fe:	13 96       	adiw	r26, 0x03	; 3
    3600:	8c 91       	ld	r24, X
    3602:	13 97       	sbiw	r26, 0x03	; 3
    3604:	92 85       	ldd	r25, Z+10	; 0x0a
    3606:	89 2b       	or	r24, r25
    3608:	13 96       	adiw	r26, 0x03	; 3
    360a:	8c 93       	st	X, r24
    360c:	05 c0       	rjmp	.+10     	; 0x3618 <OSFlagPend+0x3f6>
                     break;
#endif
                default:
                     OS_EXIT_CRITICAL();
    360e:	0f 91       	pop	r16
    3610:	0f bf       	out	0x3f, r16	; 63
    3612:	0f 91       	pop	r16
                     *err = OS_FLAG_ERR_WAIT_TYPE;
    3614:	87 e9       	ldi	r24, 0x97	; 151
    3616:	df cf       	rjmp	.-66     	; 0x35d6 <OSFlagPend+0x3b4>
                     return ((OS_FLAGS)0);
            }
        }
        flags_cur = pgrp->OSFlagFlags;
    3618:	d7 01       	movw	r26, r14
    361a:	13 96       	adiw	r26, 0x03	; 3
    361c:	8c 91       	ld	r24, X
        OS_EXIT_CRITICAL();
    361e:	0f 91       	pop	r16
    3620:	0f bf       	out	0x3f, r16	; 63
    3622:	0f 91       	pop	r16
        *err      = OS_NO_ERR;                             /* Event(s) must have occurred              */
    3624:	f8 01       	movw	r30, r16
    3626:	10 82       	st	Z, r1
    }
    return (flags_cur);
}
    3628:	2b 96       	adiw	r28, 0x0b	; 11
    362a:	0f b6       	in	r0, 0x3f	; 63
    362c:	f8 94       	cli
    362e:	de bf       	out	0x3e, r29	; 62
    3630:	0f be       	out	0x3f, r0	; 63
    3632:	cd bf       	out	0x3d, r28	; 61
    3634:	cf 91       	pop	r28
    3636:	df 91       	pop	r29
    3638:	1f 91       	pop	r17
    363a:	0f 91       	pop	r16
    363c:	ff 90       	pop	r15
    363e:	ef 90       	pop	r14
    3640:	df 90       	pop	r13
    3642:	08 95       	ret

00003644 <OSTimeTick>:
    OS_TCB    *ptcb;
    BOOLEAN    step;


#if OS_TIME_TICK_HOOK_EN > 0
    OSTimeTickHook();                                      /* Call user definable hook                     */
    3644:	0e 94 f0 03 	call	0x7e0	; 0x7e0 <OSTimeTickHook>
#if OS_TIME_GET_SET_EN > 0   
    OS_ENTER_CRITICAL();                                   /* Update the 32-bit tick counter               */
    OSTime++;
    OS_EXIT_CRITICAL();
#endif
    if (OSRunning == TRUE) {    
    3648:	80 91 f1 03 	lds	r24, 0x03F1
    364c:	81 30       	cpi	r24, 0x01	; 1
    364e:	09 f0       	breq	.+2      	; 0x3652 <OSTimeTick+0xe>
    3650:	42 c0       	rjmp	.+132    	; 0x36d6 <OSTimeTick+0x92>
        }
#else
        step = TRUE;
#endif
        if (step == TRUE) {
            ptcb = OSTCBList;                              /* Point at first TCB in TCB list               */
    3652:	a0 91 0c 04 	lds	r26, 0x040C
    3656:	b0 91 0d 04 	lds	r27, 0x040D
    365a:	20 91 35 04 	lds	r18, 0x0435
                    if (--ptcb->OSTCBDly == 0) {           /* Decrement nbr of ticks to end of delay       */
                        if ((ptcb->OSTCBStat & OS_STAT_SUSPEND) == OS_STAT_RDY) { /* Is task suspended?    */
                            OSRdyGrp               |= ptcb->OSTCBBitY; /* No,  Make task R-to-R (timed out)*/
                            OSRdyTbl[ptcb->OSTCBY] |= ptcb->OSTCBBitX;
                        } else {                           /* Yes, Leave 1 tick to prevent loosing the ... */
                            ptcb->OSTCBDly = 1;            /* ... task when the suspension is removed.     */
    365e:	41 e0       	ldi	r20, 0x01	; 1
    3660:	50 e0       	ldi	r21, 0x00	; 0
    3662:	32 c0       	rjmp	.+100    	; 0x36c8 <OSTimeTick+0x84>
        step = TRUE;
#endif
        if (step == TRUE) {
            ptcb = OSTCBList;                              /* Point at first TCB in TCB list               */
            while (ptcb->OSTCBPrio != OS_IDLE_PRIO) {      /* Go through all TCBs in TCB list              */
                OS_ENTER_CRITICAL();
    3664:	0f 93       	push	r16
    3666:	0f b7       	in	r16, 0x3f	; 63
    3668:	0f 93       	push	r16
    366a:	f8 94       	cli
                if (ptcb->OSTCBDly != 0) {                 /* Delayed or waiting for event with TO         */
    366c:	1b 96       	adiw	r26, 0x0b	; 11
    366e:	8d 91       	ld	r24, X+
    3670:	9c 91       	ld	r25, X
    3672:	1c 97       	sbiw	r26, 0x0c	; 12
    3674:	00 97       	sbiw	r24, 0x00	; 0
    3676:	09 f1       	breq	.+66     	; 0x36ba <OSTimeTick+0x76>
                    if (--ptcb->OSTCBDly == 0) {           /* Decrement nbr of ticks to end of delay       */
    3678:	01 97       	sbiw	r24, 0x01	; 1
    367a:	1c 96       	adiw	r26, 0x0c	; 12
    367c:	9c 93       	st	X, r25
    367e:	8e 93       	st	-X, r24
    3680:	1b 97       	sbiw	r26, 0x0b	; 11
    3682:	89 2b       	or	r24, r25
    3684:	d1 f4       	brne	.+52     	; 0x36ba <OSTimeTick+0x76>
                        if ((ptcb->OSTCBStat & OS_STAT_SUSPEND) == OS_STAT_RDY) { /* Is task suspended?    */
    3686:	1d 96       	adiw	r26, 0x0d	; 13
    3688:	8c 91       	ld	r24, X
    368a:	1d 97       	sbiw	r26, 0x0d	; 13
    368c:	83 fd       	sbrc	r24, 3
    368e:	11 c0       	rjmp	.+34     	; 0x36b2 <OSTimeTick+0x6e>
                            OSRdyGrp               |= ptcb->OSTCBBitY; /* No,  Make task R-to-R (timed out)*/
    3690:	52 96       	adiw	r26, 0x12	; 18
    3692:	8c 91       	ld	r24, X
    3694:	52 97       	sbiw	r26, 0x12	; 18
    3696:	28 2b       	or	r18, r24
                            OSRdyTbl[ptcb->OSTCBY] |= ptcb->OSTCBBitX;
    3698:	50 96       	adiw	r26, 0x10	; 16
    369a:	ec 91       	ld	r30, X
    369c:	50 97       	sbiw	r26, 0x10	; 16
    369e:	f0 e0       	ldi	r31, 0x00	; 0
    36a0:	ea 5c       	subi	r30, 0xCA	; 202
    36a2:	fb 4f       	sbci	r31, 0xFB	; 251
    36a4:	80 81       	ld	r24, Z
    36a6:	51 96       	adiw	r26, 0x11	; 17
    36a8:	9c 91       	ld	r25, X
    36aa:	51 97       	sbiw	r26, 0x11	; 17
    36ac:	89 2b       	or	r24, r25
    36ae:	80 83       	st	Z, r24
    36b0:	04 c0       	rjmp	.+8      	; 0x36ba <OSTimeTick+0x76>
                        } else {                           /* Yes, Leave 1 tick to prevent loosing the ... */
                            ptcb->OSTCBDly = 1;            /* ... task when the suspension is removed.     */
    36b2:	1c 96       	adiw	r26, 0x0c	; 12
    36b4:	5c 93       	st	X, r21
    36b6:	4e 93       	st	-X, r20
    36b8:	1b 97       	sbiw	r26, 0x0b	; 11
                        }
                    }
                }
                ptcb = ptcb->OSTCBNext;                    /* Point at next TCB in TCB list                */
    36ba:	12 96       	adiw	r26, 0x02	; 2
    36bc:	0d 90       	ld	r0, X+
    36be:	bc 91       	ld	r27, X
    36c0:	a0 2d       	mov	r26, r0
                OS_EXIT_CRITICAL();
    36c2:	0f 91       	pop	r16
    36c4:	0f bf       	out	0x3f, r16	; 63
    36c6:	0f 91       	pop	r16
#else
        step = TRUE;
#endif
        if (step == TRUE) {
            ptcb = OSTCBList;                              /* Point at first TCB in TCB list               */
            while (ptcb->OSTCBPrio != OS_IDLE_PRIO) {      /* Go through all TCBs in TCB list              */
    36c8:	1e 96       	adiw	r26, 0x0e	; 14
    36ca:	8c 91       	ld	r24, X
    36cc:	1e 97       	sbiw	r26, 0x0e	; 14
    36ce:	8f 30       	cpi	r24, 0x0F	; 15
    36d0:	49 f6       	brne	.-110    	; 0x3664 <OSTimeTick+0x20>
    36d2:	20 93 35 04 	sts	0x0435, r18
    36d6:	08 95       	ret

000036d8 <OSStart>:
{
    INT8U y;
    INT8U x;


    if (OSRunning == FALSE) {
    36d8:	80 91 f1 03 	lds	r24, 0x03F1
    36dc:	88 23       	and	r24, r24
    36de:	41 f5       	brne	.+80     	; 0x3730 <OSStart+0x58>
        y             = OSUnMapTbl[OSRdyGrp];        /* Find highest priority's task priority number   */
    36e0:	e0 91 35 04 	lds	r30, 0x0435
    36e4:	f0 e0       	ldi	r31, 0x00	; 0
    36e6:	e6 58       	subi	r30, 0x86	; 134
    36e8:	ff 4f       	sbci	r31, 0xFF	; 255
    36ea:	a0 81       	ld	r26, Z
        x             = OSUnMapTbl[OSRdyTbl[y]];
        OSPrioHighRdy = (INT8U)((y << 3) + x);
    36ec:	ea 2f       	mov	r30, r26
    36ee:	f0 e0       	ldi	r31, 0x00	; 0
    36f0:	ea 5c       	subi	r30, 0xCA	; 202
    36f2:	fb 4f       	sbci	r31, 0xFB	; 251
    36f4:	e0 81       	ld	r30, Z
    36f6:	f0 e0       	ldi	r31, 0x00	; 0
    36f8:	e6 58       	subi	r30, 0x86	; 134
    36fa:	ff 4f       	sbci	r31, 0xFF	; 255
    36fc:	aa 0f       	add	r26, r26
    36fe:	aa 0f       	add	r26, r26
    3700:	aa 0f       	add	r26, r26
    3702:	80 81       	ld	r24, Z
    3704:	a8 0f       	add	r26, r24
    3706:	a0 93 f6 03 	sts	0x03F6, r26
        OSPrioCur     = OSPrioHighRdy;
    370a:	a0 93 0b 04 	sts	0x040B, r26
        OSTCBHighRdy  = OSTCBPrioTbl[OSPrioHighRdy]; /* Point to highest priority task ready to run    */
    370e:	b0 e0       	ldi	r27, 0x00	; 0
    3710:	aa 0f       	add	r26, r26
    3712:	bb 1f       	adc	r27, r27
    3714:	ae 5f       	subi	r26, 0xFE	; 254
    3716:	b9 4f       	sbci	r27, 0xF9	; 249
    3718:	8d 91       	ld	r24, X+
    371a:	9c 91       	ld	r25, X
    371c:	90 93 32 04 	sts	0x0432, r25
    3720:	80 93 31 04 	sts	0x0431, r24
        OSTCBCur      = OSTCBHighRdy;
    3724:	90 93 3d 04 	sts	0x043D, r25
    3728:	80 93 3c 04 	sts	0x043C, r24
        OSStartHighRdy();                            /* Execute target specific code to start task     */
    372c:	0e 94 10 03 	call	0x620	; 0x620 <OSStartHighRdy>
    3730:	08 95       	ret

00003732 <OSIntExit>:
#if OS_CRITICAL_METHOD == 3                                /* Allocate storage for CPU status register */
    OS_CPU_SR  cpu_sr;
#endif
    
    
    if (OSRunning == TRUE) {
    3732:	80 91 f1 03 	lds	r24, 0x03F1
    3736:	81 30       	cpi	r24, 0x01	; 1
    3738:	09 f0       	breq	.+2      	; 0x373c <OSIntExit+0xa>
    373a:	54 c0       	rjmp	.+168    	; 0x37e4 <OSIntExit+0xb2>
        OS_ENTER_CRITICAL();
    373c:	0f 93       	push	r16
    373e:	0f b7       	in	r16, 0x3f	; 63
    3740:	0f 93       	push	r16
    3742:	f8 94       	cli
        if (OSIntNesting > 0) {                            /* Prevent OSIntNesting from wrapping       */
    3744:	80 91 3b 04 	lds	r24, 0x043B
    3748:	88 23       	and	r24, r24
    374a:	19 f0       	breq	.+6      	; 0x3752 <OSIntExit+0x20>
            OSIntNesting--;
    374c:	81 50       	subi	r24, 0x01	; 1
    374e:	80 93 3b 04 	sts	0x043B, r24
        }
        if (OSIntNesting == 0) {                           /* Reschedule only if all ISRs complete ... */
    3752:	80 91 3b 04 	lds	r24, 0x043B
    3756:	88 23       	and	r24, r24
    3758:	09 f0       	breq	.+2      	; 0x375c <OSIntExit+0x2a>
    375a:	41 c0       	rjmp	.+130    	; 0x37de <OSIntExit+0xac>
            if (OSLockNesting == 0) {                      /* ... and not locked.                      */
    375c:	80 91 f0 03 	lds	r24, 0x03F0
    3760:	88 23       	and	r24, r24
    3762:	e9 f5       	brne	.+122    	; 0x37de <OSIntExit+0xac>
                OSIntExitY    = OSUnMapTbl[OSRdyGrp];          
    3764:	e0 91 35 04 	lds	r30, 0x0435
    3768:	f0 e0       	ldi	r31, 0x00	; 0
    376a:	e6 58       	subi	r30, 0x86	; 134
    376c:	ff 4f       	sbci	r31, 0xFF	; 255
    376e:	80 81       	ld	r24, Z
    3770:	80 93 3a 04 	sts	0x043A, r24
                OSPrioHighRdy = (INT8U)((OSIntExitY << 3) + OSUnMapTbl[OSRdyTbl[OSIntExitY]]);
    3774:	e8 2f       	mov	r30, r24
    3776:	f0 e0       	ldi	r31, 0x00	; 0
    3778:	ea 5c       	subi	r30, 0xCA	; 202
    377a:	fb 4f       	sbci	r31, 0xFB	; 251
    377c:	e0 81       	ld	r30, Z
    377e:	f0 e0       	ldi	r31, 0x00	; 0
    3780:	e6 58       	subi	r30, 0x86	; 134
    3782:	ff 4f       	sbci	r31, 0xFF	; 255
    3784:	98 2f       	mov	r25, r24
    3786:	99 0f       	add	r25, r25
    3788:	99 0f       	add	r25, r25
    378a:	99 0f       	add	r25, r25
    378c:	80 81       	ld	r24, Z
    378e:	98 0f       	add	r25, r24
    3790:	90 93 f6 03 	sts	0x03F6, r25
                if (OSPrioHighRdy != OSPrioCur) {          /* No Ctx Sw if current task is highest rdy */
    3794:	80 91 0b 04 	lds	r24, 0x040B
    3798:	98 17       	cp	r25, r24
    379a:	09 f1       	breq	.+66     	; 0x37de <OSIntExit+0xac>
                    OSTCBHighRdy  = OSTCBPrioTbl[OSPrioHighRdy];
    379c:	e9 2f       	mov	r30, r25
    379e:	f0 e0       	ldi	r31, 0x00	; 0
    37a0:	ee 0f       	add	r30, r30
    37a2:	ff 1f       	adc	r31, r31
    37a4:	ee 5f       	subi	r30, 0xFE	; 254
    37a6:	f9 4f       	sbci	r31, 0xF9	; 249
    37a8:	80 81       	ld	r24, Z
    37aa:	91 81       	ldd	r25, Z+1	; 0x01
    37ac:	90 93 32 04 	sts	0x0432, r25
    37b0:	80 93 31 04 	sts	0x0431, r24
#if OS_TASK_PROFILE_EN > 0
                    OSTCBHighRdy->OSTCBCtxSwCtr++;         /* Inc. # of context switches to this task  */
#endif
                    OSCtxSwCtr++;                          /* Keep track of the number of ctx switches */
    37b4:	80 91 0e 04 	lds	r24, 0x040E
    37b8:	90 91 0f 04 	lds	r25, 0x040F
    37bc:	a0 91 10 04 	lds	r26, 0x0410
    37c0:	b0 91 11 04 	lds	r27, 0x0411
    37c4:	01 96       	adiw	r24, 0x01	; 1
    37c6:	a1 1d       	adc	r26, r1
    37c8:	b1 1d       	adc	r27, r1
    37ca:	80 93 0e 04 	sts	0x040E, r24
    37ce:	90 93 0f 04 	sts	0x040F, r25
    37d2:	a0 93 10 04 	sts	0x0410, r26
    37d6:	b0 93 11 04 	sts	0x0411, r27
                    OSIntCtxSw();                          /* Perform interrupt level ctx switch       */
    37da:	0e 94 9d 03 	call	0x73a	; 0x73a <OSIntCtxSw>
                }
            }
        }
        OS_EXIT_CRITICAL();
    37de:	0f 91       	pop	r16
    37e0:	0f bf       	out	0x3f, r16	; 63
    37e2:	0f 91       	pop	r16
    37e4:	08 95       	ret

000037e6 <OSInit>:
* Returns    : none
*********************************************************************************************************
*/

void  OSInit (void)
{
    37e6:	cf 93       	push	r28
    37e8:	df 93       	push	r29
#if OS_VERSION >= 204
    OSInitHookBegin();                                           /* Call port specific initialization code   */
    37ea:	0e 94 e8 03 	call	0x7d0	; 0x7d0 <OSInitHookBegin>
{
#if OS_TIME_GET_SET_EN > 0   
    OSTime        = 0L;                                          /* Clear the 32-bit system clock            */
#endif

    OSIntNesting  = 0;                                           /* Clear the interrupt nesting counter      */
    37ee:	10 92 3b 04 	sts	0x043B, r1
    OSLockNesting = 0;                                           /* Clear the scheduling lock counter        */
    37f2:	10 92 f0 03 	sts	0x03F0, r1

    OSTaskCtr     = 0;                                           /* Clear the number of tasks                */
    37f6:	10 92 14 04 	sts	0x0414, r1

    OSRunning     = FALSE;                                       /* Indicate that multitasking not started   */
    37fa:	10 92 f1 03 	sts	0x03F1, r1
    
    OSCtxSwCtr    = 0;                                           /* Clear the context switch counter         */
    37fe:	10 92 0e 04 	sts	0x040E, r1
    3802:	10 92 0f 04 	sts	0x040F, r1
    3806:	10 92 10 04 	sts	0x0410, r1
    380a:	10 92 11 04 	sts	0x0411, r1
    OSIdleCtr     = 0L;                                          /* Clear the 32-bit idle counter            */
    380e:	10 92 f2 03 	sts	0x03F2, r1
    3812:	10 92 f3 03 	sts	0x03F3, r1
    3816:	10 92 f4 03 	sts	0x03F4, r1
    381a:	10 92 f5 03 	sts	0x03F5, r1
{
    INT16U   i;
    INT8U   *prdytbl;


    OSRdyGrp      = 0x00;                                        /* Clear the ready list                     */
    381e:	10 92 35 04 	sts	0x0435, r1
    prdytbl       = &OSRdyTbl[0];
    for (i = 0; i < OS_RDY_TBL_SIZE; i++) {
        *prdytbl++ = 0x00;
    3822:	10 92 36 04 	sts	0x0436, r1
    3826:	10 92 37 04 	sts	0x0437, r1
    }

    OSPrioCur     = 0;
    382a:	10 92 0b 04 	sts	0x040B, r1
    OSPrioHighRdy = 0;
    382e:	10 92 f6 03 	sts	0x03F6, r1

    OSTCBHighRdy  = (OS_TCB *)0;                                 
    3832:	10 92 32 04 	sts	0x0432, r1
    3836:	10 92 31 04 	sts	0x0431, r1
    OSTCBCur      = (OS_TCB *)0;
    383a:	10 92 3d 04 	sts	0x043D, r1
    383e:	10 92 3c 04 	sts	0x043C, r1
{
    INT8U    i;
    OS_TCB  *ptcb1;
    OS_TCB  *ptcb2;

    (void)memset(&OSTCBTbl[0],     0, sizeof(OSTCBTbl));         /* Clear all the TCBs                  */
    3842:	a2 e4       	ldi	r26, 0x42	; 66
    3844:	b5 e0       	ldi	r27, 0x05	; 5
    3846:	8e eb       	ldi	r24, 0xBE	; 190
    3848:	ed 01       	movw	r28, r26
    384a:	19 92       	st	Y+, r1
    384c:	8a 95       	dec	r24
    384e:	e9 f7       	brne	.-6      	; 0x384a <OSInit+0x64>
    (void)memset(&OSTCBPrioTbl[0], 0, sizeof(OSTCBPrioTbl));     /* Clear the priority table            */
    3850:	80 e2       	ldi	r24, 0x20	; 32
    3852:	e2 e0       	ldi	r30, 0x02	; 2
    3854:	f6 e0       	ldi	r31, 0x06	; 6
    3856:	ef 01       	movw	r28, r30
    3858:	19 92       	st	Y+, r1
    385a:	8a 95       	dec	r24
    385c:	e9 f7       	brne	.-6      	; 0x3858 <OSInit+0x72>
    385e:	53 96       	adiw	r26, 0x13	; 19
    ptcb1 = &OSTCBTbl[0];
    ptcb2 = &OSTCBTbl[1];

    for (i = 0; i < (OS_MAX_TASKS + OS_N_SYS_TASKS - 1); i++) {  /* Init. list of free TCBs             */
        ptcb1->OSTCBNext = ptcb2;
    3860:	fd 01       	movw	r30, r26
    3862:	71 97       	sbiw	r30, 0x11	; 17
    3864:	b1 83       	std	Z+1, r27	; 0x01
    3866:	a0 83       	st	Z, r26
#if OS_TASK_NAME_SIZE > 0
        (void)strcpy(ptcb1->OSTCBTaskName, "?");                 /* Unknown name                        */
#endif
        ptcb1++;
        ptcb2++;
    3868:	53 96       	adiw	r26, 0x13	; 19
    (void)memset(&OSTCBTbl[0],     0, sizeof(OSTCBTbl));         /* Clear all the TCBs                  */
    (void)memset(&OSTCBPrioTbl[0], 0, sizeof(OSTCBPrioTbl));     /* Clear the priority table            */
    ptcb1 = &OSTCBTbl[0];
    ptcb2 = &OSTCBTbl[1];

    for (i = 0; i < (OS_MAX_TASKS + OS_N_SYS_TASKS - 1); i++) {  /* Init. list of free TCBs             */
    386a:	e6 e0       	ldi	r30, 0x06	; 6
    386c:	a0 30       	cpi	r26, 0x00	; 0
    386e:	be 07       	cpc	r27, r30
    3870:	b9 f7       	brne	.-18     	; 0x3860 <OSInit+0x7a>
        (void)strcpy(ptcb1->OSTCBTaskName, "?");                 /* Unknown name                        */
#endif
        ptcb1++;
        ptcb2++;
    }
    ptcb1->OSTCBNext = (OS_TCB *)0;                              /* Last OS_TCB                         */
    3872:	10 92 f0 05 	sts	0x05F0, r1
    3876:	10 92 ef 05 	sts	0x05EF, r1
#if OS_TASK_NAME_SIZE > 0
    (void)strcpy(ptcb1->OSTCBTaskName, "?");
#endif
    OSTCBList     = (OS_TCB *)0;                                 /* TCB lists initializations           */
    387a:	10 92 0d 04 	sts	0x040D, r1
    387e:	10 92 0c 04 	sts	0x040C, r1
    OSTCBFreeList = &OSTCBTbl[0];
    3882:	82 e4       	ldi	r24, 0x42	; 66
    3884:	95 e0       	ldi	r25, 0x05	; 5
    3886:	90 93 13 04 	sts	0x0413, r25
    388a:	80 93 12 04 	sts	0x0412, r24
    INT16U     i;
    OS_EVENT  *pevent1;
    OS_EVENT  *pevent2;


    (void)memset(&OSEventTbl[0], 0, sizeof(OSEventTbl));         /* Clear the event table                    */
    388e:	e2 ea       	ldi	r30, 0xA2	; 162
    3890:	f4 e0       	ldi	r31, 0x04	; 4
    3892:	80 ea       	ldi	r24, 0xA0	; 160
    3894:	df 01       	movw	r26, r30
    3896:	1d 92       	st	X+, r1
    3898:	8a 95       	dec	r24
    389a:	e9 f7       	brne	.-6      	; 0x3896 <OSInit+0xb0>
    389c:	cf 01       	movw	r24, r30
    389e:	08 96       	adiw	r24, 0x08	; 8
    pevent1 = &OSEventTbl[0];
    pevent2 = &OSEventTbl[1];
    for (i = 0; i < (OS_MAX_EVENTS - 1); i++) {                  /* Init. list of free EVENT control blocks  */
        pevent1->OSEventType = OS_EVENT_TYPE_UNUSED;
    38a0:	10 82       	st	Z, r1
        pevent1->OSEventPtr  = pevent2;
    38a2:	95 83       	std	Z+5, r25	; 0x05
    38a4:	84 83       	std	Z+4, r24	; 0x04
    38a6:	fc 01       	movw	r30, r24


    (void)memset(&OSEventTbl[0], 0, sizeof(OSEventTbl));         /* Clear the event table                    */
    pevent1 = &OSEventTbl[0];
    pevent2 = &OSEventTbl[1];
    for (i = 0; i < (OS_MAX_EVENTS - 1); i++) {                  /* Init. list of free EVENT control blocks  */
    38a8:	b5 e0       	ldi	r27, 0x05	; 5
    38aa:	8a 33       	cpi	r24, 0x3A	; 58
    38ac:	9b 07       	cpc	r25, r27
    38ae:	b1 f7       	brne	.-20     	; 0x389c <OSInit+0xb6>
        (void)strcpy(pevent1->OSEventName, "?");                 /* Unknown name                             */
#endif
        pevent1++;
        pevent2++;
    }
    pevent1->OSEventType         = OS_EVENT_TYPE_UNUSED;
    38b0:	10 82       	st	Z, r1
    pevent1->OSEventPtr          = (OS_EVENT *)0;
    38b2:	15 82       	std	Z+5, r1	; 0x05
    38b4:	14 82       	std	Z+4, r1	; 0x04
#if OS_EVENT_NAME_SIZE > 0
    (void)strcpy(pevent1->OSEventName, "?");
#endif
    OSEventFreeList              = &OSEventTbl[0];
    38b6:	82 ea       	ldi	r24, 0xA2	; 162
    38b8:	94 e0       	ldi	r25, 0x04	; 4
    38ba:	90 93 39 04 	sts	0x0439, r25
    38be:	80 93 38 04 	sts	0x0438, r24
    OS_InitTCBList();                                            /* Initialize the free list of OS_TCBs      */

    OS_InitEventList();                                          /* Initialize the free list of OS_EVENTs    */

#if (OS_VERSION >= 251) && (OS_FLAG_EN > 0) && (OS_MAX_FLAGS > 0)
    OS_FlagInit();                                               /* Initialize the event flag structures     */
    38c2:	0e 94 46 11 	call	0x228c	; 0x228c <OS_FlagInit>
#if (OS_MEM_EN > 0) && (OS_MAX_MEM_PART > 0)
    OS_MemInit();                                                /* Initialize the memory manager            */
#endif

#if (OS_Q_EN > 0) && (OS_MAX_QS > 0)
    OS_QInit();                                                  /* Initialize the message queue structures  */
    38c6:	0e 94 30 11 	call	0x2260	; 0x2260 <OS_QInit>
                          (void *)0,                                 /* No TCB extension                     */
                          OS_TASK_OPT_STK_CHK | OS_TASK_OPT_STK_CLR);/* Enable stack checking + clear stack  */
    #endif
#else
    #if OS_STK_GROWTH == 1
    (void)OSTaskCreate(OS_TaskIdle,
    38ca:	81 ed       	ldi	r24, 0xD1	; 209
    38cc:	91 e1       	ldi	r25, 0x11	; 17
    38ce:	60 e0       	ldi	r22, 0x00	; 0
    38d0:	70 e0       	ldi	r23, 0x00	; 0
    38d2:	41 ea       	ldi	r20, 0xA1	; 161
    38d4:	54 e0       	ldi	r21, 0x04	; 4
    38d6:	2f e0       	ldi	r18, 0x0F	; 15
    38d8:	0e 94 b0 12 	call	0x2560	; 0x2560 <OSTaskCreate>
#if OS_TASK_STAT_EN > 0
    OS_InitTaskStat();                                           /* Create the Statistic Task                */
#endif

#if OS_VERSION >= 204
    OSInitHookEnd();                                             /* Call port specific init. code            */
    38dc:	0e 94 e9 03 	call	0x7d2	; 0x7d2 <OSInitHookEnd>
#endif
}
    38e0:	df 91       	pop	r29
    38e2:	cf 91       	pop	r28
    38e4:	08 95       	ret

000038e6 <vfprintf>:
    38e6:	a1 e1       	ldi	r26, 0x11	; 17
    38e8:	b0 e0       	ldi	r27, 0x00	; 0
    38ea:	e9 e7       	ldi	r30, 0x79	; 121
    38ec:	fc e1       	ldi	r31, 0x1C	; 28
    38ee:	0c 94 1d 28 	jmp	0x503a	; 0x503a <__prologue_saves__>
    38f2:	3c 01       	movw	r6, r24
    38f4:	7f 87       	std	Y+15, r23	; 0x0f
    38f6:	6e 87       	std	Y+14, r22	; 0x0e
    38f8:	6a 01       	movw	r12, r20
    38fa:	fc 01       	movw	r30, r24
    38fc:	17 82       	std	Z+7, r1	; 0x07
    38fe:	16 82       	std	Z+6, r1	; 0x06
    3900:	83 81       	ldd	r24, Z+3	; 0x03
    3902:	81 fd       	sbrc	r24, 1
    3904:	03 c0       	rjmp	.+6      	; 0x390c <vfprintf+0x26>
    3906:	6f ef       	ldi	r22, 0xFF	; 255
    3908:	7f ef       	ldi	r23, 0xFF	; 255
    390a:	71 c3       	rjmp	.+1762   	; 0x3fee <vfprintf+0x708>
    390c:	9e 01       	movw	r18, r28
    390e:	2f 5f       	subi	r18, 0xFF	; 255
    3910:	3f 4f       	sbci	r19, 0xFF	; 255
    3912:	39 8b       	std	Y+17, r19	; 0x11
    3914:	28 8b       	std	Y+16, r18	; 0x10
    3916:	f3 01       	movw	r30, r6
    3918:	23 81       	ldd	r18, Z+3	; 0x03
    391a:	ee 85       	ldd	r30, Y+14	; 0x0e
    391c:	ff 85       	ldd	r31, Y+15	; 0x0f
    391e:	23 fd       	sbrc	r18, 3
    3920:	85 91       	lpm	r24, Z+
    3922:	23 ff       	sbrs	r18, 3
    3924:	81 91       	ld	r24, Z+
    3926:	ff 87       	std	Y+15, r31	; 0x0f
    3928:	ee 87       	std	Y+14, r30	; 0x0e
    392a:	88 23       	and	r24, r24
    392c:	09 f4       	brne	.+2      	; 0x3930 <vfprintf+0x4a>
    392e:	5c c3       	rjmp	.+1720   	; 0x3fe8 <vfprintf+0x702>
    3930:	85 32       	cpi	r24, 0x25	; 37
    3932:	51 f4       	brne	.+20     	; 0x3948 <vfprintf+0x62>
    3934:	ee 85       	ldd	r30, Y+14	; 0x0e
    3936:	ff 85       	ldd	r31, Y+15	; 0x0f
    3938:	23 fd       	sbrc	r18, 3
    393a:	85 91       	lpm	r24, Z+
    393c:	23 ff       	sbrs	r18, 3
    393e:	81 91       	ld	r24, Z+
    3940:	ff 87       	std	Y+15, r31	; 0x0f
    3942:	ee 87       	std	Y+14, r30	; 0x0e
    3944:	85 32       	cpi	r24, 0x25	; 37
    3946:	29 f4       	brne	.+10     	; 0x3952 <vfprintf+0x6c>
    3948:	90 e0       	ldi	r25, 0x00	; 0
    394a:	b3 01       	movw	r22, r6
    394c:	0e 94 48 25 	call	0x4a90	; 0x4a90 <fputc>
    3950:	e2 cf       	rjmp	.-60     	; 0x3916 <vfprintf+0x30>
    3952:	98 2f       	mov	r25, r24
    3954:	10 e0       	ldi	r17, 0x00	; 0
    3956:	88 24       	eor	r8, r8
    3958:	99 24       	eor	r9, r9
    395a:	10 32       	cpi	r17, 0x20	; 32
    395c:	b0 f4       	brcc	.+44     	; 0x398a <vfprintf+0xa4>
    395e:	9b 32       	cpi	r25, 0x2B	; 43
    3960:	69 f0       	breq	.+26     	; 0x397c <vfprintf+0x96>
    3962:	9c 32       	cpi	r25, 0x2C	; 44
    3964:	28 f4       	brcc	.+10     	; 0x3970 <vfprintf+0x8a>
    3966:	90 32       	cpi	r25, 0x20	; 32
    3968:	51 f0       	breq	.+20     	; 0x397e <vfprintf+0x98>
    396a:	93 32       	cpi	r25, 0x23	; 35
    396c:	71 f4       	brne	.+28     	; 0x398a <vfprintf+0xa4>
    396e:	0b c0       	rjmp	.+22     	; 0x3986 <vfprintf+0xa0>
    3970:	9d 32       	cpi	r25, 0x2D	; 45
    3972:	39 f0       	breq	.+14     	; 0x3982 <vfprintf+0x9c>
    3974:	90 33       	cpi	r25, 0x30	; 48
    3976:	49 f4       	brne	.+18     	; 0x398a <vfprintf+0xa4>
    3978:	11 60       	ori	r17, 0x01	; 1
    397a:	28 c0       	rjmp	.+80     	; 0x39cc <vfprintf+0xe6>
    397c:	12 60       	ori	r17, 0x02	; 2
    397e:	14 60       	ori	r17, 0x04	; 4
    3980:	25 c0       	rjmp	.+74     	; 0x39cc <vfprintf+0xe6>
    3982:	18 60       	ori	r17, 0x08	; 8
    3984:	23 c0       	rjmp	.+70     	; 0x39cc <vfprintf+0xe6>
    3986:	10 61       	ori	r17, 0x10	; 16
    3988:	21 c0       	rjmp	.+66     	; 0x39cc <vfprintf+0xe6>
    398a:	17 fd       	sbrc	r17, 7
    398c:	2a c0       	rjmp	.+84     	; 0x39e2 <vfprintf+0xfc>
    398e:	89 2f       	mov	r24, r25
    3990:	80 53       	subi	r24, 0x30	; 48
    3992:	8a 30       	cpi	r24, 0x0A	; 10
    3994:	78 f4       	brcc	.+30     	; 0x39b4 <vfprintf+0xce>
    3996:	16 ff       	sbrs	r17, 6
    3998:	06 c0       	rjmp	.+12     	; 0x39a6 <vfprintf+0xc0>
    399a:	fa e0       	ldi	r31, 0x0A	; 10
    399c:	9f 9e       	mul	r9, r31
    399e:	90 2c       	mov	r9, r0
    39a0:	11 24       	eor	r1, r1
    39a2:	98 0e       	add	r9, r24
    39a4:	13 c0       	rjmp	.+38     	; 0x39cc <vfprintf+0xe6>
    39a6:	3a e0       	ldi	r19, 0x0A	; 10
    39a8:	83 9e       	mul	r8, r19
    39aa:	80 2c       	mov	r8, r0
    39ac:	11 24       	eor	r1, r1
    39ae:	88 0e       	add	r8, r24
    39b0:	10 62       	ori	r17, 0x20	; 32
    39b2:	0c c0       	rjmp	.+24     	; 0x39cc <vfprintf+0xe6>
    39b4:	9e 32       	cpi	r25, 0x2E	; 46
    39b6:	21 f4       	brne	.+8      	; 0x39c0 <vfprintf+0xda>
    39b8:	16 fd       	sbrc	r17, 6
    39ba:	16 c3       	rjmp	.+1580   	; 0x3fe8 <vfprintf+0x702>
    39bc:	10 64       	ori	r17, 0x40	; 64
    39be:	06 c0       	rjmp	.+12     	; 0x39cc <vfprintf+0xe6>
    39c0:	9c 36       	cpi	r25, 0x6C	; 108
    39c2:	11 f4       	brne	.+4      	; 0x39c8 <vfprintf+0xe2>
    39c4:	10 68       	ori	r17, 0x80	; 128
    39c6:	02 c0       	rjmp	.+4      	; 0x39cc <vfprintf+0xe6>
    39c8:	98 36       	cpi	r25, 0x68	; 104
    39ca:	59 f4       	brne	.+22     	; 0x39e2 <vfprintf+0xfc>
    39cc:	ee 85       	ldd	r30, Y+14	; 0x0e
    39ce:	ff 85       	ldd	r31, Y+15	; 0x0f
    39d0:	23 fd       	sbrc	r18, 3
    39d2:	95 91       	lpm	r25, Z+
    39d4:	23 ff       	sbrs	r18, 3
    39d6:	91 91       	ld	r25, Z+
    39d8:	ff 87       	std	Y+15, r31	; 0x0f
    39da:	ee 87       	std	Y+14, r30	; 0x0e
    39dc:	99 23       	and	r25, r25
    39de:	09 f0       	breq	.+2      	; 0x39e2 <vfprintf+0xfc>
    39e0:	bc cf       	rjmp	.-136    	; 0x395a <vfprintf+0x74>
    39e2:	89 2f       	mov	r24, r25
    39e4:	85 54       	subi	r24, 0x45	; 69
    39e6:	83 30       	cpi	r24, 0x03	; 3
    39e8:	20 f4       	brcc	.+8      	; 0x39f2 <vfprintf+0x10c>
    39ea:	81 2f       	mov	r24, r17
    39ec:	80 61       	ori	r24, 0x10	; 16
    39ee:	90 5e       	subi	r25, 0xE0	; 224
    39f0:	07 c0       	rjmp	.+14     	; 0x3a00 <vfprintf+0x11a>
    39f2:	89 2f       	mov	r24, r25
    39f4:	85 56       	subi	r24, 0x65	; 101
    39f6:	83 30       	cpi	r24, 0x03	; 3
    39f8:	08 f0       	brcs	.+2      	; 0x39fc <vfprintf+0x116>
    39fa:	a1 c1       	rjmp	.+834    	; 0x3d3e <vfprintf+0x458>
    39fc:	81 2f       	mov	r24, r17
    39fe:	8f 7e       	andi	r24, 0xEF	; 239
    3a00:	86 fd       	sbrc	r24, 6
    3a02:	02 c0       	rjmp	.+4      	; 0x3a08 <vfprintf+0x122>
    3a04:	76 e0       	ldi	r23, 0x06	; 6
    3a06:	97 2e       	mov	r9, r23
    3a08:	6f e3       	ldi	r22, 0x3F	; 63
    3a0a:	f6 2e       	mov	r15, r22
    3a0c:	f8 22       	and	r15, r24
    3a0e:	95 36       	cpi	r25, 0x65	; 101
    3a10:	19 f4       	brne	.+6      	; 0x3a18 <vfprintf+0x132>
    3a12:	f0 e4       	ldi	r31, 0x40	; 64
    3a14:	ff 2a       	or	r15, r31
    3a16:	07 c0       	rjmp	.+14     	; 0x3a26 <vfprintf+0x140>
    3a18:	96 36       	cpi	r25, 0x66	; 102
    3a1a:	19 f4       	brne	.+6      	; 0x3a22 <vfprintf+0x13c>
    3a1c:	20 e8       	ldi	r18, 0x80	; 128
    3a1e:	f2 2a       	or	r15, r18
    3a20:	02 c0       	rjmp	.+4      	; 0x3a26 <vfprintf+0x140>
    3a22:	91 10       	cpse	r9, r1
    3a24:	9a 94       	dec	r9
    3a26:	f7 fe       	sbrs	r15, 7
    3a28:	0b c0       	rjmp	.+22     	; 0x3a40 <vfprintf+0x15a>
    3a2a:	3b e3       	ldi	r19, 0x3B	; 59
    3a2c:	39 15       	cp	r19, r9
    3a2e:	20 f4       	brcc	.+8      	; 0x3a38 <vfprintf+0x152>
    3a30:	27 e0       	ldi	r18, 0x07	; 7
    3a32:	5c e3       	ldi	r21, 0x3C	; 60
    3a34:	b5 2e       	mov	r11, r21
    3a36:	0e c0       	rjmp	.+28     	; 0x3a54 <vfprintf+0x16e>
    3a38:	b9 2c       	mov	r11, r9
    3a3a:	b3 94       	inc	r11
    3a3c:	27 e0       	ldi	r18, 0x07	; 7
    3a3e:	0a c0       	rjmp	.+20     	; 0x3a54 <vfprintf+0x16e>
    3a40:	47 e0       	ldi	r20, 0x07	; 7
    3a42:	49 15       	cp	r20, r9
    3a44:	28 f4       	brcc	.+10     	; 0x3a50 <vfprintf+0x16a>
    3a46:	27 e0       	ldi	r18, 0x07	; 7
    3a48:	bb 24       	eor	r11, r11
    3a4a:	47 e0       	ldi	r20, 0x07	; 7
    3a4c:	94 2e       	mov	r9, r20
    3a4e:	02 c0       	rjmp	.+4      	; 0x3a54 <vfprintf+0x16e>
    3a50:	29 2d       	mov	r18, r9
    3a52:	bb 24       	eor	r11, r11
    3a54:	c6 01       	movw	r24, r12
    3a56:	04 96       	adiw	r24, 0x04	; 4
    3a58:	9d 87       	std	Y+13, r25	; 0x0d
    3a5a:	8c 87       	std	Y+12, r24	; 0x0c
    3a5c:	f6 01       	movw	r30, r12
    3a5e:	60 81       	ld	r22, Z
    3a60:	71 81       	ldd	r23, Z+1	; 0x01
    3a62:	82 81       	ldd	r24, Z+2	; 0x02
    3a64:	93 81       	ldd	r25, Z+3	; 0x03
    3a66:	ae 01       	movw	r20, r28
    3a68:	4f 5f       	subi	r20, 0xFF	; 255
    3a6a:	5f 4f       	sbci	r21, 0xFF	; 255
    3a6c:	0b 2d       	mov	r16, r11
    3a6e:	0e 94 0d 24 	call	0x481a	; 0x481a <__ftoa_engine>
    3a72:	6c 01       	movw	r12, r24
    3a74:	09 81       	ldd	r16, Y+1	; 0x01
    3a76:	20 2e       	mov	r2, r16
    3a78:	33 24       	eor	r3, r3
    3a7a:	00 ff       	sbrs	r16, 0
    3a7c:	04 c0       	rjmp	.+8      	; 0x3a86 <vfprintf+0x1a0>
    3a7e:	03 fd       	sbrc	r16, 3
    3a80:	02 c0       	rjmp	.+4      	; 0x3a86 <vfprintf+0x1a0>
    3a82:	1d e2       	ldi	r17, 0x2D	; 45
    3a84:	09 c0       	rjmp	.+18     	; 0x3a98 <vfprintf+0x1b2>
    3a86:	f1 fe       	sbrs	r15, 1
    3a88:	02 c0       	rjmp	.+4      	; 0x3a8e <vfprintf+0x1a8>
    3a8a:	1b e2       	ldi	r17, 0x2B	; 43
    3a8c:	05 c0       	rjmp	.+10     	; 0x3a98 <vfprintf+0x1b2>
    3a8e:	f2 fc       	sbrc	r15, 2
    3a90:	02 c0       	rjmp	.+4      	; 0x3a96 <vfprintf+0x1b0>
    3a92:	10 e0       	ldi	r17, 0x00	; 0
    3a94:	01 c0       	rjmp	.+2      	; 0x3a98 <vfprintf+0x1b2>
    3a96:	10 e2       	ldi	r17, 0x20	; 32
    3a98:	c1 01       	movw	r24, r2
    3a9a:	8c 70       	andi	r24, 0x0C	; 12
    3a9c:	90 70       	andi	r25, 0x00	; 0
    3a9e:	89 2b       	or	r24, r25
    3aa0:	b9 f1       	breq	.+110    	; 0x3b10 <vfprintf+0x22a>
    3aa2:	11 23       	and	r17, r17
    3aa4:	11 f4       	brne	.+4      	; 0x3aaa <vfprintf+0x1c4>
    3aa6:	83 e0       	ldi	r24, 0x03	; 3
    3aa8:	01 c0       	rjmp	.+2      	; 0x3aac <vfprintf+0x1c6>
    3aaa:	84 e0       	ldi	r24, 0x04	; 4
    3aac:	88 15       	cp	r24, r8
    3aae:	10 f0       	brcs	.+4      	; 0x3ab4 <vfprintf+0x1ce>
    3ab0:	88 24       	eor	r8, r8
    3ab2:	0a c0       	rjmp	.+20     	; 0x3ac8 <vfprintf+0x1e2>
    3ab4:	88 1a       	sub	r8, r24
    3ab6:	f3 fc       	sbrc	r15, 3
    3ab8:	07 c0       	rjmp	.+14     	; 0x3ac8 <vfprintf+0x1e2>
    3aba:	80 e2       	ldi	r24, 0x20	; 32
    3abc:	90 e0       	ldi	r25, 0x00	; 0
    3abe:	b3 01       	movw	r22, r6
    3ac0:	0e 94 48 25 	call	0x4a90	; 0x4a90 <fputc>
    3ac4:	8a 94       	dec	r8
    3ac6:	c9 f7       	brne	.-14     	; 0x3aba <vfprintf+0x1d4>
    3ac8:	11 23       	and	r17, r17
    3aca:	29 f0       	breq	.+10     	; 0x3ad6 <vfprintf+0x1f0>
    3acc:	81 2f       	mov	r24, r17
    3ace:	90 e0       	ldi	r25, 0x00	; 0
    3ad0:	b3 01       	movw	r22, r6
    3ad2:	0e 94 48 25 	call	0x4a90	; 0x4a90 <fputc>
    3ad6:	23 fe       	sbrs	r2, 3
    3ad8:	03 c0       	rjmp	.+6      	; 0x3ae0 <vfprintf+0x1fa>
    3ada:	04 e5       	ldi	r16, 0x54	; 84
    3adc:	10 e0       	ldi	r17, 0x00	; 0
    3ade:	0e c0       	rjmp	.+28     	; 0x3afc <vfprintf+0x216>
    3ae0:	08 e5       	ldi	r16, 0x58	; 88
    3ae2:	10 e0       	ldi	r17, 0x00	; 0
    3ae4:	0b c0       	rjmp	.+22     	; 0x3afc <vfprintf+0x216>
    3ae6:	e1 14       	cp	r14, r1
    3ae8:	f1 04       	cpc	r15, r1
    3aea:	09 f0       	breq	.+2      	; 0x3aee <vfprintf+0x208>
    3aec:	80 52       	subi	r24, 0x20	; 32
    3aee:	90 e0       	ldi	r25, 0x00	; 0
    3af0:	b3 01       	movw	r22, r6
    3af2:	0e 94 48 25 	call	0x4a90	; 0x4a90 <fputc>
    3af6:	0f 5f       	subi	r16, 0xFF	; 255
    3af8:	1f 4f       	sbci	r17, 0xFF	; 255
    3afa:	05 c0       	rjmp	.+10     	; 0x3b06 <vfprintf+0x220>
    3afc:	ef 2c       	mov	r14, r15
    3afe:	ff 24       	eor	r15, r15
    3b00:	f0 e1       	ldi	r31, 0x10	; 16
    3b02:	ef 22       	and	r14, r31
    3b04:	ff 24       	eor	r15, r15
    3b06:	f8 01       	movw	r30, r16
    3b08:	84 91       	lpm	r24, Z+
    3b0a:	88 23       	and	r24, r24
    3b0c:	61 f7       	brne	.-40     	; 0x3ae6 <vfprintf+0x200>
    3b0e:	14 c1       	rjmp	.+552    	; 0x3d38 <vfprintf+0x452>
    3b10:	f7 fe       	sbrs	r15, 7
    3b12:	12 c0       	rjmp	.+36     	; 0x3b38 <vfprintf+0x252>
    3b14:	bc 0c       	add	r11, r12
    3b16:	24 fe       	sbrs	r2, 4
    3b18:	04 c0       	rjmp	.+8      	; 0x3b22 <vfprintf+0x23c>
    3b1a:	8a 81       	ldd	r24, Y+2	; 0x02
    3b1c:	81 33       	cpi	r24, 0x31	; 49
    3b1e:	09 f4       	brne	.+2      	; 0x3b22 <vfprintf+0x23c>
    3b20:	ba 94       	dec	r11
    3b22:	1b 14       	cp	r1, r11
    3b24:	1c f0       	brlt	.+6      	; 0x3b2c <vfprintf+0x246>
    3b26:	bb 24       	eor	r11, r11
    3b28:	b3 94       	inc	r11
    3b2a:	2d c0       	rjmp	.+90     	; 0x3b86 <vfprintf+0x2a0>
    3b2c:	f8 e0       	ldi	r31, 0x08	; 8
    3b2e:	fb 15       	cp	r31, r11
    3b30:	50 f5       	brcc	.+84     	; 0x3b86 <vfprintf+0x2a0>
    3b32:	38 e0       	ldi	r19, 0x08	; 8
    3b34:	b3 2e       	mov	r11, r19
    3b36:	27 c0       	rjmp	.+78     	; 0x3b86 <vfprintf+0x2a0>
    3b38:	f6 fc       	sbrc	r15, 6
    3b3a:	25 c0       	rjmp	.+74     	; 0x3b86 <vfprintf+0x2a0>
    3b3c:	89 2d       	mov	r24, r9
    3b3e:	90 e0       	ldi	r25, 0x00	; 0
    3b40:	8c 15       	cp	r24, r12
    3b42:	9d 05       	cpc	r25, r13
    3b44:	4c f0       	brlt	.+18     	; 0x3b58 <vfprintf+0x272>
    3b46:	2c ef       	ldi	r18, 0xFC	; 252
    3b48:	c2 16       	cp	r12, r18
    3b4a:	2f ef       	ldi	r18, 0xFF	; 255
    3b4c:	d2 06       	cpc	r13, r18
    3b4e:	24 f0       	brlt	.+8      	; 0x3b58 <vfprintf+0x272>
    3b50:	30 e8       	ldi	r19, 0x80	; 128
    3b52:	f3 2a       	or	r15, r19
    3b54:	01 c0       	rjmp	.+2      	; 0x3b58 <vfprintf+0x272>
    3b56:	9a 94       	dec	r9
    3b58:	99 20       	and	r9, r9
    3b5a:	49 f0       	breq	.+18     	; 0x3b6e <vfprintf+0x288>
    3b5c:	e2 e0       	ldi	r30, 0x02	; 2
    3b5e:	f0 e0       	ldi	r31, 0x00	; 0
    3b60:	ec 0f       	add	r30, r28
    3b62:	fd 1f       	adc	r31, r29
    3b64:	e9 0d       	add	r30, r9
    3b66:	f1 1d       	adc	r31, r1
    3b68:	80 81       	ld	r24, Z
    3b6a:	80 33       	cpi	r24, 0x30	; 48
    3b6c:	a1 f3       	breq	.-24     	; 0x3b56 <vfprintf+0x270>
    3b6e:	f7 fe       	sbrs	r15, 7
    3b70:	0a c0       	rjmp	.+20     	; 0x3b86 <vfprintf+0x2a0>
    3b72:	b9 2c       	mov	r11, r9
    3b74:	b3 94       	inc	r11
    3b76:	89 2d       	mov	r24, r9
    3b78:	90 e0       	ldi	r25, 0x00	; 0
    3b7a:	c8 16       	cp	r12, r24
    3b7c:	d9 06       	cpc	r13, r25
    3b7e:	14 f0       	brlt	.+4      	; 0x3b84 <vfprintf+0x29e>
    3b80:	99 24       	eor	r9, r9
    3b82:	01 c0       	rjmp	.+2      	; 0x3b86 <vfprintf+0x2a0>
    3b84:	9c 18       	sub	r9, r12
    3b86:	f7 fc       	sbrc	r15, 7
    3b88:	03 c0       	rjmp	.+6      	; 0x3b90 <vfprintf+0x2aa>
    3b8a:	25 e0       	ldi	r18, 0x05	; 5
    3b8c:	30 e0       	ldi	r19, 0x00	; 0
    3b8e:	09 c0       	rjmp	.+18     	; 0x3ba2 <vfprintf+0x2bc>
    3b90:	1c 14       	cp	r1, r12
    3b92:	1d 04       	cpc	r1, r13
    3b94:	1c f0       	brlt	.+6      	; 0x3b9c <vfprintf+0x2b6>
    3b96:	21 e0       	ldi	r18, 0x01	; 1
    3b98:	30 e0       	ldi	r19, 0x00	; 0
    3b9a:	03 c0       	rjmp	.+6      	; 0x3ba2 <vfprintf+0x2bc>
    3b9c:	96 01       	movw	r18, r12
    3b9e:	2f 5f       	subi	r18, 0xFF	; 255
    3ba0:	3f 4f       	sbci	r19, 0xFF	; 255
    3ba2:	11 23       	and	r17, r17
    3ba4:	11 f0       	breq	.+4      	; 0x3baa <vfprintf+0x2c4>
    3ba6:	2f 5f       	subi	r18, 0xFF	; 255
    3ba8:	3f 4f       	sbci	r19, 0xFF	; 255
    3baa:	99 20       	and	r9, r9
    3bac:	29 f0       	breq	.+10     	; 0x3bb8 <vfprintf+0x2d2>
    3bae:	89 2d       	mov	r24, r9
    3bb0:	90 e0       	ldi	r25, 0x00	; 0
    3bb2:	01 96       	adiw	r24, 0x01	; 1
    3bb4:	28 0f       	add	r18, r24
    3bb6:	39 1f       	adc	r19, r25
    3bb8:	88 2d       	mov	r24, r8
    3bba:	90 e0       	ldi	r25, 0x00	; 0
    3bbc:	28 17       	cp	r18, r24
    3bbe:	39 07       	cpc	r19, r25
    3bc0:	14 f0       	brlt	.+4      	; 0x3bc6 <vfprintf+0x2e0>
    3bc2:	88 24       	eor	r8, r8
    3bc4:	01 c0       	rjmp	.+2      	; 0x3bc8 <vfprintf+0x2e2>
    3bc6:	82 1a       	sub	r8, r18
    3bc8:	4f 2c       	mov	r4, r15
    3bca:	55 24       	eor	r5, r5
    3bcc:	c2 01       	movw	r24, r4
    3bce:	89 70       	andi	r24, 0x09	; 9
    3bd0:	90 70       	andi	r25, 0x00	; 0
    3bd2:	89 2b       	or	r24, r25
    3bd4:	39 f0       	breq	.+14     	; 0x3be4 <vfprintf+0x2fe>
    3bd6:	08 c0       	rjmp	.+16     	; 0x3be8 <vfprintf+0x302>
    3bd8:	80 e2       	ldi	r24, 0x20	; 32
    3bda:	90 e0       	ldi	r25, 0x00	; 0
    3bdc:	b3 01       	movw	r22, r6
    3bde:	0e 94 48 25 	call	0x4a90	; 0x4a90 <fputc>
    3be2:	8a 94       	dec	r8
    3be4:	88 20       	and	r8, r8
    3be6:	c1 f7       	brne	.-16     	; 0x3bd8 <vfprintf+0x2f2>
    3be8:	11 23       	and	r17, r17
    3bea:	29 f0       	breq	.+10     	; 0x3bf6 <vfprintf+0x310>
    3bec:	81 2f       	mov	r24, r17
    3bee:	90 e0       	ldi	r25, 0x00	; 0
    3bf0:	b3 01       	movw	r22, r6
    3bf2:	0e 94 48 25 	call	0x4a90	; 0x4a90 <fputc>
    3bf6:	43 fe       	sbrs	r4, 3
    3bf8:	07 c0       	rjmp	.+14     	; 0x3c08 <vfprintf+0x322>
    3bfa:	08 c0       	rjmp	.+16     	; 0x3c0c <vfprintf+0x326>
    3bfc:	80 e3       	ldi	r24, 0x30	; 48
    3bfe:	90 e0       	ldi	r25, 0x00	; 0
    3c00:	b3 01       	movw	r22, r6
    3c02:	0e 94 48 25 	call	0x4a90	; 0x4a90 <fputc>
    3c06:	8a 94       	dec	r8
    3c08:	88 20       	and	r8, r8
    3c0a:	c1 f7       	brne	.-16     	; 0x3bfc <vfprintf+0x316>
    3c0c:	f7 fe       	sbrs	r15, 7
    3c0e:	46 c0       	rjmp	.+140    	; 0x3c9c <vfprintf+0x3b6>
    3c10:	86 01       	movw	r16, r12
    3c12:	d7 fe       	sbrs	r13, 7
    3c14:	02 c0       	rjmp	.+4      	; 0x3c1a <vfprintf+0x334>
    3c16:	00 e0       	ldi	r16, 0x00	; 0
    3c18:	10 e0       	ldi	r17, 0x00	; 0
    3c1a:	76 01       	movw	r14, r12
    3c1c:	08 94       	sec
    3c1e:	e1 1c       	adc	r14, r1
    3c20:	f1 1c       	adc	r15, r1
    3c22:	e0 1a       	sub	r14, r16
    3c24:	f1 0a       	sbc	r15, r17
    3c26:	41 e0       	ldi	r20, 0x01	; 1
    3c28:	50 e0       	ldi	r21, 0x00	; 0
    3c2a:	4c 0f       	add	r20, r28
    3c2c:	5d 1f       	adc	r21, r29
    3c2e:	e4 0e       	add	r14, r20
    3c30:	f5 1e       	adc	r15, r21
    3c32:	26 01       	movw	r4, r12
    3c34:	4b 18       	sub	r4, r11
    3c36:	51 08       	sbc	r5, r1
    3c38:	89 2d       	mov	r24, r9
    3c3a:	90 e0       	ldi	r25, 0x00	; 0
    3c3c:	aa 24       	eor	r10, r10
    3c3e:	bb 24       	eor	r11, r11
    3c40:	a8 1a       	sub	r10, r24
    3c42:	b9 0a       	sbc	r11, r25
    3c44:	5f ef       	ldi	r21, 0xFF	; 255
    3c46:	0f 3f       	cpi	r16, 0xFF	; 255
    3c48:	15 07       	cpc	r17, r21
    3c4a:	29 f4       	brne	.+10     	; 0x3c56 <vfprintf+0x370>
    3c4c:	8e e2       	ldi	r24, 0x2E	; 46
    3c4e:	90 e0       	ldi	r25, 0x00	; 0
    3c50:	b3 01       	movw	r22, r6
    3c52:	0e 94 48 25 	call	0x4a90	; 0x4a90 <fputc>
    3c56:	c0 16       	cp	r12, r16
    3c58:	d1 06       	cpc	r13, r17
    3c5a:	34 f0       	brlt	.+12     	; 0x3c68 <vfprintf+0x382>
    3c5c:	40 16       	cp	r4, r16
    3c5e:	51 06       	cpc	r5, r17
    3c60:	1c f4       	brge	.+6      	; 0x3c68 <vfprintf+0x382>
    3c62:	f7 01       	movw	r30, r14
    3c64:	80 81       	ld	r24, Z
    3c66:	01 c0       	rjmp	.+2      	; 0x3c6a <vfprintf+0x384>
    3c68:	80 e3       	ldi	r24, 0x30	; 48
    3c6a:	01 50       	subi	r16, 0x01	; 1
    3c6c:	10 40       	sbci	r17, 0x00	; 0
    3c6e:	08 94       	sec
    3c70:	e1 1c       	adc	r14, r1
    3c72:	f1 1c       	adc	r15, r1
    3c74:	0a 15       	cp	r16, r10
    3c76:	1b 05       	cpc	r17, r11
    3c78:	2c f0       	brlt	.+10     	; 0x3c84 <vfprintf+0x39e>
    3c7a:	90 e0       	ldi	r25, 0x00	; 0
    3c7c:	b3 01       	movw	r22, r6
    3c7e:	0e 94 48 25 	call	0x4a90	; 0x4a90 <fputc>
    3c82:	e0 cf       	rjmp	.-64     	; 0x3c44 <vfprintf+0x35e>
    3c84:	0c 15       	cp	r16, r12
    3c86:	1d 05       	cpc	r17, r13
    3c88:	39 f4       	brne	.+14     	; 0x3c98 <vfprintf+0x3b2>
    3c8a:	9a 81       	ldd	r25, Y+2	; 0x02
    3c8c:	96 33       	cpi	r25, 0x36	; 54
    3c8e:	18 f4       	brcc	.+6      	; 0x3c96 <vfprintf+0x3b0>
    3c90:	95 33       	cpi	r25, 0x35	; 53
    3c92:	11 f4       	brne	.+4      	; 0x3c98 <vfprintf+0x3b2>
    3c94:	24 fe       	sbrs	r2, 4
    3c96:	81 e3       	ldi	r24, 0x31	; 49
    3c98:	90 e0       	ldi	r25, 0x00	; 0
    3c9a:	4b c0       	rjmp	.+150    	; 0x3d32 <vfprintf+0x44c>
    3c9c:	8a 81       	ldd	r24, Y+2	; 0x02
    3c9e:	81 33       	cpi	r24, 0x31	; 49
    3ca0:	09 f0       	breq	.+2      	; 0x3ca4 <vfprintf+0x3be>
    3ca2:	0f 7e       	andi	r16, 0xEF	; 239
    3ca4:	90 e0       	ldi	r25, 0x00	; 0
    3ca6:	b3 01       	movw	r22, r6
    3ca8:	0e 94 48 25 	call	0x4a90	; 0x4a90 <fputc>
    3cac:	99 20       	and	r9, r9
    3cae:	a1 f0       	breq	.+40     	; 0x3cd8 <vfprintf+0x3f2>
    3cb0:	8e e2       	ldi	r24, 0x2E	; 46
    3cb2:	90 e0       	ldi	r25, 0x00	; 0
    3cb4:	b3 01       	movw	r22, r6
    3cb6:	0e 94 48 25 	call	0x4a90	; 0x4a90 <fputc>
    3cba:	12 e0       	ldi	r17, 0x02	; 2
    3cbc:	e1 e0       	ldi	r30, 0x01	; 1
    3cbe:	f0 e0       	ldi	r31, 0x00	; 0
    3cc0:	ec 0f       	add	r30, r28
    3cc2:	fd 1f       	adc	r31, r29
    3cc4:	e1 0f       	add	r30, r17
    3cc6:	f1 1d       	adc	r31, r1
    3cc8:	1f 5f       	subi	r17, 0xFF	; 255
    3cca:	80 81       	ld	r24, Z
    3ccc:	90 e0       	ldi	r25, 0x00	; 0
    3cce:	b3 01       	movw	r22, r6
    3cd0:	0e 94 48 25 	call	0x4a90	; 0x4a90 <fputc>
    3cd4:	9a 94       	dec	r9
    3cd6:	91 f7       	brne	.-28     	; 0x3cbc <vfprintf+0x3d6>
    3cd8:	44 fc       	sbrc	r4, 4
    3cda:	03 c0       	rjmp	.+6      	; 0x3ce2 <vfprintf+0x3fc>
    3cdc:	85 e6       	ldi	r24, 0x65	; 101
    3cde:	90 e0       	ldi	r25, 0x00	; 0
    3ce0:	02 c0       	rjmp	.+4      	; 0x3ce6 <vfprintf+0x400>
    3ce2:	85 e4       	ldi	r24, 0x45	; 69
    3ce4:	90 e0       	ldi	r25, 0x00	; 0
    3ce6:	b3 01       	movw	r22, r6
    3ce8:	0e 94 48 25 	call	0x4a90	; 0x4a90 <fputc>
    3cec:	d7 fc       	sbrc	r13, 7
    3cee:	05 c0       	rjmp	.+10     	; 0x3cfa <vfprintf+0x414>
    3cf0:	c1 14       	cp	r12, r1
    3cf2:	d1 04       	cpc	r13, r1
    3cf4:	41 f4       	brne	.+16     	; 0x3d06 <vfprintf+0x420>
    3cf6:	04 ff       	sbrs	r16, 4
    3cf8:	06 c0       	rjmp	.+12     	; 0x3d06 <vfprintf+0x420>
    3cfa:	d0 94       	com	r13
    3cfc:	c1 94       	neg	r12
    3cfe:	d1 08       	sbc	r13, r1
    3d00:	d3 94       	inc	r13
    3d02:	8d e2       	ldi	r24, 0x2D	; 45
    3d04:	01 c0       	rjmp	.+2      	; 0x3d08 <vfprintf+0x422>
    3d06:	8b e2       	ldi	r24, 0x2B	; 43
    3d08:	90 e0       	ldi	r25, 0x00	; 0
    3d0a:	b3 01       	movw	r22, r6
    3d0c:	0e 94 48 25 	call	0x4a90	; 0x4a90 <fputc>
    3d10:	80 e3       	ldi	r24, 0x30	; 48
    3d12:	05 c0       	rjmp	.+10     	; 0x3d1e <vfprintf+0x438>
    3d14:	8f 5f       	subi	r24, 0xFF	; 255
    3d16:	26 ef       	ldi	r18, 0xF6	; 246
    3d18:	3f ef       	ldi	r19, 0xFF	; 255
    3d1a:	c2 0e       	add	r12, r18
    3d1c:	d3 1e       	adc	r13, r19
    3d1e:	3a e0       	ldi	r19, 0x0A	; 10
    3d20:	c3 16       	cp	r12, r19
    3d22:	d1 04       	cpc	r13, r1
    3d24:	bc f7       	brge	.-18     	; 0x3d14 <vfprintf+0x42e>
    3d26:	90 e0       	ldi	r25, 0x00	; 0
    3d28:	b3 01       	movw	r22, r6
    3d2a:	0e 94 48 25 	call	0x4a90	; 0x4a90 <fputc>
    3d2e:	c6 01       	movw	r24, r12
    3d30:	c0 96       	adiw	r24, 0x30	; 48
    3d32:	b3 01       	movw	r22, r6
    3d34:	0e 94 48 25 	call	0x4a90	; 0x4a90 <fputc>
    3d38:	cc 84       	ldd	r12, Y+12	; 0x0c
    3d3a:	dd 84       	ldd	r13, Y+13	; 0x0d
    3d3c:	52 c1       	rjmp	.+676    	; 0x3fe2 <vfprintf+0x6fc>
    3d3e:	93 36       	cpi	r25, 0x63	; 99
    3d40:	31 f0       	breq	.+12     	; 0x3d4e <vfprintf+0x468>
    3d42:	93 37       	cpi	r25, 0x73	; 115
    3d44:	99 f0       	breq	.+38     	; 0x3d6c <vfprintf+0x486>
    3d46:	93 35       	cpi	r25, 0x53	; 83
    3d48:	09 f0       	breq	.+2      	; 0x3d4c <vfprintf+0x466>
    3d4a:	59 c0       	rjmp	.+178    	; 0x3dfe <vfprintf+0x518>
    3d4c:	23 c0       	rjmp	.+70     	; 0x3d94 <vfprintf+0x4ae>
    3d4e:	f6 01       	movw	r30, r12
    3d50:	80 81       	ld	r24, Z
    3d52:	89 83       	std	Y+1, r24	; 0x01
    3d54:	5e 01       	movw	r10, r28
    3d56:	08 94       	sec
    3d58:	a1 1c       	adc	r10, r1
    3d5a:	b1 1c       	adc	r11, r1
    3d5c:	22 e0       	ldi	r18, 0x02	; 2
    3d5e:	30 e0       	ldi	r19, 0x00	; 0
    3d60:	c2 0e       	add	r12, r18
    3d62:	d3 1e       	adc	r13, r19
    3d64:	21 e0       	ldi	r18, 0x01	; 1
    3d66:	e2 2e       	mov	r14, r18
    3d68:	f1 2c       	mov	r15, r1
    3d6a:	12 c0       	rjmp	.+36     	; 0x3d90 <vfprintf+0x4aa>
    3d6c:	f6 01       	movw	r30, r12
    3d6e:	a0 80       	ld	r10, Z
    3d70:	b1 80       	ldd	r11, Z+1	; 0x01
    3d72:	16 fd       	sbrc	r17, 6
    3d74:	03 c0       	rjmp	.+6      	; 0x3d7c <vfprintf+0x496>
    3d76:	6f ef       	ldi	r22, 0xFF	; 255
    3d78:	7f ef       	ldi	r23, 0xFF	; 255
    3d7a:	02 c0       	rjmp	.+4      	; 0x3d80 <vfprintf+0x49a>
    3d7c:	69 2d       	mov	r22, r9
    3d7e:	70 e0       	ldi	r23, 0x00	; 0
    3d80:	22 e0       	ldi	r18, 0x02	; 2
    3d82:	30 e0       	ldi	r19, 0x00	; 0
    3d84:	c2 0e       	add	r12, r18
    3d86:	d3 1e       	adc	r13, r19
    3d88:	c5 01       	movw	r24, r10
    3d8a:	0e 94 fb 24 	call	0x49f6	; 0x49f6 <strnlen>
    3d8e:	7c 01       	movw	r14, r24
    3d90:	1f 77       	andi	r17, 0x7F	; 127
    3d92:	13 c0       	rjmp	.+38     	; 0x3dba <vfprintf+0x4d4>
    3d94:	f6 01       	movw	r30, r12
    3d96:	a0 80       	ld	r10, Z
    3d98:	b1 80       	ldd	r11, Z+1	; 0x01
    3d9a:	16 fd       	sbrc	r17, 6
    3d9c:	03 c0       	rjmp	.+6      	; 0x3da4 <vfprintf+0x4be>
    3d9e:	6f ef       	ldi	r22, 0xFF	; 255
    3da0:	7f ef       	ldi	r23, 0xFF	; 255
    3da2:	02 c0       	rjmp	.+4      	; 0x3da8 <vfprintf+0x4c2>
    3da4:	69 2d       	mov	r22, r9
    3da6:	70 e0       	ldi	r23, 0x00	; 0
    3da8:	22 e0       	ldi	r18, 0x02	; 2
    3daa:	30 e0       	ldi	r19, 0x00	; 0
    3dac:	c2 0e       	add	r12, r18
    3dae:	d3 1e       	adc	r13, r19
    3db0:	c5 01       	movw	r24, r10
    3db2:	0e 94 f0 24 	call	0x49e0	; 0x49e0 <strnlen_P>
    3db6:	7c 01       	movw	r14, r24
    3db8:	10 68       	ori	r17, 0x80	; 128
    3dba:	13 ff       	sbrs	r17, 3
    3dbc:	07 c0       	rjmp	.+14     	; 0x3dcc <vfprintf+0x4e6>
    3dbe:	1b c0       	rjmp	.+54     	; 0x3df6 <vfprintf+0x510>
    3dc0:	80 e2       	ldi	r24, 0x20	; 32
    3dc2:	90 e0       	ldi	r25, 0x00	; 0
    3dc4:	b3 01       	movw	r22, r6
    3dc6:	0e 94 48 25 	call	0x4a90	; 0x4a90 <fputc>
    3dca:	8a 94       	dec	r8
    3dcc:	88 2d       	mov	r24, r8
    3dce:	90 e0       	ldi	r25, 0x00	; 0
    3dd0:	e8 16       	cp	r14, r24
    3dd2:	f9 06       	cpc	r15, r25
    3dd4:	a8 f3       	brcs	.-22     	; 0x3dc0 <vfprintf+0x4da>
    3dd6:	0f c0       	rjmp	.+30     	; 0x3df6 <vfprintf+0x510>
    3dd8:	f5 01       	movw	r30, r10
    3dda:	17 fd       	sbrc	r17, 7
    3ddc:	85 91       	lpm	r24, Z+
    3dde:	17 ff       	sbrs	r17, 7
    3de0:	81 91       	ld	r24, Z+
    3de2:	5f 01       	movw	r10, r30
    3de4:	90 e0       	ldi	r25, 0x00	; 0
    3de6:	b3 01       	movw	r22, r6
    3de8:	0e 94 48 25 	call	0x4a90	; 0x4a90 <fputc>
    3dec:	81 10       	cpse	r8, r1
    3dee:	8a 94       	dec	r8
    3df0:	08 94       	sec
    3df2:	e1 08       	sbc	r14, r1
    3df4:	f1 08       	sbc	r15, r1
    3df6:	e1 14       	cp	r14, r1
    3df8:	f1 04       	cpc	r15, r1
    3dfa:	71 f7       	brne	.-36     	; 0x3dd8 <vfprintf+0x4f2>
    3dfc:	f2 c0       	rjmp	.+484    	; 0x3fe2 <vfprintf+0x6fc>
    3dfe:	94 36       	cpi	r25, 0x64	; 100
    3e00:	11 f0       	breq	.+4      	; 0x3e06 <vfprintf+0x520>
    3e02:	99 36       	cpi	r25, 0x69	; 105
    3e04:	89 f5       	brne	.+98     	; 0x3e68 <vfprintf+0x582>
    3e06:	17 ff       	sbrs	r17, 7
    3e08:	08 c0       	rjmp	.+16     	; 0x3e1a <vfprintf+0x534>
    3e0a:	f6 01       	movw	r30, r12
    3e0c:	20 81       	ld	r18, Z
    3e0e:	31 81       	ldd	r19, Z+1	; 0x01
    3e10:	42 81       	ldd	r20, Z+2	; 0x02
    3e12:	53 81       	ldd	r21, Z+3	; 0x03
    3e14:	84 e0       	ldi	r24, 0x04	; 4
    3e16:	90 e0       	ldi	r25, 0x00	; 0
    3e18:	0a c0       	rjmp	.+20     	; 0x3e2e <vfprintf+0x548>
    3e1a:	f6 01       	movw	r30, r12
    3e1c:	80 81       	ld	r24, Z
    3e1e:	91 81       	ldd	r25, Z+1	; 0x01
    3e20:	9c 01       	movw	r18, r24
    3e22:	44 27       	eor	r20, r20
    3e24:	37 fd       	sbrc	r19, 7
    3e26:	40 95       	com	r20
    3e28:	54 2f       	mov	r21, r20
    3e2a:	82 e0       	ldi	r24, 0x02	; 2
    3e2c:	90 e0       	ldi	r25, 0x00	; 0
    3e2e:	c8 0e       	add	r12, r24
    3e30:	d9 1e       	adc	r13, r25
    3e32:	9f e6       	ldi	r25, 0x6F	; 111
    3e34:	f9 2e       	mov	r15, r25
    3e36:	f1 22       	and	r15, r17
    3e38:	57 ff       	sbrs	r21, 7
    3e3a:	09 c0       	rjmp	.+18     	; 0x3e4e <vfprintf+0x568>
    3e3c:	50 95       	com	r21
    3e3e:	40 95       	com	r20
    3e40:	30 95       	com	r19
    3e42:	21 95       	neg	r18
    3e44:	3f 4f       	sbci	r19, 0xFF	; 255
    3e46:	4f 4f       	sbci	r20, 0xFF	; 255
    3e48:	5f 4f       	sbci	r21, 0xFF	; 255
    3e4a:	90 e8       	ldi	r25, 0x80	; 128
    3e4c:	f9 2a       	or	r15, r25
    3e4e:	ca 01       	movw	r24, r20
    3e50:	b9 01       	movw	r22, r18
    3e52:	ae 01       	movw	r20, r28
    3e54:	4f 5f       	subi	r20, 0xFF	; 255
    3e56:	5f 4f       	sbci	r21, 0xFF	; 255
    3e58:	2a e0       	ldi	r18, 0x0A	; 10
    3e5a:	30 e0       	ldi	r19, 0x00	; 0
    3e5c:	0e 94 8e 25 	call	0x4b1c	; 0x4b1c <__ultoa_invert>
    3e60:	e8 2e       	mov	r14, r24
    3e62:	e8 89       	ldd	r30, Y+16	; 0x10
    3e64:	ee 1a       	sub	r14, r30
    3e66:	41 c0       	rjmp	.+130    	; 0x3eea <vfprintf+0x604>
    3e68:	95 37       	cpi	r25, 0x75	; 117
    3e6a:	21 f4       	brne	.+8      	; 0x3e74 <vfprintf+0x58e>
    3e6c:	1f 7e       	andi	r17, 0xEF	; 239
    3e6e:	2a e0       	ldi	r18, 0x0A	; 10
    3e70:	30 e0       	ldi	r19, 0x00	; 0
    3e72:	1c c0       	rjmp	.+56     	; 0x3eac <vfprintf+0x5c6>
    3e74:	19 7f       	andi	r17, 0xF9	; 249
    3e76:	9f 36       	cpi	r25, 0x6F	; 111
    3e78:	61 f0       	breq	.+24     	; 0x3e92 <vfprintf+0x5ac>
    3e7a:	90 37       	cpi	r25, 0x70	; 112
    3e7c:	20 f4       	brcc	.+8      	; 0x3e86 <vfprintf+0x5a0>
    3e7e:	98 35       	cpi	r25, 0x58	; 88
    3e80:	09 f0       	breq	.+2      	; 0x3e84 <vfprintf+0x59e>
    3e82:	b2 c0       	rjmp	.+356    	; 0x3fe8 <vfprintf+0x702>
    3e84:	0f c0       	rjmp	.+30     	; 0x3ea4 <vfprintf+0x5be>
    3e86:	90 37       	cpi	r25, 0x70	; 112
    3e88:	39 f0       	breq	.+14     	; 0x3e98 <vfprintf+0x5b2>
    3e8a:	98 37       	cpi	r25, 0x78	; 120
    3e8c:	09 f0       	breq	.+2      	; 0x3e90 <vfprintf+0x5aa>
    3e8e:	ac c0       	rjmp	.+344    	; 0x3fe8 <vfprintf+0x702>
    3e90:	04 c0       	rjmp	.+8      	; 0x3e9a <vfprintf+0x5b4>
    3e92:	28 e0       	ldi	r18, 0x08	; 8
    3e94:	30 e0       	ldi	r19, 0x00	; 0
    3e96:	0a c0       	rjmp	.+20     	; 0x3eac <vfprintf+0x5c6>
    3e98:	10 61       	ori	r17, 0x10	; 16
    3e9a:	14 fd       	sbrc	r17, 4
    3e9c:	14 60       	ori	r17, 0x04	; 4
    3e9e:	20 e1       	ldi	r18, 0x10	; 16
    3ea0:	30 e0       	ldi	r19, 0x00	; 0
    3ea2:	04 c0       	rjmp	.+8      	; 0x3eac <vfprintf+0x5c6>
    3ea4:	14 fd       	sbrc	r17, 4
    3ea6:	16 60       	ori	r17, 0x06	; 6
    3ea8:	20 e1       	ldi	r18, 0x10	; 16
    3eaa:	32 e0       	ldi	r19, 0x02	; 2
    3eac:	17 ff       	sbrs	r17, 7
    3eae:	08 c0       	rjmp	.+16     	; 0x3ec0 <vfprintf+0x5da>
    3eb0:	f6 01       	movw	r30, r12
    3eb2:	60 81       	ld	r22, Z
    3eb4:	71 81       	ldd	r23, Z+1	; 0x01
    3eb6:	82 81       	ldd	r24, Z+2	; 0x02
    3eb8:	93 81       	ldd	r25, Z+3	; 0x03
    3eba:	44 e0       	ldi	r20, 0x04	; 4
    3ebc:	50 e0       	ldi	r21, 0x00	; 0
    3ebe:	08 c0       	rjmp	.+16     	; 0x3ed0 <vfprintf+0x5ea>
    3ec0:	f6 01       	movw	r30, r12
    3ec2:	80 81       	ld	r24, Z
    3ec4:	91 81       	ldd	r25, Z+1	; 0x01
    3ec6:	bc 01       	movw	r22, r24
    3ec8:	80 e0       	ldi	r24, 0x00	; 0
    3eca:	90 e0       	ldi	r25, 0x00	; 0
    3ecc:	42 e0       	ldi	r20, 0x02	; 2
    3ece:	50 e0       	ldi	r21, 0x00	; 0
    3ed0:	c4 0e       	add	r12, r20
    3ed2:	d5 1e       	adc	r13, r21
    3ed4:	ae 01       	movw	r20, r28
    3ed6:	4f 5f       	subi	r20, 0xFF	; 255
    3ed8:	5f 4f       	sbci	r21, 0xFF	; 255
    3eda:	0e 94 8e 25 	call	0x4b1c	; 0x4b1c <__ultoa_invert>
    3ede:	e8 2e       	mov	r14, r24
    3ee0:	58 89       	ldd	r21, Y+16	; 0x10
    3ee2:	e5 1a       	sub	r14, r21
    3ee4:	8f e7       	ldi	r24, 0x7F	; 127
    3ee6:	f8 2e       	mov	r15, r24
    3ee8:	f1 22       	and	r15, r17
    3eea:	f6 fe       	sbrs	r15, 6
    3eec:	0b c0       	rjmp	.+22     	; 0x3f04 <vfprintf+0x61e>
    3eee:	8e ef       	ldi	r24, 0xFE	; 254
    3ef0:	f8 22       	and	r15, r24
    3ef2:	e9 14       	cp	r14, r9
    3ef4:	38 f4       	brcc	.+14     	; 0x3f04 <vfprintf+0x61e>
    3ef6:	f4 fe       	sbrs	r15, 4
    3ef8:	07 c0       	rjmp	.+14     	; 0x3f08 <vfprintf+0x622>
    3efa:	f2 fc       	sbrc	r15, 2
    3efc:	05 c0       	rjmp	.+10     	; 0x3f08 <vfprintf+0x622>
    3efe:	9f ee       	ldi	r25, 0xEF	; 239
    3f00:	f9 22       	and	r15, r25
    3f02:	02 c0       	rjmp	.+4      	; 0x3f08 <vfprintf+0x622>
    3f04:	1e 2d       	mov	r17, r14
    3f06:	01 c0       	rjmp	.+2      	; 0x3f0a <vfprintf+0x624>
    3f08:	19 2d       	mov	r17, r9
    3f0a:	f4 fe       	sbrs	r15, 4
    3f0c:	0d c0       	rjmp	.+26     	; 0x3f28 <vfprintf+0x642>
    3f0e:	fe 01       	movw	r30, r28
    3f10:	ee 0d       	add	r30, r14
    3f12:	f1 1d       	adc	r31, r1
    3f14:	80 81       	ld	r24, Z
    3f16:	80 33       	cpi	r24, 0x30	; 48
    3f18:	19 f4       	brne	.+6      	; 0x3f20 <vfprintf+0x63a>
    3f1a:	e9 ee       	ldi	r30, 0xE9	; 233
    3f1c:	fe 22       	and	r15, r30
    3f1e:	08 c0       	rjmp	.+16     	; 0x3f30 <vfprintf+0x64a>
    3f20:	1f 5f       	subi	r17, 0xFF	; 255
    3f22:	f2 fe       	sbrs	r15, 2
    3f24:	05 c0       	rjmp	.+10     	; 0x3f30 <vfprintf+0x64a>
    3f26:	03 c0       	rjmp	.+6      	; 0x3f2e <vfprintf+0x648>
    3f28:	8f 2d       	mov	r24, r15
    3f2a:	86 78       	andi	r24, 0x86	; 134
    3f2c:	09 f0       	breq	.+2      	; 0x3f30 <vfprintf+0x64a>
    3f2e:	1f 5f       	subi	r17, 0xFF	; 255
    3f30:	0f 2d       	mov	r16, r15
    3f32:	f3 fc       	sbrc	r15, 3
    3f34:	14 c0       	rjmp	.+40     	; 0x3f5e <vfprintf+0x678>
    3f36:	f0 fe       	sbrs	r15, 0
    3f38:	0f c0       	rjmp	.+30     	; 0x3f58 <vfprintf+0x672>
    3f3a:	18 15       	cp	r17, r8
    3f3c:	10 f0       	brcs	.+4      	; 0x3f42 <vfprintf+0x65c>
    3f3e:	9e 2c       	mov	r9, r14
    3f40:	0b c0       	rjmp	.+22     	; 0x3f58 <vfprintf+0x672>
    3f42:	9e 2c       	mov	r9, r14
    3f44:	98 0c       	add	r9, r8
    3f46:	91 1a       	sub	r9, r17
    3f48:	18 2d       	mov	r17, r8
    3f4a:	06 c0       	rjmp	.+12     	; 0x3f58 <vfprintf+0x672>
    3f4c:	80 e2       	ldi	r24, 0x20	; 32
    3f4e:	90 e0       	ldi	r25, 0x00	; 0
    3f50:	b3 01       	movw	r22, r6
    3f52:	0e 94 48 25 	call	0x4a90	; 0x4a90 <fputc>
    3f56:	1f 5f       	subi	r17, 0xFF	; 255
    3f58:	18 15       	cp	r17, r8
    3f5a:	c0 f3       	brcs	.-16     	; 0x3f4c <vfprintf+0x666>
    3f5c:	04 c0       	rjmp	.+8      	; 0x3f66 <vfprintf+0x680>
    3f5e:	18 15       	cp	r17, r8
    3f60:	10 f4       	brcc	.+4      	; 0x3f66 <vfprintf+0x680>
    3f62:	81 1a       	sub	r8, r17
    3f64:	01 c0       	rjmp	.+2      	; 0x3f68 <vfprintf+0x682>
    3f66:	88 24       	eor	r8, r8
    3f68:	04 ff       	sbrs	r16, 4
    3f6a:	0f c0       	rjmp	.+30     	; 0x3f8a <vfprintf+0x6a4>
    3f6c:	80 e3       	ldi	r24, 0x30	; 48
    3f6e:	90 e0       	ldi	r25, 0x00	; 0
    3f70:	b3 01       	movw	r22, r6
    3f72:	0e 94 48 25 	call	0x4a90	; 0x4a90 <fputc>
    3f76:	02 ff       	sbrs	r16, 2
    3f78:	1d c0       	rjmp	.+58     	; 0x3fb4 <vfprintf+0x6ce>
    3f7a:	01 fd       	sbrc	r16, 1
    3f7c:	03 c0       	rjmp	.+6      	; 0x3f84 <vfprintf+0x69e>
    3f7e:	88 e7       	ldi	r24, 0x78	; 120
    3f80:	90 e0       	ldi	r25, 0x00	; 0
    3f82:	0e c0       	rjmp	.+28     	; 0x3fa0 <vfprintf+0x6ba>
    3f84:	88 e5       	ldi	r24, 0x58	; 88
    3f86:	90 e0       	ldi	r25, 0x00	; 0
    3f88:	0b c0       	rjmp	.+22     	; 0x3fa0 <vfprintf+0x6ba>
    3f8a:	80 2f       	mov	r24, r16
    3f8c:	86 78       	andi	r24, 0x86	; 134
    3f8e:	91 f0       	breq	.+36     	; 0x3fb4 <vfprintf+0x6ce>
    3f90:	01 ff       	sbrs	r16, 1
    3f92:	02 c0       	rjmp	.+4      	; 0x3f98 <vfprintf+0x6b2>
    3f94:	8b e2       	ldi	r24, 0x2B	; 43
    3f96:	01 c0       	rjmp	.+2      	; 0x3f9a <vfprintf+0x6b4>
    3f98:	80 e2       	ldi	r24, 0x20	; 32
    3f9a:	f7 fc       	sbrc	r15, 7
    3f9c:	8d e2       	ldi	r24, 0x2D	; 45
    3f9e:	90 e0       	ldi	r25, 0x00	; 0
    3fa0:	b3 01       	movw	r22, r6
    3fa2:	0e 94 48 25 	call	0x4a90	; 0x4a90 <fputc>
    3fa6:	06 c0       	rjmp	.+12     	; 0x3fb4 <vfprintf+0x6ce>
    3fa8:	80 e3       	ldi	r24, 0x30	; 48
    3faa:	90 e0       	ldi	r25, 0x00	; 0
    3fac:	b3 01       	movw	r22, r6
    3fae:	0e 94 48 25 	call	0x4a90	; 0x4a90 <fputc>
    3fb2:	9a 94       	dec	r9
    3fb4:	e9 14       	cp	r14, r9
    3fb6:	c0 f3       	brcs	.-16     	; 0x3fa8 <vfprintf+0x6c2>
    3fb8:	ea 94       	dec	r14
    3fba:	e1 e0       	ldi	r30, 0x01	; 1
    3fbc:	f0 e0       	ldi	r31, 0x00	; 0
    3fbe:	ec 0f       	add	r30, r28
    3fc0:	fd 1f       	adc	r31, r29
    3fc2:	ee 0d       	add	r30, r14
    3fc4:	f1 1d       	adc	r31, r1
    3fc6:	80 81       	ld	r24, Z
    3fc8:	90 e0       	ldi	r25, 0x00	; 0
    3fca:	b3 01       	movw	r22, r6
    3fcc:	0e 94 48 25 	call	0x4a90	; 0x4a90 <fputc>
    3fd0:	ee 20       	and	r14, r14
    3fd2:	91 f7       	brne	.-28     	; 0x3fb8 <vfprintf+0x6d2>
    3fd4:	06 c0       	rjmp	.+12     	; 0x3fe2 <vfprintf+0x6fc>
    3fd6:	80 e2       	ldi	r24, 0x20	; 32
    3fd8:	90 e0       	ldi	r25, 0x00	; 0
    3fda:	b3 01       	movw	r22, r6
    3fdc:	0e 94 48 25 	call	0x4a90	; 0x4a90 <fputc>
    3fe0:	8a 94       	dec	r8
    3fe2:	88 20       	and	r8, r8
    3fe4:	c1 f7       	brne	.-16     	; 0x3fd6 <vfprintf+0x6f0>
    3fe6:	97 cc       	rjmp	.-1746   	; 0x3916 <vfprintf+0x30>
    3fe8:	f3 01       	movw	r30, r6
    3fea:	66 81       	ldd	r22, Z+6	; 0x06
    3fec:	77 81       	ldd	r23, Z+7	; 0x07
    3fee:	cb 01       	movw	r24, r22
    3ff0:	61 96       	adiw	r28, 0x11	; 17
    3ff2:	e2 e1       	ldi	r30, 0x12	; 18
    3ff4:	0c 94 39 28 	jmp	0x5072	; 0x5072 <__epilogue_restores__>

00003ff8 <putval>:
    3ff8:	fc 01       	movw	r30, r24
    3ffa:	20 fd       	sbrc	r18, 0
    3ffc:	08 c0       	rjmp	.+16     	; 0x400e <putval+0x16>
    3ffe:	23 fd       	sbrc	r18, 3
    4000:	05 c0       	rjmp	.+10     	; 0x400c <putval+0x14>
    4002:	22 ff       	sbrs	r18, 2
    4004:	02 c0       	rjmp	.+4      	; 0x400a <putval+0x12>
    4006:	73 83       	std	Z+3, r23	; 0x03
    4008:	62 83       	std	Z+2, r22	; 0x02
    400a:	51 83       	std	Z+1, r21	; 0x01
    400c:	40 83       	st	Z, r20
    400e:	08 95       	ret

00004010 <mulacc>:
    4010:	ef 92       	push	r14
    4012:	ff 92       	push	r15
    4014:	0f 93       	push	r16
    4016:	1f 93       	push	r17
    4018:	44 ff       	sbrs	r20, 4
    401a:	02 c0       	rjmp	.+4      	; 0x4020 <mulacc+0x10>
    401c:	33 e0       	ldi	r19, 0x03	; 3
    401e:	11 c0       	rjmp	.+34     	; 0x4042 <mulacc+0x32>
    4020:	46 ff       	sbrs	r20, 6
    4022:	02 c0       	rjmp	.+4      	; 0x4028 <mulacc+0x18>
    4024:	34 e0       	ldi	r19, 0x04	; 4
    4026:	0d c0       	rjmp	.+26     	; 0x4042 <mulacc+0x32>
    4028:	db 01       	movw	r26, r22
    402a:	fc 01       	movw	r30, r24
    402c:	aa 0f       	add	r26, r26
    402e:	bb 1f       	adc	r27, r27
    4030:	ee 1f       	adc	r30, r30
    4032:	ff 1f       	adc	r31, r31
    4034:	10 94       	com	r1
    4036:	d1 f7       	brne	.-12     	; 0x402c <mulacc+0x1c>
    4038:	6a 0f       	add	r22, r26
    403a:	7b 1f       	adc	r23, r27
    403c:	8e 1f       	adc	r24, r30
    403e:	9f 1f       	adc	r25, r31
    4040:	31 e0       	ldi	r19, 0x01	; 1
    4042:	66 0f       	add	r22, r22
    4044:	77 1f       	adc	r23, r23
    4046:	88 1f       	adc	r24, r24
    4048:	99 1f       	adc	r25, r25
    404a:	31 50       	subi	r19, 0x01	; 1
    404c:	d1 f7       	brne	.-12     	; 0x4042 <mulacc+0x32>
    404e:	7b 01       	movw	r14, r22
    4050:	8c 01       	movw	r16, r24
    4052:	e2 0e       	add	r14, r18
    4054:	f1 1c       	adc	r15, r1
    4056:	01 1d       	adc	r16, r1
    4058:	11 1d       	adc	r17, r1
    405a:	a8 01       	movw	r20, r16
    405c:	97 01       	movw	r18, r14
    405e:	b7 01       	movw	r22, r14
    4060:	ca 01       	movw	r24, r20
    4062:	1f 91       	pop	r17
    4064:	0f 91       	pop	r16
    4066:	ff 90       	pop	r15
    4068:	ef 90       	pop	r14
    406a:	08 95       	ret

0000406c <skip_spaces>:
    406c:	0f 93       	push	r16
    406e:	1f 93       	push	r17
    4070:	cf 93       	push	r28
    4072:	df 93       	push	r29
    4074:	8c 01       	movw	r16, r24
    4076:	c8 01       	movw	r24, r16
    4078:	0e 94 06 25 	call	0x4a0c	; 0x4a0c <fgetc>
    407c:	ec 01       	movw	r28, r24
    407e:	97 fd       	sbrc	r25, 7
    4080:	08 c0       	rjmp	.+16     	; 0x4092 <skip_spaces+0x26>
    4082:	0e 94 76 28 	call	0x50ec	; 0x50ec <isspace>
    4086:	89 2b       	or	r24, r25
    4088:	b1 f7       	brne	.-20     	; 0x4076 <skip_spaces+0xa>
    408a:	ce 01       	movw	r24, r28
    408c:	b8 01       	movw	r22, r16
    408e:	0e 94 74 25 	call	0x4ae8	; 0x4ae8 <ungetc>
    4092:	ce 01       	movw	r24, r28
    4094:	df 91       	pop	r29
    4096:	cf 91       	pop	r28
    4098:	1f 91       	pop	r17
    409a:	0f 91       	pop	r16
    409c:	08 95       	ret

0000409e <conv_int>:
    409e:	8f 92       	push	r8
    40a0:	9f 92       	push	r9
    40a2:	af 92       	push	r10
    40a4:	bf 92       	push	r11
    40a6:	df 92       	push	r13
    40a8:	ef 92       	push	r14
    40aa:	ff 92       	push	r15
    40ac:	0f 93       	push	r16
    40ae:	1f 93       	push	r17
    40b0:	cf 93       	push	r28
    40b2:	df 93       	push	r29
    40b4:	5c 01       	movw	r10, r24
    40b6:	eb 01       	movw	r28, r22
    40b8:	4a 01       	movw	r8, r20
    40ba:	12 2f       	mov	r17, r18
    40bc:	0e 94 06 25 	call	0x4a0c	; 0x4a0c <fgetc>
    40c0:	ac 01       	movw	r20, r24
    40c2:	8b 32       	cpi	r24, 0x2B	; 43
    40c4:	19 f0       	breq	.+6      	; 0x40cc <conv_int+0x2e>
    40c6:	8d 32       	cpi	r24, 0x2D	; 45
    40c8:	51 f4       	brne	.+20     	; 0x40de <conv_int+0x40>
    40ca:	10 68       	ori	r17, 0x80	; 128
    40cc:	21 97       	sbiw	r28, 0x01	; 1
    40ce:	09 f4       	brne	.+2      	; 0x40d2 <conv_int+0x34>
    40d0:	6d c0       	rjmp	.+218    	; 0x41ac <conv_int+0x10e>
    40d2:	c5 01       	movw	r24, r10
    40d4:	0e 94 06 25 	call	0x4a0c	; 0x4a0c <fgetc>
    40d8:	ac 01       	movw	r20, r24
    40da:	97 fd       	sbrc	r25, 7
    40dc:	67 c0       	rjmp	.+206    	; 0x41ac <conv_int+0x10e>
    40de:	6d ef       	ldi	r22, 0xFD	; 253
    40e0:	d6 2e       	mov	r13, r22
    40e2:	d1 22       	and	r13, r17
    40e4:	8d 2d       	mov	r24, r13
    40e6:	80 73       	andi	r24, 0x30	; 48
    40e8:	01 f5       	brne	.+64     	; 0x412a <conv_int+0x8c>
    40ea:	40 33       	cpi	r20, 0x30	; 48
    40ec:	f1 f4       	brne	.+60     	; 0x412a <conv_int+0x8c>
    40ee:	21 97       	sbiw	r28, 0x01	; 1
    40f0:	09 f4       	brne	.+2      	; 0x40f4 <conv_int+0x56>
    40f2:	47 c0       	rjmp	.+142    	; 0x4182 <conv_int+0xe4>
    40f4:	c5 01       	movw	r24, r10
    40f6:	0e 94 06 25 	call	0x4a0c	; 0x4a0c <fgetc>
    40fa:	ac 01       	movw	r20, r24
    40fc:	97 fd       	sbrc	r25, 7
    40fe:	41 c0       	rjmp	.+130    	; 0x4182 <conv_int+0xe4>
    4100:	82 e0       	ldi	r24, 0x02	; 2
    4102:	d8 2a       	or	r13, r24
    4104:	48 37       	cpi	r20, 0x78	; 120
    4106:	11 f0       	breq	.+4      	; 0x410c <conv_int+0x6e>
    4108:	48 35       	cpi	r20, 0x58	; 88
    410a:	59 f4       	brne	.+22     	; 0x4122 <conv_int+0x84>
    410c:	80 e4       	ldi	r24, 0x40	; 64
    410e:	d8 2a       	or	r13, r24
    4110:	21 97       	sbiw	r28, 0x01	; 1
    4112:	b9 f1       	breq	.+110    	; 0x4182 <conv_int+0xe4>
    4114:	c5 01       	movw	r24, r10
    4116:	0e 94 06 25 	call	0x4a0c	; 0x4a0c <fgetc>
    411a:	ac 01       	movw	r20, r24
    411c:	99 23       	and	r25, r25
    411e:	2c f4       	brge	.+10     	; 0x412a <conv_int+0x8c>
    4120:	30 c0       	rjmp	.+96     	; 0x4182 <conv_int+0xe4>
    4122:	d6 fc       	sbrc	r13, 6
    4124:	02 c0       	rjmp	.+4      	; 0x412a <conv_int+0x8c>
    4126:	80 e1       	ldi	r24, 0x10	; 16
    4128:	d8 2a       	or	r13, r24
    412a:	ee 24       	eor	r14, r14
    412c:	ff 24       	eor	r15, r15
    412e:	87 01       	movw	r16, r14
    4130:	24 2f       	mov	r18, r20
    4132:	20 53       	subi	r18, 0x30	; 48
    4134:	28 30       	cpi	r18, 0x08	; 8
    4136:	88 f0       	brcs	.+34     	; 0x415a <conv_int+0xbc>
    4138:	d4 fc       	sbrc	r13, 4
    413a:	09 c0       	rjmp	.+18     	; 0x414e <conv_int+0xb0>
    413c:	2a 30       	cpi	r18, 0x0A	; 10
    413e:	68 f0       	brcs	.+26     	; 0x415a <conv_int+0xbc>
    4140:	d6 fe       	sbrs	r13, 6
    4142:	05 c0       	rjmp	.+10     	; 0x414e <conv_int+0xb0>
    4144:	2f 7d       	andi	r18, 0xDF	; 223
    4146:	82 2f       	mov	r24, r18
    4148:	81 51       	subi	r24, 0x11	; 17
    414a:	86 30       	cpi	r24, 0x06	; 6
    414c:	28 f0       	brcs	.+10     	; 0x4158 <conv_int+0xba>
    414e:	ca 01       	movw	r24, r20
    4150:	b5 01       	movw	r22, r10
    4152:	0e 94 74 25 	call	0x4ae8	; 0x4ae8 <ungetc>
    4156:	12 c0       	rjmp	.+36     	; 0x417c <conv_int+0xde>
    4158:	27 50       	subi	r18, 0x07	; 7
    415a:	c8 01       	movw	r24, r16
    415c:	b7 01       	movw	r22, r14
    415e:	4d 2d       	mov	r20, r13
    4160:	0e 94 08 20 	call	0x4010	; 0x4010 <mulacc>
    4164:	7b 01       	movw	r14, r22
    4166:	8c 01       	movw	r16, r24
    4168:	82 e0       	ldi	r24, 0x02	; 2
    416a:	d8 2a       	or	r13, r24
    416c:	21 97       	sbiw	r28, 0x01	; 1
    416e:	61 f0       	breq	.+24     	; 0x4188 <conv_int+0xea>
    4170:	c5 01       	movw	r24, r10
    4172:	0e 94 06 25 	call	0x4a0c	; 0x4a0c <fgetc>
    4176:	ac 01       	movw	r20, r24
    4178:	97 ff       	sbrs	r25, 7
    417a:	da cf       	rjmp	.-76     	; 0x4130 <conv_int+0x92>
    417c:	d1 fc       	sbrc	r13, 1
    417e:	04 c0       	rjmp	.+8      	; 0x4188 <conv_int+0xea>
    4180:	15 c0       	rjmp	.+42     	; 0x41ac <conv_int+0x10e>
    4182:	ee 24       	eor	r14, r14
    4184:	ff 24       	eor	r15, r15
    4186:	87 01       	movw	r16, r14
    4188:	d7 fe       	sbrs	r13, 7
    418a:	08 c0       	rjmp	.+16     	; 0x419c <conv_int+0xfe>
    418c:	10 95       	com	r17
    418e:	00 95       	com	r16
    4190:	f0 94       	com	r15
    4192:	e0 94       	com	r14
    4194:	e1 1c       	adc	r14, r1
    4196:	f1 1c       	adc	r15, r1
    4198:	01 1d       	adc	r16, r1
    419a:	11 1d       	adc	r17, r1
    419c:	c4 01       	movw	r24, r8
    419e:	b8 01       	movw	r22, r16
    41a0:	a7 01       	movw	r20, r14
    41a2:	2d 2d       	mov	r18, r13
    41a4:	0e 94 fc 1f 	call	0x3ff8	; 0x3ff8 <putval>
    41a8:	81 e0       	ldi	r24, 0x01	; 1
    41aa:	01 c0       	rjmp	.+2      	; 0x41ae <conv_int+0x110>
    41ac:	80 e0       	ldi	r24, 0x00	; 0
    41ae:	df 91       	pop	r29
    41b0:	cf 91       	pop	r28
    41b2:	1f 91       	pop	r17
    41b4:	0f 91       	pop	r16
    41b6:	ff 90       	pop	r15
    41b8:	ef 90       	pop	r14
    41ba:	df 90       	pop	r13
    41bc:	bf 90       	pop	r11
    41be:	af 90       	pop	r10
    41c0:	9f 90       	pop	r9
    41c2:	8f 90       	pop	r8
    41c4:	08 95       	ret

000041c6 <conv_brk>:
    41c6:	a0 e2       	ldi	r26, 0x20	; 32
    41c8:	b0 e0       	ldi	r27, 0x00	; 0
    41ca:	e9 ee       	ldi	r30, 0xE9	; 233
    41cc:	f0 e2       	ldi	r31, 0x20	; 32
    41ce:	0c 94 21 28 	jmp	0x5042	; 0x5042 <__prologue_saves__+0x8>
    41d2:	5c 01       	movw	r10, r24
    41d4:	6b 01       	movw	r12, r22
    41d6:	8a 01       	movw	r16, r20
    41d8:	79 01       	movw	r14, r18
    41da:	fe 01       	movw	r30, r28
    41dc:	31 96       	adiw	r30, 0x01	; 1
    41de:	80 e2       	ldi	r24, 0x20	; 32
    41e0:	df 01       	movw	r26, r30
    41e2:	1d 92       	st	X+, r1
    41e4:	8a 95       	dec	r24
    41e6:	e9 f7       	brne	.-6      	; 0x41e2 <conv_brk+0x1c>
    41e8:	70 e0       	ldi	r23, 0x00	; 0
    41ea:	30 e0       	ldi	r19, 0x00	; 0
    41ec:	60 e0       	ldi	r22, 0x00	; 0
    41ee:	40 e0       	ldi	r20, 0x00	; 0
    41f0:	50 e0       	ldi	r21, 0x00	; 0
    41f2:	3f 01       	movw	r6, r30
    41f4:	a1 e0       	ldi	r26, 0x01	; 1
    41f6:	b0 e0       	ldi	r27, 0x00	; 0
    41f8:	f5 01       	movw	r30, r10
    41fa:	83 81       	ldd	r24, Z+3	; 0x03
    41fc:	f7 01       	movw	r30, r14
    41fe:	83 fd       	sbrc	r24, 3
    4200:	25 91       	lpm	r18, Z+
    4202:	83 ff       	sbrs	r24, 3
    4204:	21 91       	ld	r18, Z+
    4206:	7f 01       	movw	r14, r30
    4208:	22 23       	and	r18, r18
    420a:	09 f4       	brne	.+2      	; 0x420e <conv_brk+0x48>
    420c:	81 c0       	rjmp	.+258    	; 0x4310 <conv_brk+0x14a>
    420e:	2e 35       	cpi	r18, 0x5E	; 94
    4210:	19 f4       	brne	.+6      	; 0x4218 <conv_brk+0x52>
    4212:	41 15       	cp	r20, r1
    4214:	51 05       	cpc	r21, r1
    4216:	69 f1       	breq	.+90     	; 0x4272 <conv_brk+0xac>
    4218:	87 2f       	mov	r24, r23
    421a:	90 e0       	ldi	r25, 0x00	; 0
    421c:	84 17       	cp	r24, r20
    421e:	95 07       	cpc	r25, r21
    4220:	44 f4       	brge	.+16     	; 0x4232 <conv_brk+0x6c>
    4222:	2d 35       	cpi	r18, 0x5D	; 93
    4224:	51 f1       	breq	.+84     	; 0x427a <conv_brk+0xb4>
    4226:	2d 32       	cpi	r18, 0x2D	; 45
    4228:	21 f4       	brne	.+8      	; 0x4232 <conv_brk+0x6c>
    422a:	33 23       	and	r19, r19
    422c:	29 f4       	brne	.+10     	; 0x4238 <conv_brk+0x72>
    422e:	31 e0       	ldi	r19, 0x01	; 1
    4230:	21 c0       	rjmp	.+66     	; 0x4274 <conv_brk+0xae>
    4232:	33 23       	and	r19, r19
    4234:	09 f4       	brne	.+2      	; 0x4238 <conv_brk+0x72>
    4236:	62 2f       	mov	r22, r18
    4238:	32 2f       	mov	r19, r18
    423a:	83 2f       	mov	r24, r19
    423c:	86 95       	lsr	r24
    423e:	86 95       	lsr	r24
    4240:	86 95       	lsr	r24
    4242:	f3 01       	movw	r30, r6
    4244:	e8 0f       	add	r30, r24
    4246:	f1 1d       	adc	r31, r1
    4248:	83 2f       	mov	r24, r19
    424a:	87 70       	andi	r24, 0x07	; 7
    424c:	4d 01       	movw	r8, r26
    424e:	02 c0       	rjmp	.+4      	; 0x4254 <conv_brk+0x8e>
    4250:	88 0c       	add	r8, r8
    4252:	99 1c       	adc	r9, r9
    4254:	8a 95       	dec	r24
    4256:	e2 f7       	brpl	.-8      	; 0x4250 <conv_brk+0x8a>
    4258:	20 81       	ld	r18, Z
    425a:	28 29       	or	r18, r8
    425c:	20 83       	st	Z, r18
    425e:	36 17       	cp	r19, r22
    4260:	11 f4       	brne	.+4      	; 0x4266 <conv_brk+0xa0>
    4262:	30 e0       	ldi	r19, 0x00	; 0
    4264:	07 c0       	rjmp	.+14     	; 0x4274 <conv_brk+0xae>
    4266:	36 17       	cp	r19, r22
    4268:	10 f4       	brcc	.+4      	; 0x426e <conv_brk+0xa8>
    426a:	3f 5f       	subi	r19, 0xFF	; 255
    426c:	e6 cf       	rjmp	.-52     	; 0x423a <conv_brk+0x74>
    426e:	31 50       	subi	r19, 0x01	; 1
    4270:	e4 cf       	rjmp	.-56     	; 0x423a <conv_brk+0x74>
    4272:	71 e0       	ldi	r23, 0x01	; 1
    4274:	4f 5f       	subi	r20, 0xFF	; 255
    4276:	5f 4f       	sbci	r21, 0xFF	; 255
    4278:	bf cf       	rjmp	.-130    	; 0x41f8 <conv_brk+0x32>
    427a:	33 23       	and	r19, r19
    427c:	19 f0       	breq	.+6      	; 0x4284 <conv_brk+0xbe>
    427e:	8e 81       	ldd	r24, Y+6	; 0x06
    4280:	80 62       	ori	r24, 0x20	; 32
    4282:	8e 83       	std	Y+6, r24	; 0x06
    4284:	77 23       	and	r23, r23
    4286:	59 f0       	breq	.+22     	; 0x429e <conv_brk+0xd8>
    4288:	fe 01       	movw	r30, r28
    428a:	31 96       	adiw	r30, 0x01	; 1
    428c:	9e 01       	movw	r18, r28
    428e:	2f 5d       	subi	r18, 0xDF	; 223
    4290:	3f 4f       	sbci	r19, 0xFF	; 255
    4292:	80 81       	ld	r24, Z
    4294:	80 95       	com	r24
    4296:	81 93       	st	Z+, r24
    4298:	e2 17       	cp	r30, r18
    429a:	f3 07       	cpc	r31, r19
    429c:	d1 f7       	brne	.-12     	; 0x4292 <conv_brk+0xcc>
    429e:	99 24       	eor	r9, r9
    42a0:	93 94       	inc	r9
    42a2:	3e 01       	movw	r6, r28
    42a4:	08 94       	sec
    42a6:	61 1c       	adc	r6, r1
    42a8:	71 1c       	adc	r7, r1
    42aa:	c5 01       	movw	r24, r10
    42ac:	0e 94 06 25 	call	0x4a0c	; 0x4a0c <fgetc>
    42b0:	ac 01       	movw	r20, r24
    42b2:	97 fd       	sbrc	r25, 7
    42b4:	25 c0       	rjmp	.+74     	; 0x4300 <conv_brk+0x13a>
    42b6:	86 95       	lsr	r24
    42b8:	86 95       	lsr	r24
    42ba:	86 95       	lsr	r24
    42bc:	f3 01       	movw	r30, r6
    42be:	e8 0f       	add	r30, r24
    42c0:	f1 1d       	adc	r31, r1
    42c2:	80 81       	ld	r24, Z
    42c4:	90 e0       	ldi	r25, 0x00	; 0
    42c6:	9a 01       	movw	r18, r20
    42c8:	27 70       	andi	r18, 0x07	; 7
    42ca:	30 70       	andi	r19, 0x00	; 0
    42cc:	02 c0       	rjmp	.+4      	; 0x42d2 <conv_brk+0x10c>
    42ce:	95 95       	asr	r25
    42d0:	87 95       	ror	r24
    42d2:	2a 95       	dec	r18
    42d4:	e2 f7       	brpl	.-8      	; 0x42ce <conv_brk+0x108>
    42d6:	80 fd       	sbrc	r24, 0
    42d8:	05 c0       	rjmp	.+10     	; 0x42e4 <conv_brk+0x11e>
    42da:	ca 01       	movw	r24, r20
    42dc:	b5 01       	movw	r22, r10
    42de:	0e 94 74 25 	call	0x4ae8	; 0x4ae8 <ungetc>
    42e2:	0e c0       	rjmp	.+28     	; 0x4300 <conv_brk+0x13a>
    42e4:	01 15       	cp	r16, r1
    42e6:	11 05       	cpc	r17, r1
    42e8:	19 f0       	breq	.+6      	; 0x42f0 <conv_brk+0x12a>
    42ea:	d8 01       	movw	r26, r16
    42ec:	4d 93       	st	X+, r20
    42ee:	8d 01       	movw	r16, r26
    42f0:	08 94       	sec
    42f2:	c1 08       	sbc	r12, r1
    42f4:	d1 08       	sbc	r13, r1
    42f6:	99 24       	eor	r9, r9
    42f8:	c1 14       	cp	r12, r1
    42fa:	d1 04       	cpc	r13, r1
    42fc:	b1 f6       	brne	.-84     	; 0x42aa <conv_brk+0xe4>
    42fe:	02 c0       	rjmp	.+4      	; 0x4304 <conv_brk+0x13e>
    4300:	99 20       	and	r9, r9
    4302:	31 f4       	brne	.+12     	; 0x4310 <conv_brk+0x14a>
    4304:	01 15       	cp	r16, r1
    4306:	11 05       	cpc	r17, r1
    4308:	29 f0       	breq	.+10     	; 0x4314 <conv_brk+0x14e>
    430a:	f8 01       	movw	r30, r16
    430c:	10 82       	st	Z, r1
    430e:	02 c0       	rjmp	.+4      	; 0x4314 <conv_brk+0x14e>
    4310:	ee 24       	eor	r14, r14
    4312:	ff 24       	eor	r15, r15
    4314:	c7 01       	movw	r24, r14
    4316:	a0 96       	adiw	r28, 0x20	; 32
    4318:	ee e0       	ldi	r30, 0x0E	; 14
    431a:	0c 94 3d 28 	jmp	0x507a	; 0x507a <__epilogue_restores__+0x8>

0000431e <conv_flt>:
    431e:	2f 92       	push	r2
    4320:	3f 92       	push	r3
    4322:	5f 92       	push	r5
    4324:	6f 92       	push	r6
    4326:	7f 92       	push	r7
    4328:	8f 92       	push	r8
    432a:	9f 92       	push	r9
    432c:	af 92       	push	r10
    432e:	bf 92       	push	r11
    4330:	cf 92       	push	r12
    4332:	df 92       	push	r13
    4334:	ef 92       	push	r14
    4336:	ff 92       	push	r15
    4338:	0f 93       	push	r16
    433a:	1f 93       	push	r17
    433c:	cf 93       	push	r28
    433e:	df 93       	push	r29
    4340:	3c 01       	movw	r6, r24
    4342:	7b 01       	movw	r14, r22
    4344:	1a 01       	movw	r2, r20
    4346:	0e 94 06 25 	call	0x4a0c	; 0x4a0c <fgetc>
    434a:	ec 01       	movw	r28, r24
    434c:	8b 32       	cpi	r24, 0x2B	; 43
    434e:	39 f0       	breq	.+14     	; 0x435e <conv_flt+0x40>
    4350:	8d 32       	cpi	r24, 0x2D	; 45
    4352:	11 f0       	breq	.+4      	; 0x4358 <conv_flt+0x3a>
    4354:	55 24       	eor	r5, r5
    4356:	11 c0       	rjmp	.+34     	; 0x437a <conv_flt+0x5c>
    4358:	b0 e8       	ldi	r27, 0x80	; 128
    435a:	5b 2e       	mov	r5, r27
    435c:	01 c0       	rjmp	.+2      	; 0x4360 <conv_flt+0x42>
    435e:	55 24       	eor	r5, r5
    4360:	08 94       	sec
    4362:	e1 08       	sbc	r14, r1
    4364:	f1 08       	sbc	r15, r1
    4366:	e1 14       	cp	r14, r1
    4368:	f1 04       	cpc	r15, r1
    436a:	09 f4       	brne	.+2      	; 0x436e <conv_flt+0x50>
    436c:	18 c1       	rjmp	.+560    	; 0x459e <conv_flt+0x280>
    436e:	c3 01       	movw	r24, r6
    4370:	0e 94 06 25 	call	0x4a0c	; 0x4a0c <fgetc>
    4374:	ec 01       	movw	r28, r24
    4376:	97 fd       	sbrc	r25, 7
    4378:	12 c1       	rjmp	.+548    	; 0x459e <conv_flt+0x280>
    437a:	ce 01       	movw	r24, r28
    437c:	0e 94 7e 28 	call	0x50fc	; 0x50fc <tolower>
    4380:	89 36       	cpi	r24, 0x69	; 105
    4382:	91 05       	cpc	r25, r1
    4384:	21 f0       	breq	.+8      	; 0x438e <conv_flt+0x70>
    4386:	8e 36       	cpi	r24, 0x6E	; 110
    4388:	91 05       	cpc	r25, r1
    438a:	99 f5       	brne	.+102    	; 0x43f2 <conv_flt+0xd4>
    438c:	1d c0       	rjmp	.+58     	; 0x43c8 <conv_flt+0xaa>
    438e:	01 e7       	ldi	r16, 0x71	; 113
    4390:	10 e0       	ldi	r17, 0x00	; 0
    4392:	1c c0       	rjmp	.+56     	; 0x43cc <conv_flt+0xae>
    4394:	08 94       	sec
    4396:	e1 08       	sbc	r14, r1
    4398:	f1 08       	sbc	r15, r1
    439a:	e1 14       	cp	r14, r1
    439c:	f1 04       	cpc	r15, r1
    439e:	71 f0       	breq	.+28     	; 0x43bc <conv_flt+0x9e>
    43a0:	c3 01       	movw	r24, r6
    43a2:	0e 94 06 25 	call	0x4a0c	; 0x4a0c <fgetc>
    43a6:	ec 01       	movw	r28, r24
    43a8:	97 fd       	sbrc	r25, 7
    43aa:	08 c0       	rjmp	.+16     	; 0x43bc <conv_flt+0x9e>
    43ac:	0e 94 7e 28 	call	0x50fc	; 0x50fc <tolower>
    43b0:	d8 16       	cp	r13, r24
    43b2:	61 f0       	breq	.+24     	; 0x43cc <conv_flt+0xae>
    43b4:	ce 01       	movw	r24, r28
    43b6:	b3 01       	movw	r22, r6
    43b8:	0e 94 74 25 	call	0x4ae8	; 0x4ae8 <ungetc>
    43bc:	20 e0       	ldi	r18, 0x00	; 0
    43be:	04 37       	cpi	r16, 0x74	; 116
    43c0:	12 07       	cpc	r17, r18
    43c2:	09 f0       	breq	.+2      	; 0x43c6 <conv_flt+0xa8>
    43c4:	ec c0       	rjmp	.+472    	; 0x459e <conv_flt+0x280>
    43c6:	08 c0       	rjmp	.+16     	; 0x43d8 <conv_flt+0xba>
    43c8:	0e e6       	ldi	r16, 0x6E	; 110
    43ca:	10 e0       	ldi	r17, 0x00	; 0
    43cc:	f8 01       	movw	r30, r16
    43ce:	0f 5f       	subi	r16, 0xFF	; 255
    43d0:	1f 4f       	sbci	r17, 0xFF	; 255
    43d2:	d4 90       	lpm	r13, Z+
    43d4:	dd 20       	and	r13, r13
    43d6:	f1 f6       	brne	.-68     	; 0x4394 <conv_flt+0x76>
    43d8:	01 57       	subi	r16, 0x71	; 113
    43da:	10 40       	sbci	r17, 0x00	; 0
    43dc:	29 f0       	breq	.+10     	; 0x43e8 <conv_flt+0xca>
    43de:	80 e0       	ldi	r24, 0x00	; 0
    43e0:	90 e0       	ldi	r25, 0x00	; 0
    43e2:	a0 e8       	ldi	r26, 0x80	; 128
    43e4:	bf e7       	ldi	r27, 0x7F	; 127
    43e6:	cf c0       	rjmp	.+414    	; 0x4586 <conv_flt+0x268>
    43e8:	80 e0       	ldi	r24, 0x00	; 0
    43ea:	90 e0       	ldi	r25, 0x00	; 0
    43ec:	a0 ec       	ldi	r26, 0xC0	; 192
    43ee:	bf e7       	ldi	r27, 0x7F	; 127
    43f0:	ca c0       	rjmp	.+404    	; 0x4586 <conv_flt+0x268>
    43f2:	cc 24       	eor	r12, r12
    43f4:	dd 24       	eor	r13, r13
    43f6:	88 24       	eor	r8, r8
    43f8:	99 24       	eor	r9, r9
    43fa:	54 01       	movw	r10, r8
    43fc:	ae 01       	movw	r20, r28
    43fe:	40 53       	subi	r20, 0x30	; 48
    4400:	24 2f       	mov	r18, r20
    4402:	4a 30       	cpi	r20, 0x0A	; 10
    4404:	38 f5       	brcc	.+78     	; 0x4454 <conv_flt+0x136>
    4406:	52 e0       	ldi	r21, 0x02	; 2
    4408:	55 2a       	or	r5, r21
    440a:	85 2d       	mov	r24, r5
    440c:	90 e0       	ldi	r25, 0x00	; 0
    440e:	ac 01       	movw	r20, r24
    4410:	48 70       	andi	r20, 0x08	; 8
    4412:	50 70       	andi	r21, 0x00	; 0
    4414:	52 fe       	sbrs	r5, 2
    4416:	06 c0       	rjmp	.+12     	; 0x4424 <conv_flt+0x106>
    4418:	45 2b       	or	r20, r21
    441a:	11 f5       	brne	.+68     	; 0x4460 <conv_flt+0x142>
    441c:	08 94       	sec
    441e:	c1 1c       	adc	r12, r1
    4420:	d1 1c       	adc	r13, r1
    4422:	1e c0       	rjmp	.+60     	; 0x4460 <conv_flt+0x142>
    4424:	45 2b       	or	r20, r21
    4426:	19 f0       	breq	.+6      	; 0x442e <conv_flt+0x110>
    4428:	08 94       	sec
    442a:	c1 08       	sbc	r12, r1
    442c:	d1 08       	sbc	r13, r1
    442e:	c5 01       	movw	r24, r10
    4430:	b4 01       	movw	r22, r8
    4432:	40 e2       	ldi	r20, 0x20	; 32
    4434:	0e 94 08 20 	call	0x4010	; 0x4010 <mulacc>
    4438:	4b 01       	movw	r8, r22
    443a:	5c 01       	movw	r10, r24
    443c:	88 e9       	ldi	r24, 0x98	; 152
    443e:	88 16       	cp	r8, r24
    4440:	89 e9       	ldi	r24, 0x99	; 153
    4442:	98 06       	cpc	r9, r24
    4444:	89 e9       	ldi	r24, 0x99	; 153
    4446:	a8 06       	cpc	r10, r24
    4448:	89 e1       	ldi	r24, 0x19	; 25
    444a:	b8 06       	cpc	r11, r24
    444c:	48 f0       	brcs	.+18     	; 0x4460 <conv_flt+0x142>
    444e:	94 e0       	ldi	r25, 0x04	; 4
    4450:	59 2a       	or	r5, r25
    4452:	06 c0       	rjmp	.+12     	; 0x4460 <conv_flt+0x142>
    4454:	4e 3f       	cpi	r20, 0xFE	; 254
    4456:	81 f4       	brne	.+32     	; 0x4478 <conv_flt+0x15a>
    4458:	53 fc       	sbrc	r5, 3
    445a:	0e c0       	rjmp	.+28     	; 0x4478 <conv_flt+0x15a>
    445c:	e8 e0       	ldi	r30, 0x08	; 8
    445e:	5e 2a       	or	r5, r30
    4460:	08 94       	sec
    4462:	e1 08       	sbc	r14, r1
    4464:	f1 08       	sbc	r15, r1
    4466:	e1 14       	cp	r14, r1
    4468:	f1 04       	cpc	r15, r1
    446a:	31 f0       	breq	.+12     	; 0x4478 <conv_flt+0x15a>
    446c:	c3 01       	movw	r24, r6
    446e:	0e 94 06 25 	call	0x4a0c	; 0x4a0c <fgetc>
    4472:	ec 01       	movw	r28, r24
    4474:	97 ff       	sbrs	r25, 7
    4476:	c2 cf       	rjmp	.-124    	; 0x43fc <conv_flt+0xde>
    4478:	51 fe       	sbrs	r5, 1
    447a:	91 c0       	rjmp	.+290    	; 0x459e <conv_flt+0x280>
    447c:	c5 36       	cpi	r28, 0x65	; 101
    447e:	19 f0       	breq	.+6      	; 0x4486 <conv_flt+0x168>
    4480:	c5 34       	cpi	r28, 0x45	; 69
    4482:	09 f0       	breq	.+2      	; 0x4486 <conv_flt+0x168>
    4484:	46 c0       	rjmp	.+140    	; 0x4512 <conv_flt+0x1f4>
    4486:	08 94       	sec
    4488:	e1 08       	sbc	r14, r1
    448a:	f1 08       	sbc	r15, r1
    448c:	e1 14       	cp	r14, r1
    448e:	f1 04       	cpc	r15, r1
    4490:	09 f4       	brne	.+2      	; 0x4494 <conv_flt+0x176>
    4492:	85 c0       	rjmp	.+266    	; 0x459e <conv_flt+0x280>
    4494:	c3 01       	movw	r24, r6
    4496:	0e 94 06 25 	call	0x4a0c	; 0x4a0c <fgetc>
    449a:	ec 01       	movw	r28, r24
    449c:	97 fd       	sbrc	r25, 7
    449e:	7f c0       	rjmp	.+254    	; 0x459e <conv_flt+0x280>
    44a0:	8b 32       	cpi	r24, 0x2B	; 43
    44a2:	21 f0       	breq	.+8      	; 0x44ac <conv_flt+0x18e>
    44a4:	8d 32       	cpi	r24, 0x2D	; 45
    44a6:	69 f4       	brne	.+26     	; 0x44c2 <conv_flt+0x1a4>
    44a8:	f0 e1       	ldi	r31, 0x10	; 16
    44aa:	5f 2a       	or	r5, r31
    44ac:	08 94       	sec
    44ae:	e1 08       	sbc	r14, r1
    44b0:	f1 08       	sbc	r15, r1
    44b2:	e1 14       	cp	r14, r1
    44b4:	f1 04       	cpc	r15, r1
    44b6:	09 f4       	brne	.+2      	; 0x44ba <conv_flt+0x19c>
    44b8:	72 c0       	rjmp	.+228    	; 0x459e <conv_flt+0x280>
    44ba:	c3 01       	movw	r24, r6
    44bc:	0e 94 06 25 	call	0x4a0c	; 0x4a0c <fgetc>
    44c0:	ec 01       	movw	r28, r24
    44c2:	ce 01       	movw	r24, r28
    44c4:	c0 97       	sbiw	r24, 0x30	; 48
    44c6:	0a 97       	sbiw	r24, 0x0a	; 10
    44c8:	08 f0       	brcs	.+2      	; 0x44cc <conv_flt+0x1ae>
    44ca:	69 c0       	rjmp	.+210    	; 0x459e <conv_flt+0x280>
    44cc:	00 e0       	ldi	r16, 0x00	; 0
    44ce:	10 e0       	ldi	r17, 0x00	; 0
    44d0:	b8 01       	movw	r22, r16
    44d2:	88 27       	eor	r24, r24
    44d4:	77 fd       	sbrc	r23, 7
    44d6:	80 95       	com	r24
    44d8:	98 2f       	mov	r25, r24
    44da:	ae 01       	movw	r20, r28
    44dc:	40 53       	subi	r20, 0x30	; 48
    44de:	24 2f       	mov	r18, r20
    44e0:	40 e2       	ldi	r20, 0x20	; 32
    44e2:	0e 94 08 20 	call	0x4010	; 0x4010 <mulacc>
    44e6:	8b 01       	movw	r16, r22
    44e8:	08 94       	sec
    44ea:	e1 08       	sbc	r14, r1
    44ec:	f1 08       	sbc	r15, r1
    44ee:	e1 14       	cp	r14, r1
    44f0:	f1 04       	cpc	r15, r1
    44f2:	39 f0       	breq	.+14     	; 0x4502 <conv_flt+0x1e4>
    44f4:	c3 01       	movw	r24, r6
    44f6:	0e 94 06 25 	call	0x4a0c	; 0x4a0c <fgetc>
    44fa:	ec 01       	movw	r28, r24
    44fc:	c0 97       	sbiw	r24, 0x30	; 48
    44fe:	0a 97       	sbiw	r24, 0x0a	; 10
    4500:	38 f3       	brcs	.-50     	; 0x44d0 <conv_flt+0x1b2>
    4502:	b8 01       	movw	r22, r16
    4504:	54 fe       	sbrs	r5, 4
    4506:	03 c0       	rjmp	.+6      	; 0x450e <conv_flt+0x1f0>
    4508:	70 95       	com	r23
    450a:	61 95       	neg	r22
    450c:	7f 4f       	sbci	r23, 0xFF	; 255
    450e:	c6 0e       	add	r12, r22
    4510:	d7 1e       	adc	r13, r23
    4512:	ef 28       	or	r14, r15
    4514:	31 f0       	breq	.+12     	; 0x4522 <conv_flt+0x204>
    4516:	d7 fd       	sbrc	r29, 7
    4518:	04 c0       	rjmp	.+8      	; 0x4522 <conv_flt+0x204>
    451a:	ce 01       	movw	r24, r28
    451c:	b3 01       	movw	r22, r6
    451e:	0e 94 74 25 	call	0x4ae8	; 0x4ae8 <ungetc>
    4522:	c5 01       	movw	r24, r10
    4524:	b4 01       	movw	r22, r8
    4526:	0e 94 e9 26 	call	0x4dd2	; 0x4dd2 <__floatunsisf>
    452a:	d7 fe       	sbrs	r13, 7
    452c:	0d c0       	rjmp	.+26     	; 0x4548 <conv_flt+0x22a>
    452e:	ad e8       	ldi	r26, 0x8D	; 141
    4530:	ea 2e       	mov	r14, r26
    4532:	a0 e0       	ldi	r26, 0x00	; 0
    4534:	fa 2e       	mov	r15, r26
    4536:	d0 94       	com	r13
    4538:	c1 94       	neg	r12
    453a:	d1 08       	sbc	r13, r1
    453c:	d3 94       	inc	r13
    453e:	c0 e2       	ldi	r28, 0x20	; 32
    4540:	d0 e0       	ldi	r29, 0x00	; 0
    4542:	00 e0       	ldi	r16, 0x00	; 0
    4544:	10 e0       	ldi	r17, 0x00	; 0
    4546:	0e c0       	rjmp	.+28     	; 0x4564 <conv_flt+0x246>
    4548:	f5 ea       	ldi	r31, 0xA5	; 165
    454a:	ef 2e       	mov	r14, r31
    454c:	f0 e0       	ldi	r31, 0x00	; 0
    454e:	ff 2e       	mov	r15, r31
    4550:	f6 cf       	rjmp	.-20     	; 0x453e <conv_flt+0x220>
    4552:	f7 01       	movw	r30, r14
    4554:	25 91       	lpm	r18, Z+
    4556:	35 91       	lpm	r19, Z+
    4558:	45 91       	lpm	r20, Z+
    455a:	54 91       	lpm	r21, Z+
    455c:	0e 94 9f 27 	call	0x4f3e	; 0x4f3e <__mulsf3>
    4560:	cc 1a       	sub	r12, r28
    4562:	dd 0a       	sbc	r13, r29
    4564:	cc 16       	cp	r12, r28
    4566:	dd 06       	cpc	r13, r29
    4568:	a0 f7       	brcc	.-24     	; 0x4552 <conv_flt+0x234>
    456a:	d6 95       	lsr	r29
    456c:	c7 95       	ror	r28
    456e:	0f 5f       	subi	r16, 0xFF	; 255
    4570:	1f 4f       	sbci	r17, 0xFF	; 255
    4572:	06 30       	cpi	r16, 0x06	; 6
    4574:	11 05       	cpc	r17, r1
    4576:	29 f0       	breq	.+10     	; 0x4582 <conv_flt+0x264>
    4578:	ec ef       	ldi	r30, 0xFC	; 252
    457a:	ff ef       	ldi	r31, 0xFF	; 255
    457c:	ee 0e       	add	r14, r30
    457e:	ff 1e       	adc	r15, r31
    4580:	f1 cf       	rjmp	.-30     	; 0x4564 <conv_flt+0x246>
    4582:	dc 01       	movw	r26, r24
    4584:	cb 01       	movw	r24, r22
    4586:	57 fc       	sbrc	r5, 7
    4588:	b0 58       	subi	r27, 0x80	; 128
    458a:	21 14       	cp	r2, r1
    458c:	31 04       	cpc	r3, r1
    458e:	29 f0       	breq	.+10     	; 0x459a <conv_flt+0x27c>
    4590:	f1 01       	movw	r30, r2
    4592:	80 83       	st	Z, r24
    4594:	91 83       	std	Z+1, r25	; 0x01
    4596:	a2 83       	std	Z+2, r26	; 0x02
    4598:	b3 83       	std	Z+3, r27	; 0x03
    459a:	81 e0       	ldi	r24, 0x01	; 1
    459c:	01 c0       	rjmp	.+2      	; 0x45a0 <conv_flt+0x282>
    459e:	80 e0       	ldi	r24, 0x00	; 0
    45a0:	df 91       	pop	r29
    45a2:	cf 91       	pop	r28
    45a4:	1f 91       	pop	r17
    45a6:	0f 91       	pop	r16
    45a8:	ff 90       	pop	r15
    45aa:	ef 90       	pop	r14
    45ac:	df 90       	pop	r13
    45ae:	cf 90       	pop	r12
    45b0:	bf 90       	pop	r11
    45b2:	af 90       	pop	r10
    45b4:	9f 90       	pop	r9
    45b6:	8f 90       	pop	r8
    45b8:	7f 90       	pop	r7
    45ba:	6f 90       	pop	r6
    45bc:	5f 90       	pop	r5
    45be:	3f 90       	pop	r3
    45c0:	2f 90       	pop	r2
    45c2:	08 95       	ret

000045c4 <vfscanf>:
    45c4:	a0 e0       	ldi	r26, 0x00	; 0
    45c6:	b0 e0       	ldi	r27, 0x00	; 0
    45c8:	e8 ee       	ldi	r30, 0xE8	; 232
    45ca:	f2 e2       	ldi	r31, 0x22	; 34
    45cc:	0c 94 20 28 	jmp	0x5040	; 0x5040 <__prologue_saves__+0x6>
    45d0:	4c 01       	movw	r8, r24
    45d2:	5b 01       	movw	r10, r22
    45d4:	3a 01       	movw	r6, r20
    45d6:	fc 01       	movw	r30, r24
    45d8:	17 82       	std	Z+7, r1	; 0x07
    45da:	16 82       	std	Z+6, r1	; 0x06
    45dc:	55 24       	eor	r5, r5
    45de:	04 c1       	rjmp	.+520    	; 0x47e8 <vfscanf+0x224>
    45e0:	81 2f       	mov	r24, r17
    45e2:	90 e0       	ldi	r25, 0x00	; 0
    45e4:	0e 94 76 28 	call	0x50ec	; 0x50ec <isspace>
    45e8:	89 2b       	or	r24, r25
    45ea:	21 f0       	breq	.+8      	; 0x45f4 <vfscanf+0x30>
    45ec:	c4 01       	movw	r24, r8
    45ee:	0e 94 36 20 	call	0x406c	; 0x406c <skip_spaces>
    45f2:	fa c0       	rjmp	.+500    	; 0x47e8 <vfscanf+0x224>
    45f4:	15 32       	cpi	r17, 0x25	; 37
    45f6:	49 f4       	brne	.+18     	; 0x460a <vfscanf+0x46>
    45f8:	f5 01       	movw	r30, r10
    45fa:	f3 fc       	sbrc	r15, 3
    45fc:	65 91       	lpm	r22, Z+
    45fe:	f3 fe       	sbrs	r15, 3
    4600:	61 91       	ld	r22, Z+
    4602:	5f 01       	movw	r10, r30
    4604:	65 32       	cpi	r22, 0x25	; 37
    4606:	69 f4       	brne	.+26     	; 0x4622 <vfscanf+0x5e>
    4608:	15 e2       	ldi	r17, 0x25	; 37
    460a:	c4 01       	movw	r24, r8
    460c:	0e 94 06 25 	call	0x4a0c	; 0x4a0c <fgetc>
    4610:	97 fd       	sbrc	r25, 7
    4612:	f6 c0       	rjmp	.+492    	; 0x4800 <vfscanf+0x23c>
    4614:	18 17       	cp	r17, r24
    4616:	09 f4       	brne	.+2      	; 0x461a <vfscanf+0x56>
    4618:	e7 c0       	rjmp	.+462    	; 0x47e8 <vfscanf+0x224>
    461a:	b4 01       	movw	r22, r8
    461c:	0e 94 74 25 	call	0x4ae8	; 0x4ae8 <ungetc>
    4620:	f4 c0       	rjmp	.+488    	; 0x480a <vfscanf+0x246>
    4622:	6a 32       	cpi	r22, 0x2A	; 42
    4624:	19 f0       	breq	.+6      	; 0x462c <vfscanf+0x68>
    4626:	16 2f       	mov	r17, r22
    4628:	00 e0       	ldi	r16, 0x00	; 0
    462a:	06 c0       	rjmp	.+12     	; 0x4638 <vfscanf+0x74>
    462c:	f3 fc       	sbrc	r15, 3
    462e:	15 91       	lpm	r17, Z+
    4630:	f3 fe       	sbrs	r15, 3
    4632:	11 91       	ld	r17, Z+
    4634:	5f 01       	movw	r10, r30
    4636:	01 e0       	ldi	r16, 0x01	; 1
    4638:	cc 24       	eor	r12, r12
    463a:	dd 24       	eor	r13, r13
    463c:	0e c0       	rjmp	.+28     	; 0x465a <vfscanf+0x96>
    463e:	02 60       	ori	r16, 0x02	; 2
    4640:	b6 01       	movw	r22, r12
    4642:	80 e0       	ldi	r24, 0x00	; 0
    4644:	90 e0       	ldi	r25, 0x00	; 0
    4646:	40 e2       	ldi	r20, 0x20	; 32
    4648:	0e 94 08 20 	call	0x4010	; 0x4010 <mulacc>
    464c:	6b 01       	movw	r12, r22
    464e:	f5 01       	movw	r30, r10
    4650:	f3 fc       	sbrc	r15, 3
    4652:	15 91       	lpm	r17, Z+
    4654:	f3 fe       	sbrs	r15, 3
    4656:	11 91       	ld	r17, Z+
    4658:	5f 01       	movw	r10, r30
    465a:	21 2f       	mov	r18, r17
    465c:	20 53       	subi	r18, 0x30	; 48
    465e:	2a 30       	cpi	r18, 0x0A	; 10
    4660:	70 f3       	brcs	.-36     	; 0x463e <vfscanf+0x7a>
    4662:	01 fd       	sbrc	r16, 1
    4664:	04 c0       	rjmp	.+8      	; 0x466e <vfscanf+0xaa>
    4666:	cc 24       	eor	r12, r12
    4668:	ca 94       	dec	r12
    466a:	dc 2c       	mov	r13, r12
    466c:	04 c0       	rjmp	.+8      	; 0x4676 <vfscanf+0xb2>
    466e:	c1 14       	cp	r12, r1
    4670:	d1 04       	cpc	r13, r1
    4672:	09 f4       	brne	.+2      	; 0x4676 <vfscanf+0xb2>
    4674:	ca c0       	rjmp	.+404    	; 0x480a <vfscanf+0x246>
    4676:	18 36       	cpi	r17, 0x68	; 104
    4678:	21 f0       	breq	.+8      	; 0x4682 <vfscanf+0xbe>
    467a:	1c 36       	cpi	r17, 0x6C	; 108
    467c:	99 f4       	brne	.+38     	; 0x46a4 <vfscanf+0xe0>
    467e:	f5 01       	movw	r30, r10
    4680:	0b c0       	rjmp	.+22     	; 0x4698 <vfscanf+0xd4>
    4682:	f5 01       	movw	r30, r10
    4684:	f3 fc       	sbrc	r15, 3
    4686:	65 91       	lpm	r22, Z+
    4688:	f3 fe       	sbrs	r15, 3
    468a:	61 91       	ld	r22, Z+
    468c:	68 36       	cpi	r22, 0x68	; 104
    468e:	19 f0       	breq	.+6      	; 0x4696 <vfscanf+0xd2>
    4690:	5f 01       	movw	r10, r30
    4692:	16 2f       	mov	r17, r22
    4694:	07 c0       	rjmp	.+14     	; 0x46a4 <vfscanf+0xe0>
    4696:	08 60       	ori	r16, 0x08	; 8
    4698:	04 60       	ori	r16, 0x04	; 4
    469a:	f3 fc       	sbrc	r15, 3
    469c:	15 91       	lpm	r17, Z+
    469e:	f3 fe       	sbrs	r15, 3
    46a0:	11 91       	ld	r17, Z+
    46a2:	5f 01       	movw	r10, r30
    46a4:	11 23       	and	r17, r17
    46a6:	09 f4       	brne	.+2      	; 0x46aa <vfscanf+0xe6>
    46a8:	b0 c0       	rjmp	.+352    	; 0x480a <vfscanf+0x246>
    46aa:	8c e5       	ldi	r24, 0x5C	; 92
    46ac:	90 e0       	ldi	r25, 0x00	; 0
    46ae:	61 2f       	mov	r22, r17
    46b0:	70 e0       	ldi	r23, 0x00	; 0
    46b2:	0e 94 e5 24 	call	0x49ca	; 0x49ca <strchr_P>
    46b6:	89 2b       	or	r24, r25
    46b8:	09 f4       	brne	.+2      	; 0x46bc <vfscanf+0xf8>
    46ba:	a7 c0       	rjmp	.+334    	; 0x480a <vfscanf+0x246>
    46bc:	80 2f       	mov	r24, r16
    46be:	00 ff       	sbrs	r16, 0
    46c0:	03 c0       	rjmp	.+6      	; 0x46c8 <vfscanf+0x104>
    46c2:	ee 24       	eor	r14, r14
    46c4:	ff 24       	eor	r15, r15
    46c6:	07 c0       	rjmp	.+14     	; 0x46d6 <vfscanf+0x112>
    46c8:	f3 01       	movw	r30, r6
    46ca:	e0 80       	ld	r14, Z
    46cc:	f1 80       	ldd	r15, Z+1	; 0x01
    46ce:	22 e0       	ldi	r18, 0x02	; 2
    46d0:	30 e0       	ldi	r19, 0x00	; 0
    46d2:	62 0e       	add	r6, r18
    46d4:	73 1e       	adc	r7, r19
    46d6:	1e 36       	cpi	r17, 0x6E	; 110
    46d8:	51 f4       	brne	.+20     	; 0x46ee <vfscanf+0x12a>
    46da:	f4 01       	movw	r30, r8
    46dc:	46 81       	ldd	r20, Z+6	; 0x06
    46de:	57 81       	ldd	r21, Z+7	; 0x07
    46e0:	60 e0       	ldi	r22, 0x00	; 0
    46e2:	70 e0       	ldi	r23, 0x00	; 0
    46e4:	c7 01       	movw	r24, r14
    46e6:	20 2f       	mov	r18, r16
    46e8:	0e 94 fc 1f 	call	0x3ff8	; 0x3ff8 <putval>
    46ec:	7d c0       	rjmp	.+250    	; 0x47e8 <vfscanf+0x224>
    46ee:	13 36       	cpi	r17, 0x63	; 99
    46f0:	b9 f4       	brne	.+46     	; 0x4720 <vfscanf+0x15c>
    46f2:	81 fd       	sbrc	r24, 1
    46f4:	03 c0       	rjmp	.+6      	; 0x46fc <vfscanf+0x138>
    46f6:	81 e0       	ldi	r24, 0x01	; 1
    46f8:	c8 2e       	mov	r12, r24
    46fa:	d1 2c       	mov	r13, r1
    46fc:	c4 01       	movw	r24, r8
    46fe:	0e 94 06 25 	call	0x4a0c	; 0x4a0c <fgetc>
    4702:	97 fd       	sbrc	r25, 7
    4704:	7d c0       	rjmp	.+250    	; 0x4800 <vfscanf+0x23c>
    4706:	e1 14       	cp	r14, r1
    4708:	f1 04       	cpc	r15, r1
    470a:	19 f0       	breq	.+6      	; 0x4712 <vfscanf+0x14e>
    470c:	f7 01       	movw	r30, r14
    470e:	81 93       	st	Z+, r24
    4710:	7f 01       	movw	r14, r30
    4712:	08 94       	sec
    4714:	c1 08       	sbc	r12, r1
    4716:	d1 08       	sbc	r13, r1
    4718:	c1 14       	cp	r12, r1
    471a:	d1 04       	cpc	r13, r1
    471c:	79 f7       	brne	.-34     	; 0x46fc <vfscanf+0x138>
    471e:	62 c0       	rjmp	.+196    	; 0x47e4 <vfscanf+0x220>
    4720:	1b 35       	cpi	r17, 0x5B	; 91
    4722:	59 f4       	brne	.+22     	; 0x473a <vfscanf+0x176>
    4724:	c4 01       	movw	r24, r8
    4726:	b6 01       	movw	r22, r12
    4728:	a7 01       	movw	r20, r14
    472a:	95 01       	movw	r18, r10
    472c:	0e 94 e3 20 	call	0x41c6	; 0x41c6 <conv_brk>
    4730:	5c 01       	movw	r10, r24
    4732:	00 97       	sbiw	r24, 0x00	; 0
    4734:	09 f0       	breq	.+2      	; 0x4738 <vfscanf+0x174>
    4736:	56 c0       	rjmp	.+172    	; 0x47e4 <vfscanf+0x220>
    4738:	50 c0       	rjmp	.+160    	; 0x47da <vfscanf+0x216>
    473a:	c4 01       	movw	r24, r8
    473c:	0e 94 36 20 	call	0x406c	; 0x406c <skip_spaces>
    4740:	97 fd       	sbrc	r25, 7
    4742:	5e c0       	rjmp	.+188    	; 0x4800 <vfscanf+0x23c>
    4744:	1f 36       	cpi	r17, 0x6F	; 111
    4746:	d1 f1       	breq	.+116    	; 0x47bc <vfscanf+0x1f8>
    4748:	10 37       	cpi	r17, 0x70	; 112
    474a:	38 f4       	brcc	.+14     	; 0x475a <vfscanf+0x196>
    474c:	14 36       	cpi	r17, 0x64	; 100
    474e:	a1 f1       	breq	.+104    	; 0x47b8 <vfscanf+0x1f4>
    4750:	19 36       	cpi	r17, 0x69	; 105
    4752:	a9 f1       	breq	.+106    	; 0x47be <vfscanf+0x1fa>
    4754:	18 35       	cpi	r17, 0x58	; 88
    4756:	d1 f5       	brne	.+116    	; 0x47cc <vfscanf+0x208>
    4758:	2d c0       	rjmp	.+90     	; 0x47b4 <vfscanf+0x1f0>
    475a:	13 37       	cpi	r17, 0x73	; 115
    475c:	51 f0       	breq	.+20     	; 0x4772 <vfscanf+0x1ae>
    475e:	14 37       	cpi	r17, 0x74	; 116
    4760:	18 f4       	brcc	.+6      	; 0x4768 <vfscanf+0x1a4>
    4762:	10 37       	cpi	r17, 0x70	; 112
    4764:	99 f5       	brne	.+102    	; 0x47cc <vfscanf+0x208>
    4766:	26 c0       	rjmp	.+76     	; 0x47b4 <vfscanf+0x1f0>
    4768:	15 37       	cpi	r17, 0x75	; 117
    476a:	31 f1       	breq	.+76     	; 0x47b8 <vfscanf+0x1f4>
    476c:	18 37       	cpi	r17, 0x78	; 120
    476e:	71 f5       	brne	.+92     	; 0x47cc <vfscanf+0x208>
    4770:	21 c0       	rjmp	.+66     	; 0x47b4 <vfscanf+0x1f0>
    4772:	c4 01       	movw	r24, r8
    4774:	0e 94 06 25 	call	0x4a0c	; 0x4a0c <fgetc>
    4778:	ec 01       	movw	r28, r24
    477a:	97 fd       	sbrc	r25, 7
    477c:	15 c0       	rjmp	.+42     	; 0x47a8 <vfscanf+0x1e4>
    477e:	0e 94 76 28 	call	0x50ec	; 0x50ec <isspace>
    4782:	89 2b       	or	r24, r25
    4784:	29 f0       	breq	.+10     	; 0x4790 <vfscanf+0x1cc>
    4786:	ce 01       	movw	r24, r28
    4788:	b4 01       	movw	r22, r8
    478a:	0e 94 74 25 	call	0x4ae8	; 0x4ae8 <ungetc>
    478e:	0c c0       	rjmp	.+24     	; 0x47a8 <vfscanf+0x1e4>
    4790:	e1 14       	cp	r14, r1
    4792:	f1 04       	cpc	r15, r1
    4794:	19 f0       	breq	.+6      	; 0x479c <vfscanf+0x1d8>
    4796:	f7 01       	movw	r30, r14
    4798:	c1 93       	st	Z+, r28
    479a:	7f 01       	movw	r14, r30
    479c:	08 94       	sec
    479e:	c1 08       	sbc	r12, r1
    47a0:	d1 08       	sbc	r13, r1
    47a2:	c1 14       	cp	r12, r1
    47a4:	d1 04       	cpc	r13, r1
    47a6:	29 f7       	brne	.-54     	; 0x4772 <vfscanf+0x1ae>
    47a8:	e1 14       	cp	r14, r1
    47aa:	f1 04       	cpc	r15, r1
    47ac:	d9 f0       	breq	.+54     	; 0x47e4 <vfscanf+0x220>
    47ae:	f7 01       	movw	r30, r14
    47b0:	10 82       	st	Z, r1
    47b2:	18 c0       	rjmp	.+48     	; 0x47e4 <vfscanf+0x220>
    47b4:	00 64       	ori	r16, 0x40	; 64
    47b6:	03 c0       	rjmp	.+6      	; 0x47be <vfscanf+0x1fa>
    47b8:	00 62       	ori	r16, 0x20	; 32
    47ba:	01 c0       	rjmp	.+2      	; 0x47be <vfscanf+0x1fa>
    47bc:	00 61       	ori	r16, 0x10	; 16
    47be:	c4 01       	movw	r24, r8
    47c0:	b6 01       	movw	r22, r12
    47c2:	a7 01       	movw	r20, r14
    47c4:	20 2f       	mov	r18, r16
    47c6:	0e 94 4f 20 	call	0x409e	; 0x409e <conv_int>
    47ca:	05 c0       	rjmp	.+10     	; 0x47d6 <vfscanf+0x212>
    47cc:	c4 01       	movw	r24, r8
    47ce:	b6 01       	movw	r22, r12
    47d0:	a7 01       	movw	r20, r14
    47d2:	0e 94 8f 21 	call	0x431e	; 0x431e <conv_flt>
    47d6:	88 23       	and	r24, r24
    47d8:	29 f4       	brne	.+10     	; 0x47e4 <vfscanf+0x220>
    47da:	f4 01       	movw	r30, r8
    47dc:	83 81       	ldd	r24, Z+3	; 0x03
    47de:	80 73       	andi	r24, 0x30	; 48
    47e0:	79 f4       	brne	.+30     	; 0x4800 <vfscanf+0x23c>
    47e2:	13 c0       	rjmp	.+38     	; 0x480a <vfscanf+0x246>
    47e4:	00 ff       	sbrs	r16, 0
    47e6:	53 94       	inc	r5
    47e8:	f4 01       	movw	r30, r8
    47ea:	f3 80       	ldd	r15, Z+3	; 0x03
    47ec:	f5 01       	movw	r30, r10
    47ee:	f3 fc       	sbrc	r15, 3
    47f0:	15 91       	lpm	r17, Z+
    47f2:	f3 fe       	sbrs	r15, 3
    47f4:	11 91       	ld	r17, Z+
    47f6:	5f 01       	movw	r10, r30
    47f8:	11 23       	and	r17, r17
    47fa:	09 f0       	breq	.+2      	; 0x47fe <vfscanf+0x23a>
    47fc:	f1 ce       	rjmp	.-542    	; 0x45e0 <vfscanf+0x1c>
    47fe:	05 c0       	rjmp	.+10     	; 0x480a <vfscanf+0x246>
    4800:	55 20       	and	r5, r5
    4802:	19 f4       	brne	.+6      	; 0x480a <vfscanf+0x246>
    4804:	2f ef       	ldi	r18, 0xFF	; 255
    4806:	3f ef       	ldi	r19, 0xFF	; 255
    4808:	02 c0       	rjmp	.+4      	; 0x480e <vfscanf+0x24a>
    480a:	25 2d       	mov	r18, r5
    480c:	30 e0       	ldi	r19, 0x00	; 0
    480e:	c9 01       	movw	r24, r18
    4810:	cd b7       	in	r28, 0x3d	; 61
    4812:	de b7       	in	r29, 0x3e	; 62
    4814:	ef e0       	ldi	r30, 0x0F	; 15
    4816:	0c 94 3c 28 	jmp	0x5078	; 0x5078 <__epilogue_restores__+0x6>

0000481a <__ftoa_engine>:
    481a:	28 30       	cpi	r18, 0x08	; 8
    481c:	08 f0       	brcs	.+2      	; 0x4820 <__ftoa_engine+0x6>
    481e:	27 e0       	ldi	r18, 0x07	; 7
    4820:	33 27       	eor	r19, r19
    4822:	da 01       	movw	r26, r20
    4824:	99 0f       	add	r25, r25
    4826:	31 1d       	adc	r19, r1
    4828:	87 fd       	sbrc	r24, 7
    482a:	91 60       	ori	r25, 0x01	; 1
    482c:	00 96       	adiw	r24, 0x00	; 0
    482e:	61 05       	cpc	r22, r1
    4830:	71 05       	cpc	r23, r1
    4832:	39 f4       	brne	.+14     	; 0x4842 <__ftoa_engine+0x28>
    4834:	32 60       	ori	r19, 0x02	; 2
    4836:	2e 5f       	subi	r18, 0xFE	; 254
    4838:	3d 93       	st	X+, r19
    483a:	30 e3       	ldi	r19, 0x30	; 48
    483c:	2a 95       	dec	r18
    483e:	e1 f7       	brne	.-8      	; 0x4838 <__ftoa_engine+0x1e>
    4840:	08 95       	ret
    4842:	9f 3f       	cpi	r25, 0xFF	; 255
    4844:	30 f0       	brcs	.+12     	; 0x4852 <__ftoa_engine+0x38>
    4846:	80 38       	cpi	r24, 0x80	; 128
    4848:	71 05       	cpc	r23, r1
    484a:	61 05       	cpc	r22, r1
    484c:	09 f0       	breq	.+2      	; 0x4850 <__ftoa_engine+0x36>
    484e:	3c 5f       	subi	r19, 0xFC	; 252
    4850:	3c 5f       	subi	r19, 0xFC	; 252
    4852:	3d 93       	st	X+, r19
    4854:	91 30       	cpi	r25, 0x01	; 1
    4856:	08 f0       	brcs	.+2      	; 0x485a <__ftoa_engine+0x40>
    4858:	80 68       	ori	r24, 0x80	; 128
    485a:	91 1d       	adc	r25, r1
    485c:	df 93       	push	r29
    485e:	cf 93       	push	r28
    4860:	1f 93       	push	r17
    4862:	0f 93       	push	r16
    4864:	ff 92       	push	r15
    4866:	ef 92       	push	r14
    4868:	19 2f       	mov	r17, r25
    486a:	98 7f       	andi	r25, 0xF8	; 248
    486c:	96 95       	lsr	r25
    486e:	e9 2f       	mov	r30, r25
    4870:	96 95       	lsr	r25
    4872:	96 95       	lsr	r25
    4874:	e9 0f       	add	r30, r25
    4876:	ff 27       	eor	r31, r31
    4878:	ed 5f       	subi	r30, 0xFD	; 253
    487a:	fe 4f       	sbci	r31, 0xFE	; 254
    487c:	99 27       	eor	r25, r25
    487e:	33 27       	eor	r19, r19
    4880:	ee 24       	eor	r14, r14
    4882:	ff 24       	eor	r15, r15
    4884:	a7 01       	movw	r20, r14
    4886:	e7 01       	movw	r28, r14
    4888:	05 90       	lpm	r0, Z+
    488a:	08 94       	sec
    488c:	07 94       	ror	r0
    488e:	28 f4       	brcc	.+10     	; 0x489a <__ftoa_engine+0x80>
    4890:	36 0f       	add	r19, r22
    4892:	e7 1e       	adc	r14, r23
    4894:	f8 1e       	adc	r15, r24
    4896:	49 1f       	adc	r20, r25
    4898:	51 1d       	adc	r21, r1
    489a:	66 0f       	add	r22, r22
    489c:	77 1f       	adc	r23, r23
    489e:	88 1f       	adc	r24, r24
    48a0:	99 1f       	adc	r25, r25
    48a2:	06 94       	lsr	r0
    48a4:	a1 f7       	brne	.-24     	; 0x488e <__ftoa_engine+0x74>
    48a6:	05 90       	lpm	r0, Z+
    48a8:	07 94       	ror	r0
    48aa:	28 f4       	brcc	.+10     	; 0x48b6 <__ftoa_engine+0x9c>
    48ac:	e7 0e       	add	r14, r23
    48ae:	f8 1e       	adc	r15, r24
    48b0:	49 1f       	adc	r20, r25
    48b2:	56 1f       	adc	r21, r22
    48b4:	c1 1d       	adc	r28, r1
    48b6:	77 0f       	add	r23, r23
    48b8:	88 1f       	adc	r24, r24
    48ba:	99 1f       	adc	r25, r25
    48bc:	66 1f       	adc	r22, r22
    48be:	06 94       	lsr	r0
    48c0:	a1 f7       	brne	.-24     	; 0x48aa <__ftoa_engine+0x90>
    48c2:	05 90       	lpm	r0, Z+
    48c4:	07 94       	ror	r0
    48c6:	28 f4       	brcc	.+10     	; 0x48d2 <__ftoa_engine+0xb8>
    48c8:	f8 0e       	add	r15, r24
    48ca:	49 1f       	adc	r20, r25
    48cc:	56 1f       	adc	r21, r22
    48ce:	c7 1f       	adc	r28, r23
    48d0:	d1 1d       	adc	r29, r1
    48d2:	88 0f       	add	r24, r24
    48d4:	99 1f       	adc	r25, r25
    48d6:	66 1f       	adc	r22, r22
    48d8:	77 1f       	adc	r23, r23
    48da:	06 94       	lsr	r0
    48dc:	a1 f7       	brne	.-24     	; 0x48c6 <__ftoa_engine+0xac>
    48de:	05 90       	lpm	r0, Z+
    48e0:	07 94       	ror	r0
    48e2:	20 f4       	brcc	.+8      	; 0x48ec <__ftoa_engine+0xd2>
    48e4:	49 0f       	add	r20, r25
    48e6:	56 1f       	adc	r21, r22
    48e8:	c7 1f       	adc	r28, r23
    48ea:	d8 1f       	adc	r29, r24
    48ec:	99 0f       	add	r25, r25
    48ee:	66 1f       	adc	r22, r22
    48f0:	77 1f       	adc	r23, r23
    48f2:	88 1f       	adc	r24, r24
    48f4:	06 94       	lsr	r0
    48f6:	a9 f7       	brne	.-22     	; 0x48e2 <__ftoa_engine+0xc8>
    48f8:	84 91       	lpm	r24, Z+
    48fa:	10 95       	com	r17
    48fc:	17 70       	andi	r17, 0x07	; 7
    48fe:	41 f0       	breq	.+16     	; 0x4910 <__ftoa_engine+0xf6>
    4900:	d6 95       	lsr	r29
    4902:	c7 95       	ror	r28
    4904:	57 95       	ror	r21
    4906:	47 95       	ror	r20
    4908:	f7 94       	ror	r15
    490a:	e7 94       	ror	r14
    490c:	1a 95       	dec	r17
    490e:	c1 f7       	brne	.-16     	; 0x4900 <__ftoa_engine+0xe6>
    4910:	e9 ea       	ldi	r30, 0xA9	; 169
    4912:	f0 e0       	ldi	r31, 0x00	; 0
    4914:	68 94       	set
    4916:	15 90       	lpm	r1, Z+
    4918:	15 91       	lpm	r17, Z+
    491a:	35 91       	lpm	r19, Z+
    491c:	65 91       	lpm	r22, Z+
    491e:	95 91       	lpm	r25, Z+
    4920:	05 90       	lpm	r0, Z+
    4922:	7f e2       	ldi	r23, 0x2F	; 47
    4924:	73 95       	inc	r23
    4926:	e1 18       	sub	r14, r1
    4928:	f1 0a       	sbc	r15, r17
    492a:	43 0b       	sbc	r20, r19
    492c:	56 0b       	sbc	r21, r22
    492e:	c9 0b       	sbc	r28, r25
    4930:	d0 09       	sbc	r29, r0
    4932:	c0 f7       	brcc	.-16     	; 0x4924 <__ftoa_engine+0x10a>
    4934:	e1 0c       	add	r14, r1
    4936:	f1 1e       	adc	r15, r17
    4938:	43 1f       	adc	r20, r19
    493a:	56 1f       	adc	r21, r22
    493c:	c9 1f       	adc	r28, r25
    493e:	d0 1d       	adc	r29, r0
    4940:	7e f4       	brtc	.+30     	; 0x4960 <__ftoa_engine+0x146>
    4942:	70 33       	cpi	r23, 0x30	; 48
    4944:	11 f4       	brne	.+4      	; 0x494a <__ftoa_engine+0x130>
    4946:	8a 95       	dec	r24
    4948:	e6 cf       	rjmp	.-52     	; 0x4916 <__ftoa_engine+0xfc>
    494a:	e8 94       	clt
    494c:	01 50       	subi	r16, 0x01	; 1
    494e:	30 f0       	brcs	.+12     	; 0x495c <__ftoa_engine+0x142>
    4950:	08 0f       	add	r16, r24
    4952:	0a f4       	brpl	.+2      	; 0x4956 <__ftoa_engine+0x13c>
    4954:	00 27       	eor	r16, r16
    4956:	02 17       	cp	r16, r18
    4958:	08 f4       	brcc	.+2      	; 0x495c <__ftoa_engine+0x142>
    495a:	20 2f       	mov	r18, r16
    495c:	23 95       	inc	r18
    495e:	02 2f       	mov	r16, r18
    4960:	7a 33       	cpi	r23, 0x3A	; 58
    4962:	28 f0       	brcs	.+10     	; 0x496e <__ftoa_engine+0x154>
    4964:	79 e3       	ldi	r23, 0x39	; 57
    4966:	7d 93       	st	X+, r23
    4968:	2a 95       	dec	r18
    496a:	e9 f7       	brne	.-6      	; 0x4966 <__ftoa_engine+0x14c>
    496c:	10 c0       	rjmp	.+32     	; 0x498e <__ftoa_engine+0x174>
    496e:	7d 93       	st	X+, r23
    4970:	2a 95       	dec	r18
    4972:	89 f6       	brne	.-94     	; 0x4916 <__ftoa_engine+0xfc>
    4974:	06 94       	lsr	r0
    4976:	97 95       	ror	r25
    4978:	67 95       	ror	r22
    497a:	37 95       	ror	r19
    497c:	17 95       	ror	r17
    497e:	17 94       	ror	r1
    4980:	e1 18       	sub	r14, r1
    4982:	f1 0a       	sbc	r15, r17
    4984:	43 0b       	sbc	r20, r19
    4986:	56 0b       	sbc	r21, r22
    4988:	c9 0b       	sbc	r28, r25
    498a:	d0 09       	sbc	r29, r0
    498c:	98 f0       	brcs	.+38     	; 0x49b4 <__ftoa_engine+0x19a>
    498e:	23 95       	inc	r18
    4990:	7e 91       	ld	r23, -X
    4992:	73 95       	inc	r23
    4994:	7a 33       	cpi	r23, 0x3A	; 58
    4996:	08 f0       	brcs	.+2      	; 0x499a <__ftoa_engine+0x180>
    4998:	70 e3       	ldi	r23, 0x30	; 48
    499a:	7c 93       	st	X, r23
    499c:	20 13       	cpse	r18, r16
    499e:	b8 f7       	brcc	.-18     	; 0x498e <__ftoa_engine+0x174>
    49a0:	7e 91       	ld	r23, -X
    49a2:	70 61       	ori	r23, 0x10	; 16
    49a4:	7d 93       	st	X+, r23
    49a6:	30 f0       	brcs	.+12     	; 0x49b4 <__ftoa_engine+0x19a>
    49a8:	83 95       	inc	r24
    49aa:	71 e3       	ldi	r23, 0x31	; 49
    49ac:	7d 93       	st	X+, r23
    49ae:	70 e3       	ldi	r23, 0x30	; 48
    49b0:	2a 95       	dec	r18
    49b2:	e1 f7       	brne	.-8      	; 0x49ac <__ftoa_engine+0x192>
    49b4:	11 24       	eor	r1, r1
    49b6:	ef 90       	pop	r14
    49b8:	ff 90       	pop	r15
    49ba:	0f 91       	pop	r16
    49bc:	1f 91       	pop	r17
    49be:	cf 91       	pop	r28
    49c0:	df 91       	pop	r29
    49c2:	99 27       	eor	r25, r25
    49c4:	87 fd       	sbrc	r24, 7
    49c6:	90 95       	com	r25
    49c8:	08 95       	ret

000049ca <strchr_P>:
    49ca:	fc 01       	movw	r30, r24
    49cc:	05 90       	lpm	r0, Z+
    49ce:	06 16       	cp	r0, r22
    49d0:	21 f0       	breq	.+8      	; 0x49da <strchr_P+0x10>
    49d2:	00 20       	and	r0, r0
    49d4:	d9 f7       	brne	.-10     	; 0x49cc <strchr_P+0x2>
    49d6:	c0 01       	movw	r24, r0
    49d8:	08 95       	ret
    49da:	31 97       	sbiw	r30, 0x01	; 1
    49dc:	cf 01       	movw	r24, r30
    49de:	08 95       	ret

000049e0 <strnlen_P>:
    49e0:	fc 01       	movw	r30, r24
    49e2:	05 90       	lpm	r0, Z+
    49e4:	61 50       	subi	r22, 0x01	; 1
    49e6:	70 40       	sbci	r23, 0x00	; 0
    49e8:	01 10       	cpse	r0, r1
    49ea:	d8 f7       	brcc	.-10     	; 0x49e2 <strnlen_P+0x2>
    49ec:	80 95       	com	r24
    49ee:	90 95       	com	r25
    49f0:	8e 0f       	add	r24, r30
    49f2:	9f 1f       	adc	r25, r31
    49f4:	08 95       	ret

000049f6 <strnlen>:
    49f6:	fc 01       	movw	r30, r24
    49f8:	61 50       	subi	r22, 0x01	; 1
    49fa:	70 40       	sbci	r23, 0x00	; 0
    49fc:	01 90       	ld	r0, Z+
    49fe:	01 10       	cpse	r0, r1
    4a00:	d8 f7       	brcc	.-10     	; 0x49f8 <strnlen+0x2>
    4a02:	80 95       	com	r24
    4a04:	90 95       	com	r25
    4a06:	8e 0f       	add	r24, r30
    4a08:	9f 1f       	adc	r25, r31
    4a0a:	08 95       	ret

00004a0c <fgetc>:
    4a0c:	cf 93       	push	r28
    4a0e:	df 93       	push	r29
    4a10:	ec 01       	movw	r28, r24
    4a12:	4b 81       	ldd	r20, Y+3	; 0x03
    4a14:	40 ff       	sbrs	r20, 0
    4a16:	1a c0       	rjmp	.+52     	; 0x4a4c <fgetc+0x40>
    4a18:	46 ff       	sbrs	r20, 6
    4a1a:	0a c0       	rjmp	.+20     	; 0x4a30 <fgetc+0x24>
    4a1c:	4f 7b       	andi	r20, 0xBF	; 191
    4a1e:	4b 83       	std	Y+3, r20	; 0x03
    4a20:	8e 81       	ldd	r24, Y+6	; 0x06
    4a22:	9f 81       	ldd	r25, Y+7	; 0x07
    4a24:	01 96       	adiw	r24, 0x01	; 1
    4a26:	9f 83       	std	Y+7, r25	; 0x07
    4a28:	8e 83       	std	Y+6, r24	; 0x06
    4a2a:	8a 81       	ldd	r24, Y+2	; 0x02
    4a2c:	28 2f       	mov	r18, r24
    4a2e:	2b c0       	rjmp	.+86     	; 0x4a86 <fgetc+0x7a>
    4a30:	42 ff       	sbrs	r20, 2
    4a32:	13 c0       	rjmp	.+38     	; 0x4a5a <fgetc+0x4e>
    4a34:	e8 81       	ld	r30, Y
    4a36:	f9 81       	ldd	r31, Y+1	; 0x01
    4a38:	80 81       	ld	r24, Z
    4a3a:	28 2f       	mov	r18, r24
    4a3c:	33 27       	eor	r19, r19
    4a3e:	27 fd       	sbrc	r18, 7
    4a40:	30 95       	com	r19
    4a42:	21 15       	cp	r18, r1
    4a44:	31 05       	cpc	r19, r1
    4a46:	29 f4       	brne	.+10     	; 0x4a52 <fgetc+0x46>
    4a48:	40 62       	ori	r20, 0x20	; 32
    4a4a:	4b 83       	std	Y+3, r20	; 0x03
    4a4c:	2f ef       	ldi	r18, 0xFF	; 255
    4a4e:	3f ef       	ldi	r19, 0xFF	; 255
    4a50:	1b c0       	rjmp	.+54     	; 0x4a88 <fgetc+0x7c>
    4a52:	31 96       	adiw	r30, 0x01	; 1
    4a54:	f9 83       	std	Y+1, r31	; 0x01
    4a56:	e8 83       	st	Y, r30
    4a58:	11 c0       	rjmp	.+34     	; 0x4a7c <fgetc+0x70>
    4a5a:	ea 85       	ldd	r30, Y+10	; 0x0a
    4a5c:	fb 85       	ldd	r31, Y+11	; 0x0b
    4a5e:	ce 01       	movw	r24, r28
    4a60:	09 95       	icall
    4a62:	9c 01       	movw	r18, r24
    4a64:	97 ff       	sbrs	r25, 7
    4a66:	0a c0       	rjmp	.+20     	; 0x4a7c <fgetc+0x70>
    4a68:	9b 81       	ldd	r25, Y+3	; 0x03
    4a6a:	2f 5f       	subi	r18, 0xFF	; 255
    4a6c:	3f 4f       	sbci	r19, 0xFF	; 255
    4a6e:	11 f0       	breq	.+4      	; 0x4a74 <fgetc+0x68>
    4a70:	80 e2       	ldi	r24, 0x20	; 32
    4a72:	01 c0       	rjmp	.+2      	; 0x4a76 <fgetc+0x6a>
    4a74:	80 e1       	ldi	r24, 0x10	; 16
    4a76:	89 2b       	or	r24, r25
    4a78:	8b 83       	std	Y+3, r24	; 0x03
    4a7a:	e8 cf       	rjmp	.-48     	; 0x4a4c <fgetc+0x40>
    4a7c:	8e 81       	ldd	r24, Y+6	; 0x06
    4a7e:	9f 81       	ldd	r25, Y+7	; 0x07
    4a80:	01 96       	adiw	r24, 0x01	; 1
    4a82:	9f 83       	std	Y+7, r25	; 0x07
    4a84:	8e 83       	std	Y+6, r24	; 0x06
    4a86:	30 e0       	ldi	r19, 0x00	; 0
    4a88:	c9 01       	movw	r24, r18
    4a8a:	df 91       	pop	r29
    4a8c:	cf 91       	pop	r28
    4a8e:	08 95       	ret

00004a90 <fputc>:
    4a90:	0f 93       	push	r16
    4a92:	1f 93       	push	r17
    4a94:	cf 93       	push	r28
    4a96:	df 93       	push	r29
    4a98:	8c 01       	movw	r16, r24
    4a9a:	eb 01       	movw	r28, r22
    4a9c:	8b 81       	ldd	r24, Y+3	; 0x03
    4a9e:	81 ff       	sbrs	r24, 1
    4aa0:	1b c0       	rjmp	.+54     	; 0x4ad8 <fputc+0x48>
    4aa2:	82 ff       	sbrs	r24, 2
    4aa4:	0d c0       	rjmp	.+26     	; 0x4ac0 <fputc+0x30>
    4aa6:	2e 81       	ldd	r18, Y+6	; 0x06
    4aa8:	3f 81       	ldd	r19, Y+7	; 0x07
    4aaa:	8c 81       	ldd	r24, Y+4	; 0x04
    4aac:	9d 81       	ldd	r25, Y+5	; 0x05
    4aae:	28 17       	cp	r18, r24
    4ab0:	39 07       	cpc	r19, r25
    4ab2:	64 f4       	brge	.+24     	; 0x4acc <fputc+0x3c>
    4ab4:	e8 81       	ld	r30, Y
    4ab6:	f9 81       	ldd	r31, Y+1	; 0x01
    4ab8:	01 93       	st	Z+, r16
    4aba:	f9 83       	std	Y+1, r31	; 0x01
    4abc:	e8 83       	st	Y, r30
    4abe:	06 c0       	rjmp	.+12     	; 0x4acc <fputc+0x3c>
    4ac0:	e8 85       	ldd	r30, Y+8	; 0x08
    4ac2:	f9 85       	ldd	r31, Y+9	; 0x09
    4ac4:	80 2f       	mov	r24, r16
    4ac6:	09 95       	icall
    4ac8:	89 2b       	or	r24, r25
    4aca:	31 f4       	brne	.+12     	; 0x4ad8 <fputc+0x48>
    4acc:	8e 81       	ldd	r24, Y+6	; 0x06
    4ace:	9f 81       	ldd	r25, Y+7	; 0x07
    4ad0:	01 96       	adiw	r24, 0x01	; 1
    4ad2:	9f 83       	std	Y+7, r25	; 0x07
    4ad4:	8e 83       	std	Y+6, r24	; 0x06
    4ad6:	02 c0       	rjmp	.+4      	; 0x4adc <fputc+0x4c>
    4ad8:	0f ef       	ldi	r16, 0xFF	; 255
    4ada:	1f ef       	ldi	r17, 0xFF	; 255
    4adc:	c8 01       	movw	r24, r16
    4ade:	df 91       	pop	r29
    4ae0:	cf 91       	pop	r28
    4ae2:	1f 91       	pop	r17
    4ae4:	0f 91       	pop	r16
    4ae6:	08 95       	ret

00004ae8 <ungetc>:
    4ae8:	9c 01       	movw	r18, r24
    4aea:	fb 01       	movw	r30, r22
    4aec:	83 81       	ldd	r24, Z+3	; 0x03
    4aee:	80 ff       	sbrs	r24, 0
    4af0:	11 c0       	rjmp	.+34     	; 0x4b14 <ungetc+0x2c>
    4af2:	86 fd       	sbrc	r24, 6
    4af4:	0f c0       	rjmp	.+30     	; 0x4b14 <ungetc+0x2c>
    4af6:	9f ef       	ldi	r25, 0xFF	; 255
    4af8:	2f 3f       	cpi	r18, 0xFF	; 255
    4afa:	39 07       	cpc	r19, r25
    4afc:	59 f0       	breq	.+22     	; 0x4b14 <ungetc+0x2c>
    4afe:	22 83       	std	Z+2, r18	; 0x02
    4b00:	80 64       	ori	r24, 0x40	; 64
    4b02:	8f 7d       	andi	r24, 0xDF	; 223
    4b04:	83 83       	std	Z+3, r24	; 0x03
    4b06:	86 81       	ldd	r24, Z+6	; 0x06
    4b08:	97 81       	ldd	r25, Z+7	; 0x07
    4b0a:	01 97       	sbiw	r24, 0x01	; 1
    4b0c:	97 83       	std	Z+7, r25	; 0x07
    4b0e:	86 83       	std	Z+6, r24	; 0x06
    4b10:	30 e0       	ldi	r19, 0x00	; 0
    4b12:	02 c0       	rjmp	.+4      	; 0x4b18 <ungetc+0x30>
    4b14:	2f ef       	ldi	r18, 0xFF	; 255
    4b16:	3f ef       	ldi	r19, 0xFF	; 255
    4b18:	c9 01       	movw	r24, r18
    4b1a:	08 95       	ret

00004b1c <__ultoa_invert>:
    4b1c:	fa 01       	movw	r30, r20
    4b1e:	aa 27       	eor	r26, r26
    4b20:	28 30       	cpi	r18, 0x08	; 8
    4b22:	51 f1       	breq	.+84     	; 0x4b78 <__ultoa_invert+0x5c>
    4b24:	20 31       	cpi	r18, 0x10	; 16
    4b26:	81 f1       	breq	.+96     	; 0x4b88 <__ultoa_invert+0x6c>
    4b28:	e8 94       	clt
    4b2a:	6f 93       	push	r22
    4b2c:	6e 7f       	andi	r22, 0xFE	; 254
    4b2e:	6e 5f       	subi	r22, 0xFE	; 254
    4b30:	7f 4f       	sbci	r23, 0xFF	; 255
    4b32:	8f 4f       	sbci	r24, 0xFF	; 255
    4b34:	9f 4f       	sbci	r25, 0xFF	; 255
    4b36:	af 4f       	sbci	r26, 0xFF	; 255
    4b38:	b1 e0       	ldi	r27, 0x01	; 1
    4b3a:	3e d0       	rcall	.+124    	; 0x4bb8 <__ultoa_invert+0x9c>
    4b3c:	b4 e0       	ldi	r27, 0x04	; 4
    4b3e:	3c d0       	rcall	.+120    	; 0x4bb8 <__ultoa_invert+0x9c>
    4b40:	67 0f       	add	r22, r23
    4b42:	78 1f       	adc	r23, r24
    4b44:	89 1f       	adc	r24, r25
    4b46:	9a 1f       	adc	r25, r26
    4b48:	a1 1d       	adc	r26, r1
    4b4a:	68 0f       	add	r22, r24
    4b4c:	79 1f       	adc	r23, r25
    4b4e:	8a 1f       	adc	r24, r26
    4b50:	91 1d       	adc	r25, r1
    4b52:	a1 1d       	adc	r26, r1
    4b54:	6a 0f       	add	r22, r26
    4b56:	71 1d       	adc	r23, r1
    4b58:	81 1d       	adc	r24, r1
    4b5a:	91 1d       	adc	r25, r1
    4b5c:	a1 1d       	adc	r26, r1
    4b5e:	20 d0       	rcall	.+64     	; 0x4ba0 <__ultoa_invert+0x84>
    4b60:	09 f4       	brne	.+2      	; 0x4b64 <__ultoa_invert+0x48>
    4b62:	68 94       	set
    4b64:	3f 91       	pop	r19
    4b66:	2a e0       	ldi	r18, 0x0A	; 10
    4b68:	26 9f       	mul	r18, r22
    4b6a:	11 24       	eor	r1, r1
    4b6c:	30 19       	sub	r19, r0
    4b6e:	30 5d       	subi	r19, 0xD0	; 208
    4b70:	31 93       	st	Z+, r19
    4b72:	de f6       	brtc	.-74     	; 0x4b2a <__ultoa_invert+0xe>
    4b74:	cf 01       	movw	r24, r30
    4b76:	08 95       	ret
    4b78:	46 2f       	mov	r20, r22
    4b7a:	47 70       	andi	r20, 0x07	; 7
    4b7c:	40 5d       	subi	r20, 0xD0	; 208
    4b7e:	41 93       	st	Z+, r20
    4b80:	b3 e0       	ldi	r27, 0x03	; 3
    4b82:	0f d0       	rcall	.+30     	; 0x4ba2 <__ultoa_invert+0x86>
    4b84:	c9 f7       	brne	.-14     	; 0x4b78 <__ultoa_invert+0x5c>
    4b86:	f6 cf       	rjmp	.-20     	; 0x4b74 <__ultoa_invert+0x58>
    4b88:	46 2f       	mov	r20, r22
    4b8a:	4f 70       	andi	r20, 0x0F	; 15
    4b8c:	40 5d       	subi	r20, 0xD0	; 208
    4b8e:	4a 33       	cpi	r20, 0x3A	; 58
    4b90:	18 f0       	brcs	.+6      	; 0x4b98 <__ultoa_invert+0x7c>
    4b92:	49 5d       	subi	r20, 0xD9	; 217
    4b94:	31 fd       	sbrc	r19, 1
    4b96:	40 52       	subi	r20, 0x20	; 32
    4b98:	41 93       	st	Z+, r20
    4b9a:	02 d0       	rcall	.+4      	; 0x4ba0 <__ultoa_invert+0x84>
    4b9c:	a9 f7       	brne	.-22     	; 0x4b88 <__ultoa_invert+0x6c>
    4b9e:	ea cf       	rjmp	.-44     	; 0x4b74 <__ultoa_invert+0x58>
    4ba0:	b4 e0       	ldi	r27, 0x04	; 4
    4ba2:	a6 95       	lsr	r26
    4ba4:	97 95       	ror	r25
    4ba6:	87 95       	ror	r24
    4ba8:	77 95       	ror	r23
    4baa:	67 95       	ror	r22
    4bac:	ba 95       	dec	r27
    4bae:	c9 f7       	brne	.-14     	; 0x4ba2 <__ultoa_invert+0x86>
    4bb0:	00 97       	sbiw	r24, 0x00	; 0
    4bb2:	61 05       	cpc	r22, r1
    4bb4:	71 05       	cpc	r23, r1
    4bb6:	08 95       	ret
    4bb8:	9b 01       	movw	r18, r22
    4bba:	ac 01       	movw	r20, r24
    4bbc:	0a 2e       	mov	r0, r26
    4bbe:	06 94       	lsr	r0
    4bc0:	57 95       	ror	r21
    4bc2:	47 95       	ror	r20
    4bc4:	37 95       	ror	r19
    4bc6:	27 95       	ror	r18
    4bc8:	ba 95       	dec	r27
    4bca:	c9 f7       	brne	.-14     	; 0x4bbe <__ultoa_invert+0xa2>
    4bcc:	62 0f       	add	r22, r18
    4bce:	73 1f       	adc	r23, r19
    4bd0:	84 1f       	adc	r24, r20
    4bd2:	95 1f       	adc	r25, r21
    4bd4:	a0 1d       	adc	r26, r0
    4bd6:	08 95       	ret

00004bd8 <__subsf3>:
    4bd8:	50 58       	subi	r21, 0x80	; 128

00004bda <__addsf3>:
    4bda:	bb 27       	eor	r27, r27
    4bdc:	aa 27       	eor	r26, r26
    4bde:	0e d0       	rcall	.+28     	; 0x4bfc <__addsf3x>
    4be0:	70 c1       	rjmp	.+736    	; 0x4ec2 <__fp_round>
    4be2:	61 d1       	rcall	.+706    	; 0x4ea6 <__fp_pscA>
    4be4:	30 f0       	brcs	.+12     	; 0x4bf2 <__addsf3+0x18>
    4be6:	66 d1       	rcall	.+716    	; 0x4eb4 <__fp_pscB>
    4be8:	20 f0       	brcs	.+8      	; 0x4bf2 <__addsf3+0x18>
    4bea:	31 f4       	brne	.+12     	; 0x4bf8 <__addsf3+0x1e>
    4bec:	9f 3f       	cpi	r25, 0xFF	; 255
    4bee:	11 f4       	brne	.+4      	; 0x4bf4 <__addsf3+0x1a>
    4bf0:	1e f4       	brtc	.+6      	; 0x4bf8 <__addsf3+0x1e>
    4bf2:	56 c1       	rjmp	.+684    	; 0x4ea0 <__fp_nan>
    4bf4:	0e f4       	brtc	.+2      	; 0x4bf8 <__addsf3+0x1e>
    4bf6:	e0 95       	com	r30
    4bf8:	e7 fb       	bst	r30, 7
    4bfa:	4c c1       	rjmp	.+664    	; 0x4e94 <__fp_inf>

00004bfc <__addsf3x>:
    4bfc:	e9 2f       	mov	r30, r25
    4bfe:	72 d1       	rcall	.+740    	; 0x4ee4 <__fp_split3>
    4c00:	80 f3       	brcs	.-32     	; 0x4be2 <__addsf3+0x8>
    4c02:	ba 17       	cp	r27, r26
    4c04:	62 07       	cpc	r22, r18
    4c06:	73 07       	cpc	r23, r19
    4c08:	84 07       	cpc	r24, r20
    4c0a:	95 07       	cpc	r25, r21
    4c0c:	18 f0       	brcs	.+6      	; 0x4c14 <__addsf3x+0x18>
    4c0e:	71 f4       	brne	.+28     	; 0x4c2c <__addsf3x+0x30>
    4c10:	9e f5       	brtc	.+102    	; 0x4c78 <__addsf3x+0x7c>
    4c12:	8a c1       	rjmp	.+788    	; 0x4f28 <__fp_zero>
    4c14:	0e f4       	brtc	.+2      	; 0x4c18 <__addsf3x+0x1c>
    4c16:	e0 95       	com	r30
    4c18:	0b 2e       	mov	r0, r27
    4c1a:	ba 2f       	mov	r27, r26
    4c1c:	a0 2d       	mov	r26, r0
    4c1e:	0b 01       	movw	r0, r22
    4c20:	b9 01       	movw	r22, r18
    4c22:	90 01       	movw	r18, r0
    4c24:	0c 01       	movw	r0, r24
    4c26:	ca 01       	movw	r24, r20
    4c28:	a0 01       	movw	r20, r0
    4c2a:	11 24       	eor	r1, r1
    4c2c:	ff 27       	eor	r31, r31
    4c2e:	59 1b       	sub	r21, r25
    4c30:	99 f0       	breq	.+38     	; 0x4c58 <__addsf3x+0x5c>
    4c32:	59 3f       	cpi	r21, 0xF9	; 249
    4c34:	50 f4       	brcc	.+20     	; 0x4c4a <__addsf3x+0x4e>
    4c36:	50 3e       	cpi	r21, 0xE0	; 224
    4c38:	68 f1       	brcs	.+90     	; 0x4c94 <__addsf3x+0x98>
    4c3a:	1a 16       	cp	r1, r26
    4c3c:	f0 40       	sbci	r31, 0x00	; 0
    4c3e:	a2 2f       	mov	r26, r18
    4c40:	23 2f       	mov	r18, r19
    4c42:	34 2f       	mov	r19, r20
    4c44:	44 27       	eor	r20, r20
    4c46:	58 5f       	subi	r21, 0xF8	; 248
    4c48:	f3 cf       	rjmp	.-26     	; 0x4c30 <__addsf3x+0x34>
    4c4a:	46 95       	lsr	r20
    4c4c:	37 95       	ror	r19
    4c4e:	27 95       	ror	r18
    4c50:	a7 95       	ror	r26
    4c52:	f0 40       	sbci	r31, 0x00	; 0
    4c54:	53 95       	inc	r21
    4c56:	c9 f7       	brne	.-14     	; 0x4c4a <__addsf3x+0x4e>
    4c58:	7e f4       	brtc	.+30     	; 0x4c78 <__addsf3x+0x7c>
    4c5a:	1f 16       	cp	r1, r31
    4c5c:	ba 0b       	sbc	r27, r26
    4c5e:	62 0b       	sbc	r22, r18
    4c60:	73 0b       	sbc	r23, r19
    4c62:	84 0b       	sbc	r24, r20
    4c64:	ba f0       	brmi	.+46     	; 0x4c94 <__addsf3x+0x98>
    4c66:	91 50       	subi	r25, 0x01	; 1
    4c68:	a1 f0       	breq	.+40     	; 0x4c92 <__addsf3x+0x96>
    4c6a:	ff 0f       	add	r31, r31
    4c6c:	bb 1f       	adc	r27, r27
    4c6e:	66 1f       	adc	r22, r22
    4c70:	77 1f       	adc	r23, r23
    4c72:	88 1f       	adc	r24, r24
    4c74:	c2 f7       	brpl	.-16     	; 0x4c66 <__addsf3x+0x6a>
    4c76:	0e c0       	rjmp	.+28     	; 0x4c94 <__addsf3x+0x98>
    4c78:	ba 0f       	add	r27, r26
    4c7a:	62 1f       	adc	r22, r18
    4c7c:	73 1f       	adc	r23, r19
    4c7e:	84 1f       	adc	r24, r20
    4c80:	48 f4       	brcc	.+18     	; 0x4c94 <__addsf3x+0x98>
    4c82:	87 95       	ror	r24
    4c84:	77 95       	ror	r23
    4c86:	67 95       	ror	r22
    4c88:	b7 95       	ror	r27
    4c8a:	f7 95       	ror	r31
    4c8c:	9e 3f       	cpi	r25, 0xFE	; 254
    4c8e:	08 f0       	brcs	.+2      	; 0x4c92 <__addsf3x+0x96>
    4c90:	b3 cf       	rjmp	.-154    	; 0x4bf8 <__addsf3+0x1e>
    4c92:	93 95       	inc	r25
    4c94:	88 0f       	add	r24, r24
    4c96:	08 f0       	brcs	.+2      	; 0x4c9a <__addsf3x+0x9e>
    4c98:	99 27       	eor	r25, r25
    4c9a:	ee 0f       	add	r30, r30
    4c9c:	97 95       	ror	r25
    4c9e:	87 95       	ror	r24
    4ca0:	08 95       	ret

00004ca2 <__cmpsf2>:
    4ca2:	d4 d0       	rcall	.+424    	; 0x4e4c <__fp_cmp>
    4ca4:	08 f4       	brcc	.+2      	; 0x4ca8 <__cmpsf2+0x6>
    4ca6:	81 e0       	ldi	r24, 0x01	; 1
    4ca8:	08 95       	ret

00004caa <__divsf3>:
    4caa:	0c d0       	rcall	.+24     	; 0x4cc4 <__divsf3x>
    4cac:	0a c1       	rjmp	.+532    	; 0x4ec2 <__fp_round>
    4cae:	02 d1       	rcall	.+516    	; 0x4eb4 <__fp_pscB>
    4cb0:	40 f0       	brcs	.+16     	; 0x4cc2 <__divsf3+0x18>
    4cb2:	f9 d0       	rcall	.+498    	; 0x4ea6 <__fp_pscA>
    4cb4:	30 f0       	brcs	.+12     	; 0x4cc2 <__divsf3+0x18>
    4cb6:	21 f4       	brne	.+8      	; 0x4cc0 <__divsf3+0x16>
    4cb8:	5f 3f       	cpi	r21, 0xFF	; 255
    4cba:	19 f0       	breq	.+6      	; 0x4cc2 <__divsf3+0x18>
    4cbc:	eb c0       	rjmp	.+470    	; 0x4e94 <__fp_inf>
    4cbe:	51 11       	cpse	r21, r1
    4cc0:	34 c1       	rjmp	.+616    	; 0x4f2a <__fp_szero>
    4cc2:	ee c0       	rjmp	.+476    	; 0x4ea0 <__fp_nan>

00004cc4 <__divsf3x>:
    4cc4:	0f d1       	rcall	.+542    	; 0x4ee4 <__fp_split3>
    4cc6:	98 f3       	brcs	.-26     	; 0x4cae <__divsf3+0x4>

00004cc8 <__divsf3_pse>:
    4cc8:	99 23       	and	r25, r25
    4cca:	c9 f3       	breq	.-14     	; 0x4cbe <__divsf3+0x14>
    4ccc:	55 23       	and	r21, r21
    4cce:	b1 f3       	breq	.-20     	; 0x4cbc <__divsf3+0x12>
    4cd0:	95 1b       	sub	r25, r21
    4cd2:	55 0b       	sbc	r21, r21
    4cd4:	bb 27       	eor	r27, r27
    4cd6:	aa 27       	eor	r26, r26
    4cd8:	62 17       	cp	r22, r18
    4cda:	73 07       	cpc	r23, r19
    4cdc:	84 07       	cpc	r24, r20
    4cde:	38 f0       	brcs	.+14     	; 0x4cee <__divsf3_pse+0x26>
    4ce0:	9f 5f       	subi	r25, 0xFF	; 255
    4ce2:	5f 4f       	sbci	r21, 0xFF	; 255
    4ce4:	22 0f       	add	r18, r18
    4ce6:	33 1f       	adc	r19, r19
    4ce8:	44 1f       	adc	r20, r20
    4cea:	aa 1f       	adc	r26, r26
    4cec:	a9 f3       	breq	.-22     	; 0x4cd8 <__divsf3_pse+0x10>
    4cee:	33 d0       	rcall	.+102    	; 0x4d56 <__divsf3_pse+0x8e>
    4cf0:	0e 2e       	mov	r0, r30
    4cf2:	3a f0       	brmi	.+14     	; 0x4d02 <__divsf3_pse+0x3a>
    4cf4:	e0 e8       	ldi	r30, 0x80	; 128
    4cf6:	30 d0       	rcall	.+96     	; 0x4d58 <__divsf3_pse+0x90>
    4cf8:	91 50       	subi	r25, 0x01	; 1
    4cfa:	50 40       	sbci	r21, 0x00	; 0
    4cfc:	e6 95       	lsr	r30
    4cfe:	00 1c       	adc	r0, r0
    4d00:	ca f7       	brpl	.-14     	; 0x4cf4 <__divsf3_pse+0x2c>
    4d02:	29 d0       	rcall	.+82     	; 0x4d56 <__divsf3_pse+0x8e>
    4d04:	fe 2f       	mov	r31, r30
    4d06:	27 d0       	rcall	.+78     	; 0x4d56 <__divsf3_pse+0x8e>
    4d08:	66 0f       	add	r22, r22
    4d0a:	77 1f       	adc	r23, r23
    4d0c:	88 1f       	adc	r24, r24
    4d0e:	bb 1f       	adc	r27, r27
    4d10:	26 17       	cp	r18, r22
    4d12:	37 07       	cpc	r19, r23
    4d14:	48 07       	cpc	r20, r24
    4d16:	ab 07       	cpc	r26, r27
    4d18:	b0 e8       	ldi	r27, 0x80	; 128
    4d1a:	09 f0       	breq	.+2      	; 0x4d1e <__divsf3_pse+0x56>
    4d1c:	bb 0b       	sbc	r27, r27
    4d1e:	80 2d       	mov	r24, r0
    4d20:	bf 01       	movw	r22, r30
    4d22:	ff 27       	eor	r31, r31
    4d24:	93 58       	subi	r25, 0x83	; 131
    4d26:	5f 4f       	sbci	r21, 0xFF	; 255
    4d28:	2a f0       	brmi	.+10     	; 0x4d34 <__divsf3_pse+0x6c>
    4d2a:	9e 3f       	cpi	r25, 0xFE	; 254
    4d2c:	51 05       	cpc	r21, r1
    4d2e:	68 f0       	brcs	.+26     	; 0x4d4a <__divsf3_pse+0x82>
    4d30:	b1 c0       	rjmp	.+354    	; 0x4e94 <__fp_inf>
    4d32:	fb c0       	rjmp	.+502    	; 0x4f2a <__fp_szero>
    4d34:	5f 3f       	cpi	r21, 0xFF	; 255
    4d36:	ec f3       	brlt	.-6      	; 0x4d32 <__divsf3_pse+0x6a>
    4d38:	98 3e       	cpi	r25, 0xE8	; 232
    4d3a:	dc f3       	brlt	.-10     	; 0x4d32 <__divsf3_pse+0x6a>
    4d3c:	86 95       	lsr	r24
    4d3e:	77 95       	ror	r23
    4d40:	67 95       	ror	r22
    4d42:	b7 95       	ror	r27
    4d44:	f7 95       	ror	r31
    4d46:	9f 5f       	subi	r25, 0xFF	; 255
    4d48:	c9 f7       	brne	.-14     	; 0x4d3c <__divsf3_pse+0x74>
    4d4a:	88 0f       	add	r24, r24
    4d4c:	91 1d       	adc	r25, r1
    4d4e:	96 95       	lsr	r25
    4d50:	87 95       	ror	r24
    4d52:	97 f9       	bld	r25, 7
    4d54:	08 95       	ret
    4d56:	e1 e0       	ldi	r30, 0x01	; 1
    4d58:	66 0f       	add	r22, r22
    4d5a:	77 1f       	adc	r23, r23
    4d5c:	88 1f       	adc	r24, r24
    4d5e:	bb 1f       	adc	r27, r27
    4d60:	62 17       	cp	r22, r18
    4d62:	73 07       	cpc	r23, r19
    4d64:	84 07       	cpc	r24, r20
    4d66:	ba 07       	cpc	r27, r26
    4d68:	20 f0       	brcs	.+8      	; 0x4d72 <__divsf3_pse+0xaa>
    4d6a:	62 1b       	sub	r22, r18
    4d6c:	73 0b       	sbc	r23, r19
    4d6e:	84 0b       	sbc	r24, r20
    4d70:	ba 0b       	sbc	r27, r26
    4d72:	ee 1f       	adc	r30, r30
    4d74:	88 f7       	brcc	.-30     	; 0x4d58 <__divsf3_pse+0x90>
    4d76:	e0 95       	com	r30
    4d78:	08 95       	ret

00004d7a <__fixunssfsi>:
    4d7a:	bc d0       	rcall	.+376    	; 0x4ef4 <__fp_splitA>
    4d7c:	88 f0       	brcs	.+34     	; 0x4da0 <__fixunssfsi+0x26>
    4d7e:	9f 57       	subi	r25, 0x7F	; 127
    4d80:	90 f0       	brcs	.+36     	; 0x4da6 <__fixunssfsi+0x2c>
    4d82:	b9 2f       	mov	r27, r25
    4d84:	99 27       	eor	r25, r25
    4d86:	b7 51       	subi	r27, 0x17	; 23
    4d88:	a0 f0       	brcs	.+40     	; 0x4db2 <__fixunssfsi+0x38>
    4d8a:	d1 f0       	breq	.+52     	; 0x4dc0 <__fixunssfsi+0x46>
    4d8c:	66 0f       	add	r22, r22
    4d8e:	77 1f       	adc	r23, r23
    4d90:	88 1f       	adc	r24, r24
    4d92:	99 1f       	adc	r25, r25
    4d94:	1a f0       	brmi	.+6      	; 0x4d9c <__fixunssfsi+0x22>
    4d96:	ba 95       	dec	r27
    4d98:	c9 f7       	brne	.-14     	; 0x4d8c <__fixunssfsi+0x12>
    4d9a:	12 c0       	rjmp	.+36     	; 0x4dc0 <__fixunssfsi+0x46>
    4d9c:	b1 30       	cpi	r27, 0x01	; 1
    4d9e:	81 f0       	breq	.+32     	; 0x4dc0 <__fixunssfsi+0x46>
    4da0:	c3 d0       	rcall	.+390    	; 0x4f28 <__fp_zero>
    4da2:	b1 e0       	ldi	r27, 0x01	; 1
    4da4:	08 95       	ret
    4da6:	c0 c0       	rjmp	.+384    	; 0x4f28 <__fp_zero>
    4da8:	67 2f       	mov	r22, r23
    4daa:	78 2f       	mov	r23, r24
    4dac:	88 27       	eor	r24, r24
    4dae:	b8 5f       	subi	r27, 0xF8	; 248
    4db0:	39 f0       	breq	.+14     	; 0x4dc0 <__fixunssfsi+0x46>
    4db2:	b9 3f       	cpi	r27, 0xF9	; 249
    4db4:	cc f3       	brlt	.-14     	; 0x4da8 <__fixunssfsi+0x2e>
    4db6:	86 95       	lsr	r24
    4db8:	77 95       	ror	r23
    4dba:	67 95       	ror	r22
    4dbc:	b3 95       	inc	r27
    4dbe:	d9 f7       	brne	.-10     	; 0x4db6 <__fixunssfsi+0x3c>
    4dc0:	3e f4       	brtc	.+14     	; 0x4dd0 <__fixunssfsi+0x56>
    4dc2:	90 95       	com	r25
    4dc4:	80 95       	com	r24
    4dc6:	70 95       	com	r23
    4dc8:	61 95       	neg	r22
    4dca:	7f 4f       	sbci	r23, 0xFF	; 255
    4dcc:	8f 4f       	sbci	r24, 0xFF	; 255
    4dce:	9f 4f       	sbci	r25, 0xFF	; 255
    4dd0:	08 95       	ret

00004dd2 <__floatunsisf>:
    4dd2:	e8 94       	clt
    4dd4:	09 c0       	rjmp	.+18     	; 0x4de8 <__floatsisf+0x12>

00004dd6 <__floatsisf>:
    4dd6:	97 fb       	bst	r25, 7
    4dd8:	3e f4       	brtc	.+14     	; 0x4de8 <__floatsisf+0x12>
    4dda:	90 95       	com	r25
    4ddc:	80 95       	com	r24
    4dde:	70 95       	com	r23
    4de0:	61 95       	neg	r22
    4de2:	7f 4f       	sbci	r23, 0xFF	; 255
    4de4:	8f 4f       	sbci	r24, 0xFF	; 255
    4de6:	9f 4f       	sbci	r25, 0xFF	; 255
    4de8:	99 23       	and	r25, r25
    4dea:	a9 f0       	breq	.+42     	; 0x4e16 <__floatsisf+0x40>
    4dec:	f9 2f       	mov	r31, r25
    4dee:	96 e9       	ldi	r25, 0x96	; 150
    4df0:	bb 27       	eor	r27, r27
    4df2:	93 95       	inc	r25
    4df4:	f6 95       	lsr	r31
    4df6:	87 95       	ror	r24
    4df8:	77 95       	ror	r23
    4dfa:	67 95       	ror	r22
    4dfc:	b7 95       	ror	r27
    4dfe:	f1 11       	cpse	r31, r1
    4e00:	f8 cf       	rjmp	.-16     	; 0x4df2 <__floatsisf+0x1c>
    4e02:	fa f4       	brpl	.+62     	; 0x4e42 <__floatsisf+0x6c>
    4e04:	bb 0f       	add	r27, r27
    4e06:	11 f4       	brne	.+4      	; 0x4e0c <__floatsisf+0x36>
    4e08:	60 ff       	sbrs	r22, 0
    4e0a:	1b c0       	rjmp	.+54     	; 0x4e42 <__floatsisf+0x6c>
    4e0c:	6f 5f       	subi	r22, 0xFF	; 255
    4e0e:	7f 4f       	sbci	r23, 0xFF	; 255
    4e10:	8f 4f       	sbci	r24, 0xFF	; 255
    4e12:	9f 4f       	sbci	r25, 0xFF	; 255
    4e14:	16 c0       	rjmp	.+44     	; 0x4e42 <__floatsisf+0x6c>
    4e16:	88 23       	and	r24, r24
    4e18:	11 f0       	breq	.+4      	; 0x4e1e <__floatsisf+0x48>
    4e1a:	96 e9       	ldi	r25, 0x96	; 150
    4e1c:	11 c0       	rjmp	.+34     	; 0x4e40 <__floatsisf+0x6a>
    4e1e:	77 23       	and	r23, r23
    4e20:	21 f0       	breq	.+8      	; 0x4e2a <__floatsisf+0x54>
    4e22:	9e e8       	ldi	r25, 0x8E	; 142
    4e24:	87 2f       	mov	r24, r23
    4e26:	76 2f       	mov	r23, r22
    4e28:	05 c0       	rjmp	.+10     	; 0x4e34 <__floatsisf+0x5e>
    4e2a:	66 23       	and	r22, r22
    4e2c:	71 f0       	breq	.+28     	; 0x4e4a <__floatsisf+0x74>
    4e2e:	96 e8       	ldi	r25, 0x86	; 134
    4e30:	86 2f       	mov	r24, r22
    4e32:	70 e0       	ldi	r23, 0x00	; 0
    4e34:	60 e0       	ldi	r22, 0x00	; 0
    4e36:	2a f0       	brmi	.+10     	; 0x4e42 <__floatsisf+0x6c>
    4e38:	9a 95       	dec	r25
    4e3a:	66 0f       	add	r22, r22
    4e3c:	77 1f       	adc	r23, r23
    4e3e:	88 1f       	adc	r24, r24
    4e40:	da f7       	brpl	.-10     	; 0x4e38 <__floatsisf+0x62>
    4e42:	88 0f       	add	r24, r24
    4e44:	96 95       	lsr	r25
    4e46:	87 95       	ror	r24
    4e48:	97 f9       	bld	r25, 7
    4e4a:	08 95       	ret

00004e4c <__fp_cmp>:
    4e4c:	99 0f       	add	r25, r25
    4e4e:	00 08       	sbc	r0, r0
    4e50:	55 0f       	add	r21, r21
    4e52:	aa 0b       	sbc	r26, r26
    4e54:	e0 e8       	ldi	r30, 0x80	; 128
    4e56:	fe ef       	ldi	r31, 0xFE	; 254
    4e58:	16 16       	cp	r1, r22
    4e5a:	17 06       	cpc	r1, r23
    4e5c:	e8 07       	cpc	r30, r24
    4e5e:	f9 07       	cpc	r31, r25
    4e60:	c0 f0       	brcs	.+48     	; 0x4e92 <__fp_cmp+0x46>
    4e62:	12 16       	cp	r1, r18
    4e64:	13 06       	cpc	r1, r19
    4e66:	e4 07       	cpc	r30, r20
    4e68:	f5 07       	cpc	r31, r21
    4e6a:	98 f0       	brcs	.+38     	; 0x4e92 <__fp_cmp+0x46>
    4e6c:	62 1b       	sub	r22, r18
    4e6e:	73 0b       	sbc	r23, r19
    4e70:	84 0b       	sbc	r24, r20
    4e72:	95 0b       	sbc	r25, r21
    4e74:	39 f4       	brne	.+14     	; 0x4e84 <__fp_cmp+0x38>
    4e76:	0a 26       	eor	r0, r26
    4e78:	61 f0       	breq	.+24     	; 0x4e92 <__fp_cmp+0x46>
    4e7a:	23 2b       	or	r18, r19
    4e7c:	24 2b       	or	r18, r20
    4e7e:	25 2b       	or	r18, r21
    4e80:	21 f4       	brne	.+8      	; 0x4e8a <__fp_cmp+0x3e>
    4e82:	08 95       	ret
    4e84:	0a 26       	eor	r0, r26
    4e86:	09 f4       	brne	.+2      	; 0x4e8a <__fp_cmp+0x3e>
    4e88:	a1 40       	sbci	r26, 0x01	; 1
    4e8a:	a6 95       	lsr	r26
    4e8c:	8f ef       	ldi	r24, 0xFF	; 255
    4e8e:	81 1d       	adc	r24, r1
    4e90:	81 1d       	adc	r24, r1
    4e92:	08 95       	ret

00004e94 <__fp_inf>:
    4e94:	97 f9       	bld	r25, 7
    4e96:	9f 67       	ori	r25, 0x7F	; 127
    4e98:	80 e8       	ldi	r24, 0x80	; 128
    4e9a:	70 e0       	ldi	r23, 0x00	; 0
    4e9c:	60 e0       	ldi	r22, 0x00	; 0
    4e9e:	08 95       	ret

00004ea0 <__fp_nan>:
    4ea0:	9f ef       	ldi	r25, 0xFF	; 255
    4ea2:	80 ec       	ldi	r24, 0xC0	; 192
    4ea4:	08 95       	ret

00004ea6 <__fp_pscA>:
    4ea6:	00 24       	eor	r0, r0
    4ea8:	0a 94       	dec	r0
    4eaa:	16 16       	cp	r1, r22
    4eac:	17 06       	cpc	r1, r23
    4eae:	18 06       	cpc	r1, r24
    4eb0:	09 06       	cpc	r0, r25
    4eb2:	08 95       	ret

00004eb4 <__fp_pscB>:
    4eb4:	00 24       	eor	r0, r0
    4eb6:	0a 94       	dec	r0
    4eb8:	12 16       	cp	r1, r18
    4eba:	13 06       	cpc	r1, r19
    4ebc:	14 06       	cpc	r1, r20
    4ebe:	05 06       	cpc	r0, r21
    4ec0:	08 95       	ret

00004ec2 <__fp_round>:
    4ec2:	09 2e       	mov	r0, r25
    4ec4:	03 94       	inc	r0
    4ec6:	00 0c       	add	r0, r0
    4ec8:	11 f4       	brne	.+4      	; 0x4ece <__fp_round+0xc>
    4eca:	88 23       	and	r24, r24
    4ecc:	52 f0       	brmi	.+20     	; 0x4ee2 <__fp_round+0x20>
    4ece:	bb 0f       	add	r27, r27
    4ed0:	40 f4       	brcc	.+16     	; 0x4ee2 <__fp_round+0x20>
    4ed2:	bf 2b       	or	r27, r31
    4ed4:	11 f4       	brne	.+4      	; 0x4eda <__fp_round+0x18>
    4ed6:	60 ff       	sbrs	r22, 0
    4ed8:	04 c0       	rjmp	.+8      	; 0x4ee2 <__fp_round+0x20>
    4eda:	6f 5f       	subi	r22, 0xFF	; 255
    4edc:	7f 4f       	sbci	r23, 0xFF	; 255
    4ede:	8f 4f       	sbci	r24, 0xFF	; 255
    4ee0:	9f 4f       	sbci	r25, 0xFF	; 255
    4ee2:	08 95       	ret

00004ee4 <__fp_split3>:
    4ee4:	57 fd       	sbrc	r21, 7
    4ee6:	90 58       	subi	r25, 0x80	; 128
    4ee8:	44 0f       	add	r20, r20
    4eea:	55 1f       	adc	r21, r21
    4eec:	59 f0       	breq	.+22     	; 0x4f04 <__fp_splitA+0x10>
    4eee:	5f 3f       	cpi	r21, 0xFF	; 255
    4ef0:	71 f0       	breq	.+28     	; 0x4f0e <__fp_splitA+0x1a>
    4ef2:	47 95       	ror	r20

00004ef4 <__fp_splitA>:
    4ef4:	88 0f       	add	r24, r24
    4ef6:	97 fb       	bst	r25, 7
    4ef8:	99 1f       	adc	r25, r25
    4efa:	61 f0       	breq	.+24     	; 0x4f14 <__fp_splitA+0x20>
    4efc:	9f 3f       	cpi	r25, 0xFF	; 255
    4efe:	79 f0       	breq	.+30     	; 0x4f1e <__fp_splitA+0x2a>
    4f00:	87 95       	ror	r24
    4f02:	08 95       	ret
    4f04:	12 16       	cp	r1, r18
    4f06:	13 06       	cpc	r1, r19
    4f08:	14 06       	cpc	r1, r20
    4f0a:	55 1f       	adc	r21, r21
    4f0c:	f2 cf       	rjmp	.-28     	; 0x4ef2 <__fp_split3+0xe>
    4f0e:	46 95       	lsr	r20
    4f10:	f1 df       	rcall	.-30     	; 0x4ef4 <__fp_splitA>
    4f12:	08 c0       	rjmp	.+16     	; 0x4f24 <__fp_splitA+0x30>
    4f14:	16 16       	cp	r1, r22
    4f16:	17 06       	cpc	r1, r23
    4f18:	18 06       	cpc	r1, r24
    4f1a:	99 1f       	adc	r25, r25
    4f1c:	f1 cf       	rjmp	.-30     	; 0x4f00 <__fp_splitA+0xc>
    4f1e:	86 95       	lsr	r24
    4f20:	71 05       	cpc	r23, r1
    4f22:	61 05       	cpc	r22, r1
    4f24:	08 94       	sec
    4f26:	08 95       	ret

00004f28 <__fp_zero>:
    4f28:	e8 94       	clt

00004f2a <__fp_szero>:
    4f2a:	bb 27       	eor	r27, r27
    4f2c:	66 27       	eor	r22, r22
    4f2e:	77 27       	eor	r23, r23
    4f30:	cb 01       	movw	r24, r22
    4f32:	97 f9       	bld	r25, 7
    4f34:	08 95       	ret

00004f36 <__gesf2>:
    4f36:	8a df       	rcall	.-236    	; 0x4e4c <__fp_cmp>
    4f38:	08 f4       	brcc	.+2      	; 0x4f3c <__gesf2+0x6>
    4f3a:	8f ef       	ldi	r24, 0xFF	; 255
    4f3c:	08 95       	ret

00004f3e <__mulsf3>:
    4f3e:	0b d0       	rcall	.+22     	; 0x4f56 <__mulsf3x>
    4f40:	c0 cf       	rjmp	.-128    	; 0x4ec2 <__fp_round>
    4f42:	b1 df       	rcall	.-158    	; 0x4ea6 <__fp_pscA>
    4f44:	28 f0       	brcs	.+10     	; 0x4f50 <__mulsf3+0x12>
    4f46:	b6 df       	rcall	.-148    	; 0x4eb4 <__fp_pscB>
    4f48:	18 f0       	brcs	.+6      	; 0x4f50 <__mulsf3+0x12>
    4f4a:	95 23       	and	r25, r21
    4f4c:	09 f0       	breq	.+2      	; 0x4f50 <__mulsf3+0x12>
    4f4e:	a2 cf       	rjmp	.-188    	; 0x4e94 <__fp_inf>
    4f50:	a7 cf       	rjmp	.-178    	; 0x4ea0 <__fp_nan>
    4f52:	11 24       	eor	r1, r1
    4f54:	ea cf       	rjmp	.-44     	; 0x4f2a <__fp_szero>

00004f56 <__mulsf3x>:
    4f56:	c6 df       	rcall	.-116    	; 0x4ee4 <__fp_split3>
    4f58:	a0 f3       	brcs	.-24     	; 0x4f42 <__mulsf3+0x4>

00004f5a <__mulsf3_pse>:
    4f5a:	95 9f       	mul	r25, r21
    4f5c:	d1 f3       	breq	.-12     	; 0x4f52 <__mulsf3+0x14>
    4f5e:	95 0f       	add	r25, r21
    4f60:	50 e0       	ldi	r21, 0x00	; 0
    4f62:	55 1f       	adc	r21, r21
    4f64:	62 9f       	mul	r22, r18
    4f66:	f0 01       	movw	r30, r0
    4f68:	72 9f       	mul	r23, r18
    4f6a:	bb 27       	eor	r27, r27
    4f6c:	f0 0d       	add	r31, r0
    4f6e:	b1 1d       	adc	r27, r1
    4f70:	63 9f       	mul	r22, r19
    4f72:	aa 27       	eor	r26, r26
    4f74:	f0 0d       	add	r31, r0
    4f76:	b1 1d       	adc	r27, r1
    4f78:	aa 1f       	adc	r26, r26
    4f7a:	64 9f       	mul	r22, r20
    4f7c:	66 27       	eor	r22, r22
    4f7e:	b0 0d       	add	r27, r0
    4f80:	a1 1d       	adc	r26, r1
    4f82:	66 1f       	adc	r22, r22
    4f84:	82 9f       	mul	r24, r18
    4f86:	22 27       	eor	r18, r18
    4f88:	b0 0d       	add	r27, r0
    4f8a:	a1 1d       	adc	r26, r1
    4f8c:	62 1f       	adc	r22, r18
    4f8e:	73 9f       	mul	r23, r19
    4f90:	b0 0d       	add	r27, r0
    4f92:	a1 1d       	adc	r26, r1
    4f94:	62 1f       	adc	r22, r18
    4f96:	83 9f       	mul	r24, r19
    4f98:	a0 0d       	add	r26, r0
    4f9a:	61 1d       	adc	r22, r1
    4f9c:	22 1f       	adc	r18, r18
    4f9e:	74 9f       	mul	r23, r20
    4fa0:	33 27       	eor	r19, r19
    4fa2:	a0 0d       	add	r26, r0
    4fa4:	61 1d       	adc	r22, r1
    4fa6:	23 1f       	adc	r18, r19
    4fa8:	84 9f       	mul	r24, r20
    4faa:	60 0d       	add	r22, r0
    4fac:	21 1d       	adc	r18, r1
    4fae:	82 2f       	mov	r24, r18
    4fb0:	76 2f       	mov	r23, r22
    4fb2:	6a 2f       	mov	r22, r26
    4fb4:	11 24       	eor	r1, r1
    4fb6:	9f 57       	subi	r25, 0x7F	; 127
    4fb8:	50 40       	sbci	r21, 0x00	; 0
    4fba:	8a f0       	brmi	.+34     	; 0x4fde <__mulsf3_pse+0x84>
    4fbc:	e1 f0       	breq	.+56     	; 0x4ff6 <__mulsf3_pse+0x9c>
    4fbe:	88 23       	and	r24, r24
    4fc0:	4a f0       	brmi	.+18     	; 0x4fd4 <__mulsf3_pse+0x7a>
    4fc2:	ee 0f       	add	r30, r30
    4fc4:	ff 1f       	adc	r31, r31
    4fc6:	bb 1f       	adc	r27, r27
    4fc8:	66 1f       	adc	r22, r22
    4fca:	77 1f       	adc	r23, r23
    4fcc:	88 1f       	adc	r24, r24
    4fce:	91 50       	subi	r25, 0x01	; 1
    4fd0:	50 40       	sbci	r21, 0x00	; 0
    4fd2:	a9 f7       	brne	.-22     	; 0x4fbe <__mulsf3_pse+0x64>
    4fd4:	9e 3f       	cpi	r25, 0xFE	; 254
    4fd6:	51 05       	cpc	r21, r1
    4fd8:	70 f0       	brcs	.+28     	; 0x4ff6 <__mulsf3_pse+0x9c>
    4fda:	5c cf       	rjmp	.-328    	; 0x4e94 <__fp_inf>
    4fdc:	a6 cf       	rjmp	.-180    	; 0x4f2a <__fp_szero>
    4fde:	5f 3f       	cpi	r21, 0xFF	; 255
    4fe0:	ec f3       	brlt	.-6      	; 0x4fdc <__mulsf3_pse+0x82>
    4fe2:	98 3e       	cpi	r25, 0xE8	; 232
    4fe4:	dc f3       	brlt	.-10     	; 0x4fdc <__mulsf3_pse+0x82>
    4fe6:	86 95       	lsr	r24
    4fe8:	77 95       	ror	r23
    4fea:	67 95       	ror	r22
    4fec:	b7 95       	ror	r27
    4fee:	f7 95       	ror	r31
    4ff0:	e7 95       	ror	r30
    4ff2:	9f 5f       	subi	r25, 0xFF	; 255
    4ff4:	c1 f7       	brne	.-16     	; 0x4fe6 <__mulsf3_pse+0x8c>
    4ff6:	fe 2b       	or	r31, r30
    4ff8:	88 0f       	add	r24, r24
    4ffa:	91 1d       	adc	r25, r1
    4ffc:	96 95       	lsr	r25
    4ffe:	87 95       	ror	r24
    5000:	97 f9       	bld	r25, 7
    5002:	08 95       	ret

00005004 <__divmodsi4>:
    5004:	97 fb       	bst	r25, 7
    5006:	09 2e       	mov	r0, r25
    5008:	05 26       	eor	r0, r21
    500a:	0e d0       	rcall	.+28     	; 0x5028 <__divmodsi4_neg1>
    500c:	57 fd       	sbrc	r21, 7
    500e:	04 d0       	rcall	.+8      	; 0x5018 <__divmodsi4_neg2>
    5010:	4b d0       	rcall	.+150    	; 0x50a8 <__udivmodsi4>
    5012:	0a d0       	rcall	.+20     	; 0x5028 <__divmodsi4_neg1>
    5014:	00 1c       	adc	r0, r0
    5016:	38 f4       	brcc	.+14     	; 0x5026 <__divmodsi4_exit>

00005018 <__divmodsi4_neg2>:
    5018:	50 95       	com	r21
    501a:	40 95       	com	r20
    501c:	30 95       	com	r19
    501e:	21 95       	neg	r18
    5020:	3f 4f       	sbci	r19, 0xFF	; 255
    5022:	4f 4f       	sbci	r20, 0xFF	; 255
    5024:	5f 4f       	sbci	r21, 0xFF	; 255

00005026 <__divmodsi4_exit>:
    5026:	08 95       	ret

00005028 <__divmodsi4_neg1>:
    5028:	f6 f7       	brtc	.-4      	; 0x5026 <__divmodsi4_exit>
    502a:	90 95       	com	r25
    502c:	80 95       	com	r24
    502e:	70 95       	com	r23
    5030:	61 95       	neg	r22
    5032:	7f 4f       	sbci	r23, 0xFF	; 255
    5034:	8f 4f       	sbci	r24, 0xFF	; 255
    5036:	9f 4f       	sbci	r25, 0xFF	; 255
    5038:	08 95       	ret

0000503a <__prologue_saves__>:
    503a:	2f 92       	push	r2
    503c:	3f 92       	push	r3
    503e:	4f 92       	push	r4
    5040:	5f 92       	push	r5
    5042:	6f 92       	push	r6
    5044:	7f 92       	push	r7
    5046:	8f 92       	push	r8
    5048:	9f 92       	push	r9
    504a:	af 92       	push	r10
    504c:	bf 92       	push	r11
    504e:	cf 92       	push	r12
    5050:	df 92       	push	r13
    5052:	ef 92       	push	r14
    5054:	ff 92       	push	r15
    5056:	0f 93       	push	r16
    5058:	1f 93       	push	r17
    505a:	cf 93       	push	r28
    505c:	df 93       	push	r29
    505e:	cd b7       	in	r28, 0x3d	; 61
    5060:	de b7       	in	r29, 0x3e	; 62
    5062:	ca 1b       	sub	r28, r26
    5064:	db 0b       	sbc	r29, r27
    5066:	0f b6       	in	r0, 0x3f	; 63
    5068:	f8 94       	cli
    506a:	de bf       	out	0x3e, r29	; 62
    506c:	0f be       	out	0x3f, r0	; 63
    506e:	cd bf       	out	0x3d, r28	; 61
    5070:	09 94       	ijmp

00005072 <__epilogue_restores__>:
    5072:	2a 88       	ldd	r2, Y+18	; 0x12
    5074:	39 88       	ldd	r3, Y+17	; 0x11
    5076:	48 88       	ldd	r4, Y+16	; 0x10
    5078:	5f 84       	ldd	r5, Y+15	; 0x0f
    507a:	6e 84       	ldd	r6, Y+14	; 0x0e
    507c:	7d 84       	ldd	r7, Y+13	; 0x0d
    507e:	8c 84       	ldd	r8, Y+12	; 0x0c
    5080:	9b 84       	ldd	r9, Y+11	; 0x0b
    5082:	aa 84       	ldd	r10, Y+10	; 0x0a
    5084:	b9 84       	ldd	r11, Y+9	; 0x09
    5086:	c8 84       	ldd	r12, Y+8	; 0x08
    5088:	df 80       	ldd	r13, Y+7	; 0x07
    508a:	ee 80       	ldd	r14, Y+6	; 0x06
    508c:	fd 80       	ldd	r15, Y+5	; 0x05
    508e:	0c 81       	ldd	r16, Y+4	; 0x04
    5090:	1b 81       	ldd	r17, Y+3	; 0x03
    5092:	aa 81       	ldd	r26, Y+2	; 0x02
    5094:	b9 81       	ldd	r27, Y+1	; 0x01
    5096:	ce 0f       	add	r28, r30
    5098:	d1 1d       	adc	r29, r1
    509a:	0f b6       	in	r0, 0x3f	; 63
    509c:	f8 94       	cli
    509e:	de bf       	out	0x3e, r29	; 62
    50a0:	0f be       	out	0x3f, r0	; 63
    50a2:	cd bf       	out	0x3d, r28	; 61
    50a4:	ed 01       	movw	r28, r26
    50a6:	08 95       	ret

000050a8 <__udivmodsi4>:
    50a8:	a1 e2       	ldi	r26, 0x21	; 33
    50aa:	1a 2e       	mov	r1, r26
    50ac:	aa 1b       	sub	r26, r26
    50ae:	bb 1b       	sub	r27, r27
    50b0:	fd 01       	movw	r30, r26
    50b2:	0d c0       	rjmp	.+26     	; 0x50ce <__udivmodsi4_ep>

000050b4 <__udivmodsi4_loop>:
    50b4:	aa 1f       	adc	r26, r26
    50b6:	bb 1f       	adc	r27, r27
    50b8:	ee 1f       	adc	r30, r30
    50ba:	ff 1f       	adc	r31, r31
    50bc:	a2 17       	cp	r26, r18
    50be:	b3 07       	cpc	r27, r19
    50c0:	e4 07       	cpc	r30, r20
    50c2:	f5 07       	cpc	r31, r21
    50c4:	20 f0       	brcs	.+8      	; 0x50ce <__udivmodsi4_ep>
    50c6:	a2 1b       	sub	r26, r18
    50c8:	b3 0b       	sbc	r27, r19
    50ca:	e4 0b       	sbc	r30, r20
    50cc:	f5 0b       	sbc	r31, r21

000050ce <__udivmodsi4_ep>:
    50ce:	66 1f       	adc	r22, r22
    50d0:	77 1f       	adc	r23, r23
    50d2:	88 1f       	adc	r24, r24
    50d4:	99 1f       	adc	r25, r25
    50d6:	1a 94       	dec	r1
    50d8:	69 f7       	brne	.-38     	; 0x50b4 <__udivmodsi4_loop>
    50da:	60 95       	com	r22
    50dc:	70 95       	com	r23
    50de:	80 95       	com	r24
    50e0:	90 95       	com	r25
    50e2:	9b 01       	movw	r18, r22
    50e4:	ac 01       	movw	r20, r24
    50e6:	bd 01       	movw	r22, r26
    50e8:	cf 01       	movw	r24, r30
    50ea:	08 95       	ret

000050ec <isspace>:
    50ec:	91 11       	cpse	r25, r1
    50ee:	0e c0       	rjmp	.+28     	; 0x510c <__ctype_isfalse>
    50f0:	80 32       	cpi	r24, 0x20	; 32
    50f2:	19 f0       	breq	.+6      	; 0x50fa <isspace+0xe>
    50f4:	89 50       	subi	r24, 0x09	; 9
    50f6:	85 50       	subi	r24, 0x05	; 5
    50f8:	d0 f7       	brcc	.-12     	; 0x50ee <isspace+0x2>
    50fa:	08 95       	ret

000050fc <tolower>:
    50fc:	91 11       	cpse	r25, r1
    50fe:	08 95       	ret
    5100:	81 54       	subi	r24, 0x41	; 65
    5102:	8a 51       	subi	r24, 0x1A	; 26
    5104:	08 f4       	brcc	.+2      	; 0x5108 <tolower+0xc>
    5106:	80 5e       	subi	r24, 0xE0	; 224
    5108:	85 5a       	subi	r24, 0xA5	; 165
    510a:	08 95       	ret

0000510c <__ctype_isfalse>:
    510c:	99 27       	eor	r25, r25
    510e:	88 27       	eor	r24, r24

00005110 <__ctype_istrue>:
    5110:	08 95       	ret

00005112 <_exit>:
    5112:	f8 94       	cli

00005114 <__stop_program>:
    5114:	ff cf       	rjmp	.-2      	; 0x5114 <__stop_program>
